   1              		.syntax unified
   2              		.cpu cortex-m3
   3              		.fpu softvfp
   4              		.eabi_attribute 20, 1
   5              		.eabi_attribute 21, 1
   6              		.eabi_attribute 23, 3
   7              		.eabi_attribute 24, 1
   8              		.eabi_attribute 25, 1
   9              		.eabi_attribute 26, 1
  10              		.eabi_attribute 30, 1
  11              		.eabi_attribute 18, 4
  12              		.thumb
  13              		.file	"ff.c"
  23              	.Ltext0:
  24              		.file 1 "../sd_card/fatfs/ff.c"
 18792              		.align	2
 18793              		.thumb
 18794              		.thumb_func
 18796              	mem_cpy:
 18797              	.LFB29:
   1:../sd_card/fatfs/ff.c **** /*----------------------------------------------------------------------------/
   2:../sd_card/fatfs/ff.c **** /  FatFs - FAT file system module  R0.07e                    (C)ChaN, 2009
   3:../sd_card/fatfs/ff.c **** /-----------------------------------------------------------------------------/
   4:../sd_card/fatfs/ff.c **** / FatFs module is a generic FAT file system module for small embedded systems.
   5:../sd_card/fatfs/ff.c **** / This is a free software that opened for education, research and commercial
   6:../sd_card/fatfs/ff.c **** / developments under license policy of following terms.
   7:../sd_card/fatfs/ff.c **** /
   8:../sd_card/fatfs/ff.c **** /  Copyright (C) 2009, ChaN, all right reserved.
   9:../sd_card/fatfs/ff.c **** /
  10:../sd_card/fatfs/ff.c **** / * The FatFs module is a free software and there is NO WARRANTY.
  11:../sd_card/fatfs/ff.c **** / * No restriction on use. You can use, modify and redistribute it for
  12:../sd_card/fatfs/ff.c **** /   personal, non-profit or commercial products UNDER YOUR RESPONSIBILITY.
  13:../sd_card/fatfs/ff.c **** / * Redistributions of source code must retain the above copyright notice.
  14:../sd_card/fatfs/ff.c **** /
  15:../sd_card/fatfs/ff.c **** /-----------------------------------------------------------------------------/
  16:../sd_card/fatfs/ff.c **** / Feb 26,'06 R0.00  Prototype.
  17:../sd_card/fatfs/ff.c **** /
  18:../sd_card/fatfs/ff.c **** / Apr 29,'06 R0.01  First stable version.
  19:../sd_card/fatfs/ff.c **** /
  20:../sd_card/fatfs/ff.c **** / Jun 01,'06 R0.02  Added FAT12 support.
  21:../sd_card/fatfs/ff.c **** /                   Removed unbuffered mode.
  22:../sd_card/fatfs/ff.c **** /                   Fixed a problem on small (<32M) partition.
  23:../sd_card/fatfs/ff.c **** / Jun 10,'06 R0.02a Added a configuration option (_FS_MINIMUM).
  24:../sd_card/fatfs/ff.c **** /
  25:../sd_card/fatfs/ff.c **** / Sep 22,'06 R0.03  Added f_rename().
  26:../sd_card/fatfs/ff.c **** /                   Changed option _FS_MINIMUM to _FS_MINIMIZE.
  27:../sd_card/fatfs/ff.c **** / Dec 11,'06 R0.03a Improved cluster scan algorithm to write files fast.
  28:../sd_card/fatfs/ff.c **** /                   Fixed f_mkdir() creates incorrect directory on FAT32.
  29:../sd_card/fatfs/ff.c **** /
  30:../sd_card/fatfs/ff.c **** / Feb 04,'07 R0.04  Supported multiple drive system.
  31:../sd_card/fatfs/ff.c **** /                   Changed some interfaces for multiple drive system.
  32:../sd_card/fatfs/ff.c **** /                   Changed f_mountdrv() to f_mount().
  33:../sd_card/fatfs/ff.c **** /                   Added f_mkfs().
  34:../sd_card/fatfs/ff.c **** / Apr 01,'07 R0.04a Supported multiple partitions on a physical drive.
  35:../sd_card/fatfs/ff.c **** /                   Added a capability of extending file size to f_lseek().
  36:../sd_card/fatfs/ff.c **** /                   Added minimization level 3.
  37:../sd_card/fatfs/ff.c **** /                   Fixed an endian sensitive code in f_mkfs().
  38:../sd_card/fatfs/ff.c **** / May 05,'07 R0.04b Added a configuration option _USE_NTFLAG.
  39:../sd_card/fatfs/ff.c **** /                   Added FSInfo support.
  40:../sd_card/fatfs/ff.c **** /                   Fixed DBCS name can result FR_INVALID_NAME.
  41:../sd_card/fatfs/ff.c **** /                   Fixed short seek (<= csize) collapses the file object.
  42:../sd_card/fatfs/ff.c **** /
  43:../sd_card/fatfs/ff.c **** / Aug 25,'07 R0.05  Changed arguments of f_read(), f_write() and f_mkfs().
  44:../sd_card/fatfs/ff.c **** /                   Fixed f_mkfs() on FAT32 creates incorrect FSInfo.
  45:../sd_card/fatfs/ff.c **** /                   Fixed f_mkdir() on FAT32 creates incorrect directory.
  46:../sd_card/fatfs/ff.c **** / Feb 03,'08 R0.05a Added f_truncate() and f_utime().
  47:../sd_card/fatfs/ff.c **** /                   Fixed off by one error at FAT sub-type determination.
  48:../sd_card/fatfs/ff.c **** /                   Fixed btr in f_read() can be mistruncated.
  49:../sd_card/fatfs/ff.c **** /                   Fixed cached sector is not flushed when create and close
  50:../sd_card/fatfs/ff.c **** /                   without write.
  51:../sd_card/fatfs/ff.c **** /
  52:../sd_card/fatfs/ff.c **** / Apr 01,'08 R0.06  Added fputc(), fputs(), fprintf() and fgets().
  53:../sd_card/fatfs/ff.c **** /                   Improved performance of f_lseek() on moving to the same
  54:../sd_card/fatfs/ff.c **** /                   or following cluster.
  55:../sd_card/fatfs/ff.c **** /
  56:../sd_card/fatfs/ff.c **** / Apr 01,'09 R0.07  Merged Tiny-FatFs as a buffer configuration option.
  57:../sd_card/fatfs/ff.c **** /                   Added long file name support.
  58:../sd_card/fatfs/ff.c **** /                   Added multiple code page support.
  59:../sd_card/fatfs/ff.c **** /                   Added re-entrancy for multitask operation.
  60:../sd_card/fatfs/ff.c **** /                   Added auto cluster size selection to f_mkfs().
  61:../sd_card/fatfs/ff.c **** /                   Added rewind option to f_readdir().
  62:../sd_card/fatfs/ff.c **** /                   Changed result code of critical errors.
  63:../sd_card/fatfs/ff.c **** /                   Renamed string functions to avoid name collision.
  64:../sd_card/fatfs/ff.c **** / Apr 14,'09 R0.07a Separated out OS dependent code on reentrant cfg.
  65:../sd_card/fatfs/ff.c **** /                   Added multiple sector size support.
  66:../sd_card/fatfs/ff.c **** / Jun 21,'09 R0.07c Fixed f_unlink() can return FR_OK on error.
  67:../sd_card/fatfs/ff.c **** /                   Fixed wrong cache control in f_lseek().
  68:../sd_card/fatfs/ff.c **** /                   Added relative path feature.
  69:../sd_card/fatfs/ff.c **** /                   Added f_chdir() and f_chdrive().
  70:../sd_card/fatfs/ff.c **** /                   Added proper case conversion to extended char.
  71:../sd_card/fatfs/ff.c **** / Nov 03,'09 R0.07e Separated out configuration options from ff.h to ffconf.h.
  72:../sd_card/fatfs/ff.c **** /                   Fixed f_unlink() fails to remove a sub-dir on _FS_RPATH.
  73:../sd_card/fatfs/ff.c **** /                   Fixed name matching error on the 13 char boundary.
  74:../sd_card/fatfs/ff.c **** /                   Added a configuration option, _LFN_UNICODE.
  75:../sd_card/fatfs/ff.c **** /                   Changed f_readdir() to return the SFN with always upper
  76:../sd_card/fatfs/ff.c **** /                   case on non-LFN cfg.
  77:../sd_card/fatfs/ff.c **** /---------------------------------------------------------------------------*/
  78:../sd_card/fatfs/ff.c **** 
  79:../sd_card/fatfs/ff.c **** #include "ff.h"			/* FatFs configurations and declarations */
  80:../sd_card/fatfs/ff.c **** #include "ff_diskio.h"		/* Declarations of low level disk I/O functions */
  81:../sd_card/fatfs/ff.c **** 
  82:../sd_card/fatfs/ff.c **** /*--------------------------------------------------------------------------
  83:../sd_card/fatfs/ff.c **** 
  84:../sd_card/fatfs/ff.c ****    Module Private Definitions
  85:../sd_card/fatfs/ff.c **** 
  86:../sd_card/fatfs/ff.c **** ---------------------------------------------------------------------------*/
  87:../sd_card/fatfs/ff.c **** 
  88:../sd_card/fatfs/ff.c **** #if _FATFS != 0x007E
  89:../sd_card/fatfs/ff.c **** #error Wrong include file (ff.h).
  90:../sd_card/fatfs/ff.c **** #endif
  91:../sd_card/fatfs/ff.c **** 
  92:../sd_card/fatfs/ff.c **** #if _FS_REENTRANT
  93:../sd_card/fatfs/ff.c **** #if _USE_LFN == 1
  94:../sd_card/fatfs/ff.c **** #error Static LFN work area must not be used in re-entrant configuration.
  95:../sd_card/fatfs/ff.c **** #endif
  96:../sd_card/fatfs/ff.c **** #define	ENTER_FF(fs)		{ if (!lock_fs(fs)) return FR_TIMEOUT; }
  97:../sd_card/fatfs/ff.c **** #define	LEAVE_FF(fs, res)	{ unlock_fs(fs, res); return res; }
  98:../sd_card/fatfs/ff.c **** 
  99:../sd_card/fatfs/ff.c **** #else
 100:../sd_card/fatfs/ff.c **** #define	ENTER_FF(fs)
 101:../sd_card/fatfs/ff.c **** #define LEAVE_FF(fs, res)	return res
 102:../sd_card/fatfs/ff.c **** 
 103:../sd_card/fatfs/ff.c **** #endif
 104:../sd_card/fatfs/ff.c **** 
 105:../sd_card/fatfs/ff.c **** #define	ABORT(fs, res)		{ fp->flag |= FA__ERROR; LEAVE_FF(fs, res); }
 106:../sd_card/fatfs/ff.c **** 
 107:../sd_card/fatfs/ff.c **** #ifndef NULL
 108:../sd_card/fatfs/ff.c **** #define	NULL	0
 109:../sd_card/fatfs/ff.c **** #endif
 110:../sd_card/fatfs/ff.c **** 
 111:../sd_card/fatfs/ff.c **** /* Name status flags */
 112:../sd_card/fatfs/ff.c **** #define NS			11		/* Offset of name status byte */
 113:../sd_card/fatfs/ff.c **** #define NS_LOSS		0x01	/* Out of 8.3 format */
 114:../sd_card/fatfs/ff.c **** #define NS_LFN		0x02	/* Force to create LFN entry */
 115:../sd_card/fatfs/ff.c **** #define NS_LAST		0x04	/* Last segment */
 116:../sd_card/fatfs/ff.c **** #define NS_BODY		0x08	/* Lower case flag (body) */
 117:../sd_card/fatfs/ff.c **** #define NS_EXT		0x10	/* Lower case flag (ext) */
 118:../sd_card/fatfs/ff.c **** #define NS_DOT		0x20	/* Dot entry */
 119:../sd_card/fatfs/ff.c **** 
 120:../sd_card/fatfs/ff.c **** 
 121:../sd_card/fatfs/ff.c **** 
 122:../sd_card/fatfs/ff.c **** 
 123:../sd_card/fatfs/ff.c **** /*--------------------------------------------------------------------------
 124:../sd_card/fatfs/ff.c **** 
 125:../sd_card/fatfs/ff.c ****    Private Work Area
 126:../sd_card/fatfs/ff.c **** 
 127:../sd_card/fatfs/ff.c **** ---------------------------------------------------------------------------*/
 128:../sd_card/fatfs/ff.c **** 
 129:../sd_card/fatfs/ff.c **** #if _DRIVES < 1 || _DRIVES > 9
 130:../sd_card/fatfs/ff.c **** #error Number of drives must be 1-9.
 131:../sd_card/fatfs/ff.c **** #endif
 132:../sd_card/fatfs/ff.c **** static
 133:../sd_card/fatfs/ff.c **** FATFS *FatFs[_DRIVES];	/* Pointer to the file system objects (logical drives) */
 134:../sd_card/fatfs/ff.c **** 
 135:../sd_card/fatfs/ff.c **** static
 136:../sd_card/fatfs/ff.c **** WORD Fsid;				/* File system mount ID */
 137:../sd_card/fatfs/ff.c **** 
 138:../sd_card/fatfs/ff.c **** #if _FS_RPATH
 139:../sd_card/fatfs/ff.c **** static
 140:../sd_card/fatfs/ff.c **** BYTE Drive;				/* Current drive */
 141:../sd_card/fatfs/ff.c **** #endif
 142:../sd_card/fatfs/ff.c **** 
 143:../sd_card/fatfs/ff.c **** 
 144:../sd_card/fatfs/ff.c **** #if _USE_LFN == 1	/* LFN with static LFN working buffer */
 145:../sd_card/fatfs/ff.c **** static
 146:../sd_card/fatfs/ff.c **** WCHAR LfnBuf[_MAX_LFN + 1];
 147:../sd_card/fatfs/ff.c **** #define	NAMEBUF(sp,lp)	BYTE sp[12]; WCHAR *lp = LfnBuf
 148:../sd_card/fatfs/ff.c **** #define INITBUF(dj,sp,lp)	dj.fn = sp; dj.lfn = lp
 149:../sd_card/fatfs/ff.c **** 
 150:../sd_card/fatfs/ff.c **** #elif _USE_LFN > 1	/* LFN with dynamic LFN working buffer */
 151:../sd_card/fatfs/ff.c **** #define	NAMEBUF(sp,lp)	BYTE sp[12]; WCHAR lbuf[_MAX_LFN + 1], *lp = lbuf
 152:../sd_card/fatfs/ff.c **** #define INITBUF(dj,sp,lp)	dj.fn = sp; dj.lfn = lp
 153:../sd_card/fatfs/ff.c **** 
 154:../sd_card/fatfs/ff.c **** #else				/* No LFN */
 155:../sd_card/fatfs/ff.c **** #define	NAMEBUF(sp,lp)	BYTE sp[12]
 156:../sd_card/fatfs/ff.c **** #define INITBUF(dj,sp,lp)	dj.fn = sp
 157:../sd_card/fatfs/ff.c **** 
 158:../sd_card/fatfs/ff.c **** #endif
 159:../sd_card/fatfs/ff.c **** 
 160:../sd_card/fatfs/ff.c **** 
 161:../sd_card/fatfs/ff.c **** 
 162:../sd_card/fatfs/ff.c **** 
 163:../sd_card/fatfs/ff.c **** /*--------------------------------------------------------------------------
 164:../sd_card/fatfs/ff.c **** 
 165:../sd_card/fatfs/ff.c ****    Module Private Functions
 166:../sd_card/fatfs/ff.c **** 
 167:../sd_card/fatfs/ff.c **** ---------------------------------------------------------------------------*/
 168:../sd_card/fatfs/ff.c **** 
 169:../sd_card/fatfs/ff.c **** 
 170:../sd_card/fatfs/ff.c **** /*-----------------------------------------------------------------------*/
 171:../sd_card/fatfs/ff.c **** /* String functions                                                      */
 172:../sd_card/fatfs/ff.c **** /*-----------------------------------------------------------------------*/
 173:../sd_card/fatfs/ff.c **** 
 174:../sd_card/fatfs/ff.c **** /* Copy memory to memory */
 175:../sd_card/fatfs/ff.c **** static
 176:../sd_card/fatfs/ff.c **** void mem_cpy (void* dst, const void* src, int cnt) {
 18798              		.loc 1 176 0
 18799              		.cfi_startproc
 18800              		@ args = 0, pretend = 0, frame = 0
 18801              		@ frame_needed = 0, uses_anonymous_args = 0
 18802              		@ link register save eliminated.
 18803              	.LVL0:
 177:../sd_card/fatfs/ff.c **** 	char *d = (char*)dst;
 178:../sd_card/fatfs/ff.c **** 	const char *s = (const char *)src;
 179:../sd_card/fatfs/ff.c **** 	while (cnt--) *d++ = *s++;
 18804              		.loc 1 179 0
 18805 0000 1346     		mov	r3, r2
 18806 0002 4AB1     		cbz	r2, .L4
 18807 0004 4FF00002 		mov	r2, #0
 18808              	.LVL1:
 18809              	.L3:
 18810 0008 11F802C0 		ldrb	ip, [r1, r2]	@ zero_extendqisi2
 18811 000c 00F802C0 		strb	ip, [r0, r2]
 18812 0010 02F10102 		add	r2, r2, #1
 18813 0014 9342     		cmp	r3, r2
 18814 0016 F7D1     		bne	.L3
 18815              	.LVL2:
 18816              	.L4:
 18817 0018 7047     		bx	lr
 18818              		.cfi_endproc
 18819              	.LFE29:
 18821 001a 00BF     		.section	.text.mem_set,"ax",%progbits
 18822              		.align	2
 18823              		.thumb
 18824              		.thumb_func
 18826              	mem_set:
 18827              	.LFB30:
 180:../sd_card/fatfs/ff.c **** }
 181:../sd_card/fatfs/ff.c **** 
 182:../sd_card/fatfs/ff.c **** /* Fill memory */
 183:../sd_card/fatfs/ff.c **** static
 184:../sd_card/fatfs/ff.c **** void mem_set (void* dst, int val, int cnt) {
 18828              		.loc 1 184 0
 18829              		.cfi_startproc
 18830              		@ args = 0, pretend = 0, frame = 0
 18831              		@ frame_needed = 0, uses_anonymous_args = 0
 18832              		@ link register save eliminated.
 18833              	.LVL3:
 185:../sd_card/fatfs/ff.c **** 	char *d = (char*)dst;
 186:../sd_card/fatfs/ff.c **** 	while (cnt--) *d++ = (char)val;
 18834              		.loc 1 186 0
 18835 0000 1346     		mov	r3, r2
 18836 0002 32B1     		cbz	r2, .L9
 18837 0004 4FF00002 		mov	r2, #0
 18838              	.LVL4:
 18839              	.L8:
 18840 0008 8154     		strb	r1, [r0, r2]
 18841 000a 02F10102 		add	r2, r2, #1
 18842 000e 9342     		cmp	r3, r2
 18843 0010 FAD1     		bne	.L8
 18844              	.LVL5:
 18845              	.L9:
 18846 0012 7047     		bx	lr
 18847              		.cfi_endproc
 18848              	.LFE30:
 18850              		.section	.text.clust2sect,"ax",%progbits
 18851              		.align	2
 18852              		.global	clust2sect
 18853              		.thumb
 18854              		.thumb_func
 18856              	clust2sect:
 18857              	.LFB39:
 187:../sd_card/fatfs/ff.c **** }
 188:../sd_card/fatfs/ff.c **** 
 189:../sd_card/fatfs/ff.c **** /* Compare memory to memory */
 190:../sd_card/fatfs/ff.c **** static
 191:../sd_card/fatfs/ff.c **** int mem_cmp (const void* dst, const void* src, int cnt) {
 192:../sd_card/fatfs/ff.c **** 	const char *d = (const char *)dst, *s = (const char *)src;
 193:../sd_card/fatfs/ff.c **** 	int r = 0;
 194:../sd_card/fatfs/ff.c **** 	while (cnt-- && (r = *d++ - *s++) == 0) ;
 195:../sd_card/fatfs/ff.c **** 	return r;
 196:../sd_card/fatfs/ff.c **** }
 197:../sd_card/fatfs/ff.c **** 
 198:../sd_card/fatfs/ff.c **** /* Check if chr is contained in the string */
 199:../sd_card/fatfs/ff.c **** static
 200:../sd_card/fatfs/ff.c **** int chk_chr (const char* str, int chr) {
 201:../sd_card/fatfs/ff.c **** 	while (*str && *str != chr) str++;
 202:../sd_card/fatfs/ff.c **** 	return *str;
 203:../sd_card/fatfs/ff.c **** }
 204:../sd_card/fatfs/ff.c **** 
 205:../sd_card/fatfs/ff.c **** 
 206:../sd_card/fatfs/ff.c **** 
 207:../sd_card/fatfs/ff.c **** /*-----------------------------------------------------------------------*/
 208:../sd_card/fatfs/ff.c **** /* Request/Release grant to access the volume                            */
 209:../sd_card/fatfs/ff.c **** /*-----------------------------------------------------------------------*/
 210:../sd_card/fatfs/ff.c **** #if _FS_REENTRANT
 211:../sd_card/fatfs/ff.c **** 
 212:../sd_card/fatfs/ff.c **** static
 213:../sd_card/fatfs/ff.c **** BOOL lock_fs (
 214:../sd_card/fatfs/ff.c **** 	FATFS *fs		/* File system object */
 215:../sd_card/fatfs/ff.c **** )
 216:../sd_card/fatfs/ff.c **** {
 217:../sd_card/fatfs/ff.c **** 	return ff_req_grant(fs->sobj);
 218:../sd_card/fatfs/ff.c **** }
 219:../sd_card/fatfs/ff.c **** 
 220:../sd_card/fatfs/ff.c **** 
 221:../sd_card/fatfs/ff.c **** static
 222:../sd_card/fatfs/ff.c **** void unlock_fs (
 223:../sd_card/fatfs/ff.c **** 	FATFS *fs,		/* File system object */
 224:../sd_card/fatfs/ff.c **** 	FRESULT res		/* Result code to be returned */
 225:../sd_card/fatfs/ff.c **** )
 226:../sd_card/fatfs/ff.c **** {
 227:../sd_card/fatfs/ff.c **** 	if (res != FR_NOT_ENABLED &&
 228:../sd_card/fatfs/ff.c **** 		res != FR_INVALID_DRIVE &&
 229:../sd_card/fatfs/ff.c **** 		res != FR_INVALID_OBJECT &&
 230:../sd_card/fatfs/ff.c **** 		res != FR_TIMEOUT) {
 231:../sd_card/fatfs/ff.c **** 		ff_rel_grant(fs->sobj);
 232:../sd_card/fatfs/ff.c **** 	}
 233:../sd_card/fatfs/ff.c **** }
 234:../sd_card/fatfs/ff.c **** #endif
 235:../sd_card/fatfs/ff.c **** 
 236:../sd_card/fatfs/ff.c **** 
 237:../sd_card/fatfs/ff.c **** 
 238:../sd_card/fatfs/ff.c **** /*-----------------------------------------------------------------------*/
 239:../sd_card/fatfs/ff.c **** /* Change window offset                                                  */
 240:../sd_card/fatfs/ff.c **** /*-----------------------------------------------------------------------*/
 241:../sd_card/fatfs/ff.c **** 
 242:../sd_card/fatfs/ff.c **** static
 243:../sd_card/fatfs/ff.c **** FRESULT move_window (
 244:../sd_card/fatfs/ff.c **** 	FATFS *fs,		/* File system object */
 245:../sd_card/fatfs/ff.c **** 	DWORD sector	/* Sector number to make appearance in the fs->win[] */
 246:../sd_card/fatfs/ff.c **** )					/* Move to zero only writes back dirty window */
 247:../sd_card/fatfs/ff.c **** {
 248:../sd_card/fatfs/ff.c **** 	DWORD wsect;
 249:../sd_card/fatfs/ff.c **** 
 250:../sd_card/fatfs/ff.c **** 
 251:../sd_card/fatfs/ff.c **** 	wsect = fs->winsect;
 252:../sd_card/fatfs/ff.c **** 	if (wsect != sector) {	/* Changed current window */
 253:../sd_card/fatfs/ff.c **** #if !_FS_READONLY
 254:../sd_card/fatfs/ff.c **** 		if (fs->wflag) {	/* Write back dirty window if needed */
 255:../sd_card/fatfs/ff.c **** 			if (disk_write(fs->drive, fs->win, wsect, 1) != RES_OK)
 256:../sd_card/fatfs/ff.c **** 				return FR_DISK_ERR;
 257:../sd_card/fatfs/ff.c **** 			fs->wflag = 0;
 258:../sd_card/fatfs/ff.c **** 			if (wsect < (fs->fatbase + fs->sects_fat)) {	/* In FAT area */
 259:../sd_card/fatfs/ff.c **** 				BYTE nf;
 260:../sd_card/fatfs/ff.c **** 				for (nf = fs->n_fats; nf > 1; nf--) {	/* Reflect the change to all FAT copies */
 261:../sd_card/fatfs/ff.c **** 					wsect += fs->sects_fat;
 262:../sd_card/fatfs/ff.c **** 					disk_write(fs->drive, fs->win, wsect, 1);
 263:../sd_card/fatfs/ff.c **** 				}
 264:../sd_card/fatfs/ff.c **** 			}
 265:../sd_card/fatfs/ff.c **** 		}
 266:../sd_card/fatfs/ff.c **** #endif
 267:../sd_card/fatfs/ff.c **** 		if (sector) {
 268:../sd_card/fatfs/ff.c **** 			if (disk_read(fs->drive, fs->win, sector, 1) != RES_OK)
 269:../sd_card/fatfs/ff.c **** 				return FR_DISK_ERR;
 270:../sd_card/fatfs/ff.c **** 			fs->winsect = sector;
 271:../sd_card/fatfs/ff.c **** 		}
 272:../sd_card/fatfs/ff.c **** 	}
 273:../sd_card/fatfs/ff.c **** 
 274:../sd_card/fatfs/ff.c **** 	return FR_OK;
 275:../sd_card/fatfs/ff.c **** }
 276:../sd_card/fatfs/ff.c **** 
 277:../sd_card/fatfs/ff.c **** 
 278:../sd_card/fatfs/ff.c **** 
 279:../sd_card/fatfs/ff.c **** 
 280:../sd_card/fatfs/ff.c **** /*-----------------------------------------------------------------------*/
 281:../sd_card/fatfs/ff.c **** /* Clean-up cached data                                                  */
 282:../sd_card/fatfs/ff.c **** /*-----------------------------------------------------------------------*/
 283:../sd_card/fatfs/ff.c **** #if !_FS_READONLY
 284:../sd_card/fatfs/ff.c **** static
 285:../sd_card/fatfs/ff.c **** FRESULT sync (	/* FR_OK: successful, FR_DISK_ERR: failed */
 286:../sd_card/fatfs/ff.c **** 	FATFS *fs	/* File system object */
 287:../sd_card/fatfs/ff.c **** )
 288:../sd_card/fatfs/ff.c **** {
 289:../sd_card/fatfs/ff.c **** 	FRESULT res;
 290:../sd_card/fatfs/ff.c **** 
 291:../sd_card/fatfs/ff.c **** 
 292:../sd_card/fatfs/ff.c **** 	res = move_window(fs, 0);
 293:../sd_card/fatfs/ff.c **** 	if (res == FR_OK) {
 294:../sd_card/fatfs/ff.c **** 		/* Update FSInfo sector if needed */
 295:../sd_card/fatfs/ff.c **** 		if (fs->fs_type == FS_FAT32 && fs->fsi_flag) {
 296:../sd_card/fatfs/ff.c **** 			fs->winsect = 0;
 297:../sd_card/fatfs/ff.c **** 			mem_set(fs->win, 0, 512);
 298:../sd_card/fatfs/ff.c **** 			ST_WORD(fs->win+BS_55AA, 0xAA55);
 299:../sd_card/fatfs/ff.c **** 			ST_DWORD(fs->win+FSI_LeadSig, 0x41615252);
 300:../sd_card/fatfs/ff.c **** 			ST_DWORD(fs->win+FSI_StrucSig, 0x61417272);
 301:../sd_card/fatfs/ff.c **** 			ST_DWORD(fs->win+FSI_Free_Count, fs->free_clust);
 302:../sd_card/fatfs/ff.c **** 			ST_DWORD(fs->win+FSI_Nxt_Free, fs->last_clust);
 303:../sd_card/fatfs/ff.c **** 			disk_write(fs->drive, fs->win, fs->fsi_sector, 1);
 304:../sd_card/fatfs/ff.c **** 			fs->fsi_flag = 0;
 305:../sd_card/fatfs/ff.c **** 		}
 306:../sd_card/fatfs/ff.c **** 		/* Make sure that no pending write process in the physical drive */
 307:../sd_card/fatfs/ff.c **** 		if (disk_ioctl(fs->drive, CTRL_SYNC, (void*)NULL) != RES_OK)
 308:../sd_card/fatfs/ff.c **** 			res = FR_DISK_ERR;
 309:../sd_card/fatfs/ff.c **** 	}
 310:../sd_card/fatfs/ff.c **** 
 311:../sd_card/fatfs/ff.c **** 	return res;
 312:../sd_card/fatfs/ff.c **** }
 313:../sd_card/fatfs/ff.c **** #endif
 314:../sd_card/fatfs/ff.c **** 
 315:../sd_card/fatfs/ff.c **** 
 316:../sd_card/fatfs/ff.c **** 
 317:../sd_card/fatfs/ff.c **** 
 318:../sd_card/fatfs/ff.c **** /*-----------------------------------------------------------------------*/
 319:../sd_card/fatfs/ff.c **** /* FAT access - Read value of a FAT entry                                */
 320:../sd_card/fatfs/ff.c **** /*-----------------------------------------------------------------------*/
 321:../sd_card/fatfs/ff.c **** 
 322:../sd_card/fatfs/ff.c **** 
 323:../sd_card/fatfs/ff.c **** DWORD get_fat (	/* 0xFFFFFFFF:Disk error, 1:Internal error, Else:Cluster status */
 324:../sd_card/fatfs/ff.c **** 	FATFS *fs,	/* File system object */
 325:../sd_card/fatfs/ff.c **** 	DWORD clst	/* Cluster# to get the link information */
 326:../sd_card/fatfs/ff.c **** )
 327:../sd_card/fatfs/ff.c **** {
 328:../sd_card/fatfs/ff.c **** 	UINT wc, bc;
 329:../sd_card/fatfs/ff.c **** 	DWORD fsect;
 330:../sd_card/fatfs/ff.c **** 
 331:../sd_card/fatfs/ff.c **** 
 332:../sd_card/fatfs/ff.c **** 	if (clst < 2 || clst >= fs->max_clust)	/* Range check */
 333:../sd_card/fatfs/ff.c **** 		return 1;
 334:../sd_card/fatfs/ff.c **** 
 335:../sd_card/fatfs/ff.c **** 	fsect = fs->fatbase;
 336:../sd_card/fatfs/ff.c **** 	switch (fs->fs_type) {
 337:../sd_card/fatfs/ff.c **** 	case FS_FAT12 :
 338:../sd_card/fatfs/ff.c **** 		bc = clst; bc += bc / 2;
 339:../sd_card/fatfs/ff.c **** 		if (move_window(fs, fsect + (bc / SS(fs)))) break;
 340:../sd_card/fatfs/ff.c **** 		wc = fs->win[bc & (SS(fs) - 1)]; bc++;
 341:../sd_card/fatfs/ff.c **** 		if (move_window(fs, fsect + (bc / SS(fs)))) break;
 342:../sd_card/fatfs/ff.c **** 		wc |= (WORD)fs->win[bc & (SS(fs) - 1)] << 8;
 343:../sd_card/fatfs/ff.c **** 		return (clst & 1) ? (wc >> 4) : (wc & 0xFFF);
 344:../sd_card/fatfs/ff.c **** 
 345:../sd_card/fatfs/ff.c **** 	case FS_FAT16 :
 346:../sd_card/fatfs/ff.c **** 		if (move_window(fs, fsect + (clst / (SS(fs) / 2)))) break;
 347:../sd_card/fatfs/ff.c **** 		return LD_WORD(&fs->win[((WORD)clst * 2) & (SS(fs) - 1)]);
 348:../sd_card/fatfs/ff.c **** 
 349:../sd_card/fatfs/ff.c **** 	case FS_FAT32 :
 350:../sd_card/fatfs/ff.c **** 		if (move_window(fs, fsect + (clst / (SS(fs) / 4)))) break;
 351:../sd_card/fatfs/ff.c **** 		return LD_DWORD(&fs->win[((WORD)clst * 4) & (SS(fs) - 1)]) & 0x0FFFFFFF;
 352:../sd_card/fatfs/ff.c **** 	}
 353:../sd_card/fatfs/ff.c **** 
 354:../sd_card/fatfs/ff.c **** 	return 0xFFFFFFFF;	/* An error occurred at the disk I/O layer */
 355:../sd_card/fatfs/ff.c **** }
 356:../sd_card/fatfs/ff.c **** 
 357:../sd_card/fatfs/ff.c **** 
 358:../sd_card/fatfs/ff.c **** 
 359:../sd_card/fatfs/ff.c **** 
 360:../sd_card/fatfs/ff.c **** /*-----------------------------------------------------------------------*/
 361:../sd_card/fatfs/ff.c **** /* FAT access - Change value of a FAT entry                              */
 362:../sd_card/fatfs/ff.c **** /*-----------------------------------------------------------------------*/
 363:../sd_card/fatfs/ff.c **** #if !_FS_READONLY
 364:../sd_card/fatfs/ff.c **** 
 365:../sd_card/fatfs/ff.c **** FRESULT put_fat (
 366:../sd_card/fatfs/ff.c **** 	FATFS *fs,	/* File system object */
 367:../sd_card/fatfs/ff.c **** 	DWORD clst,	/* Cluster# to be changed in range of 2 to fs->max_clust - 1 */
 368:../sd_card/fatfs/ff.c **** 	DWORD val	/* New value to mark the cluster */
 369:../sd_card/fatfs/ff.c **** )
 370:../sd_card/fatfs/ff.c **** {
 371:../sd_card/fatfs/ff.c **** 	UINT bc;
 372:../sd_card/fatfs/ff.c **** 	BYTE *p;
 373:../sd_card/fatfs/ff.c **** 	DWORD fsect;
 374:../sd_card/fatfs/ff.c **** 	FRESULT res;
 375:../sd_card/fatfs/ff.c **** 
 376:../sd_card/fatfs/ff.c **** 
 377:../sd_card/fatfs/ff.c **** 	if (clst < 2 || clst >= fs->max_clust) {	/* Range check */
 378:../sd_card/fatfs/ff.c **** 		res = FR_INT_ERR;
 379:../sd_card/fatfs/ff.c **** 
 380:../sd_card/fatfs/ff.c **** 	} else {
 381:../sd_card/fatfs/ff.c **** 		fsect = fs->fatbase;
 382:../sd_card/fatfs/ff.c **** 		switch (fs->fs_type) {
 383:../sd_card/fatfs/ff.c **** 		case FS_FAT12 :
 384:../sd_card/fatfs/ff.c **** 			bc = clst; bc += bc / 2;
 385:../sd_card/fatfs/ff.c **** 			res = move_window(fs, fsect + (bc / SS(fs)));
 386:../sd_card/fatfs/ff.c **** 			if (res != FR_OK) break;
 387:../sd_card/fatfs/ff.c **** 			p = &fs->win[bc & (SS(fs) - 1)];
 388:../sd_card/fatfs/ff.c **** 			*p = (clst & 1) ? ((*p & 0x0F) | ((BYTE)val << 4)) : (BYTE)val;
 389:../sd_card/fatfs/ff.c **** 			bc++;
 390:../sd_card/fatfs/ff.c **** 			fs->wflag = 1;
 391:../sd_card/fatfs/ff.c **** 			res = move_window(fs, fsect + (bc / SS(fs)));
 392:../sd_card/fatfs/ff.c **** 			if (res != FR_OK) break;
 393:../sd_card/fatfs/ff.c **** 			p = &fs->win[bc & (SS(fs) - 1)];
 394:../sd_card/fatfs/ff.c **** 			*p = (clst & 1) ? (BYTE)(val >> 4) : ((*p & 0xF0) | ((BYTE)(val >> 8) & 0x0F));
 395:../sd_card/fatfs/ff.c **** 			break;
 396:../sd_card/fatfs/ff.c **** 
 397:../sd_card/fatfs/ff.c **** 		case FS_FAT16 :
 398:../sd_card/fatfs/ff.c **** 			res = move_window(fs, fsect + (clst / (SS(fs) / 2)));
 399:../sd_card/fatfs/ff.c **** 			if (res != FR_OK) break;
 400:../sd_card/fatfs/ff.c **** 			ST_WORD(&fs->win[((WORD)clst * 2) & (SS(fs) - 1)], (WORD)val);
 401:../sd_card/fatfs/ff.c **** 			break;
 402:../sd_card/fatfs/ff.c **** 
 403:../sd_card/fatfs/ff.c **** 		case FS_FAT32 :
 404:../sd_card/fatfs/ff.c **** 			res = move_window(fs, fsect + (clst / (SS(fs) / 4)));
 405:../sd_card/fatfs/ff.c **** 			if (res != FR_OK) break;
 406:../sd_card/fatfs/ff.c **** 			ST_DWORD(&fs->win[((WORD)clst * 4) & (SS(fs) - 1)], val);
 407:../sd_card/fatfs/ff.c **** 			break;
 408:../sd_card/fatfs/ff.c **** 
 409:../sd_card/fatfs/ff.c **** 		default :
 410:../sd_card/fatfs/ff.c **** 			res = FR_INT_ERR;
 411:../sd_card/fatfs/ff.c **** 		}
 412:../sd_card/fatfs/ff.c **** 		fs->wflag = 1;
 413:../sd_card/fatfs/ff.c **** 	}
 414:../sd_card/fatfs/ff.c **** 
 415:../sd_card/fatfs/ff.c **** 	return res;
 416:../sd_card/fatfs/ff.c **** }
 417:../sd_card/fatfs/ff.c **** #endif /* !_FS_READONLY */
 418:../sd_card/fatfs/ff.c **** 
 419:../sd_card/fatfs/ff.c **** 
 420:../sd_card/fatfs/ff.c **** 
 421:../sd_card/fatfs/ff.c **** 
 422:../sd_card/fatfs/ff.c **** /*-----------------------------------------------------------------------*/
 423:../sd_card/fatfs/ff.c **** /* FAT handling - Remove a cluster chain                                 */
 424:../sd_card/fatfs/ff.c **** /*-----------------------------------------------------------------------*/
 425:../sd_card/fatfs/ff.c **** #if !_FS_READONLY
 426:../sd_card/fatfs/ff.c **** static
 427:../sd_card/fatfs/ff.c **** FRESULT remove_chain (
 428:../sd_card/fatfs/ff.c **** 	FATFS *fs,			/* File system object */
 429:../sd_card/fatfs/ff.c **** 	DWORD clst			/* Cluster# to remove a chain from */
 430:../sd_card/fatfs/ff.c **** )
 431:../sd_card/fatfs/ff.c **** {
 432:../sd_card/fatfs/ff.c **** 	FRESULT res;
 433:../sd_card/fatfs/ff.c **** 	DWORD nxt;
 434:../sd_card/fatfs/ff.c **** 
 435:../sd_card/fatfs/ff.c **** 
 436:../sd_card/fatfs/ff.c **** 	if (clst < 2 || clst >= fs->max_clust) {	/* Check the range of cluster# */
 437:../sd_card/fatfs/ff.c **** 		res = FR_INT_ERR;
 438:../sd_card/fatfs/ff.c **** 
 439:../sd_card/fatfs/ff.c **** 	} else {
 440:../sd_card/fatfs/ff.c **** 		res = FR_OK;
 441:../sd_card/fatfs/ff.c **** 		while (clst < fs->max_clust) {			/* Not a last link? */
 442:../sd_card/fatfs/ff.c **** 			nxt = get_fat(fs, clst);			/* Get cluster status */
 443:../sd_card/fatfs/ff.c **** 			if (nxt == 0) break;				/* Empty cluster? */
 444:../sd_card/fatfs/ff.c **** 			if (nxt == 1) { res = FR_INT_ERR; break; }	/* Internal error? */
 445:../sd_card/fatfs/ff.c **** 			if (nxt == 0xFFFFFFFF) { res = FR_DISK_ERR; break; }	/* Disk error? */
 446:../sd_card/fatfs/ff.c **** 			res = put_fat(fs, clst, 0);			/* Mark the cluster "empty" */
 447:../sd_card/fatfs/ff.c **** 			if (res != FR_OK) break;
 448:../sd_card/fatfs/ff.c **** 			if (fs->free_clust != 0xFFFFFFFF) {	/* Update FSInfo */
 449:../sd_card/fatfs/ff.c **** 				fs->free_clust++;
 450:../sd_card/fatfs/ff.c **** 				fs->fsi_flag = 1;
 451:../sd_card/fatfs/ff.c **** 			}
 452:../sd_card/fatfs/ff.c **** 			clst = nxt;	/* Next cluster */
 453:../sd_card/fatfs/ff.c **** 		}
 454:../sd_card/fatfs/ff.c **** 	}
 455:../sd_card/fatfs/ff.c **** 
 456:../sd_card/fatfs/ff.c **** 	return res;
 457:../sd_card/fatfs/ff.c **** }
 458:../sd_card/fatfs/ff.c **** #endif
 459:../sd_card/fatfs/ff.c **** 
 460:../sd_card/fatfs/ff.c **** 
 461:../sd_card/fatfs/ff.c **** 
 462:../sd_card/fatfs/ff.c **** 
 463:../sd_card/fatfs/ff.c **** /*-----------------------------------------------------------------------*/
 464:../sd_card/fatfs/ff.c **** /* FAT handling - Stretch or Create a cluster chain                      */
 465:../sd_card/fatfs/ff.c **** /*-----------------------------------------------------------------------*/
 466:../sd_card/fatfs/ff.c **** #if !_FS_READONLY
 467:../sd_card/fatfs/ff.c **** static
 468:../sd_card/fatfs/ff.c **** DWORD create_chain (	/* 0:No free cluster, 1:Internal error, 0xFFFFFFFF:Disk error, >=2:New cluster
 469:../sd_card/fatfs/ff.c **** 	FATFS *fs,			/* File system object */
 470:../sd_card/fatfs/ff.c **** 	DWORD clst			/* Cluster# to stretch. 0 means create a new chain. */
 471:../sd_card/fatfs/ff.c **** )
 472:../sd_card/fatfs/ff.c **** {
 473:../sd_card/fatfs/ff.c **** 	DWORD cs, ncl, scl, mcl;
 474:../sd_card/fatfs/ff.c **** 
 475:../sd_card/fatfs/ff.c **** 
 476:../sd_card/fatfs/ff.c **** 	mcl = fs->max_clust;
 477:../sd_card/fatfs/ff.c **** 	if (clst == 0) {		/* Create new chain */
 478:../sd_card/fatfs/ff.c **** 		scl = fs->last_clust;			/* Get suggested start point */
 479:../sd_card/fatfs/ff.c **** 		if (scl == 0 || scl >= mcl) scl = 1;
 480:../sd_card/fatfs/ff.c **** 	}
 481:../sd_card/fatfs/ff.c **** 	else {					/* Stretch existing chain */
 482:../sd_card/fatfs/ff.c **** 		cs = get_fat(fs, clst);			/* Check the cluster status */
 483:../sd_card/fatfs/ff.c **** 		if (cs < 2) return 1;			/* It is an invalid cluster */
 484:../sd_card/fatfs/ff.c **** 		if (cs < mcl) return cs;		/* It is already followed by next cluster */
 485:../sd_card/fatfs/ff.c **** 		scl = clst;
 486:../sd_card/fatfs/ff.c **** 	}
 487:../sd_card/fatfs/ff.c **** 
 488:../sd_card/fatfs/ff.c **** 	ncl = scl;				/* Start cluster */
 489:../sd_card/fatfs/ff.c **** 	for (;;) {
 490:../sd_card/fatfs/ff.c **** 		ncl++;							/* Next cluster */
 491:../sd_card/fatfs/ff.c **** 		if (ncl >= mcl) {				/* Wrap around */
 492:../sd_card/fatfs/ff.c **** 			ncl = 2;
 493:../sd_card/fatfs/ff.c **** 			if (ncl > scl) return 0;	/* No free cluster */
 494:../sd_card/fatfs/ff.c **** 		}
 495:../sd_card/fatfs/ff.c **** 		cs = get_fat(fs, ncl);			/* Get the cluster status */
 496:../sd_card/fatfs/ff.c **** 		if (cs == 0) break;				/* Found a free cluster */
 497:../sd_card/fatfs/ff.c **** 		if (cs == 0xFFFFFFFF || cs == 1)/* An error occurred */
 498:../sd_card/fatfs/ff.c **** 			return cs;
 499:../sd_card/fatfs/ff.c **** 		if (ncl == scl) return 0;		/* No free cluster */
 500:../sd_card/fatfs/ff.c **** 	}
 501:../sd_card/fatfs/ff.c **** 
 502:../sd_card/fatfs/ff.c **** 	if (put_fat(fs, ncl, 0x0FFFFFFF))	/* Mark the new cluster "in use" */
 503:../sd_card/fatfs/ff.c **** 		return 0xFFFFFFFF;
 504:../sd_card/fatfs/ff.c **** 	if (clst != 0) {					/* Link it to the previous one if needed */
 505:../sd_card/fatfs/ff.c **** 		if (put_fat(fs, clst, ncl))
 506:../sd_card/fatfs/ff.c **** 			return 0xFFFFFFFF;
 507:../sd_card/fatfs/ff.c **** 	}
 508:../sd_card/fatfs/ff.c **** 
 509:../sd_card/fatfs/ff.c **** 	fs->last_clust = ncl;				/* Update FSINFO */
 510:../sd_card/fatfs/ff.c **** 	if (fs->free_clust != 0xFFFFFFFF) {
 511:../sd_card/fatfs/ff.c **** 		fs->free_clust--;
 512:../sd_card/fatfs/ff.c **** 		fs->fsi_flag = 1;
 513:../sd_card/fatfs/ff.c **** 	}
 514:../sd_card/fatfs/ff.c **** 
 515:../sd_card/fatfs/ff.c **** 	return ncl;		/* Return new cluster number */
 516:../sd_card/fatfs/ff.c **** }
 517:../sd_card/fatfs/ff.c **** #endif /* !_FS_READONLY */
 518:../sd_card/fatfs/ff.c **** 
 519:../sd_card/fatfs/ff.c **** 
 520:../sd_card/fatfs/ff.c **** 
 521:../sd_card/fatfs/ff.c **** 
 522:../sd_card/fatfs/ff.c **** /*-----------------------------------------------------------------------*/
 523:../sd_card/fatfs/ff.c **** /* Get sector# from cluster#                                             */
 524:../sd_card/fatfs/ff.c **** /*-----------------------------------------------------------------------*/
 525:../sd_card/fatfs/ff.c **** 
 526:../sd_card/fatfs/ff.c **** 
 527:../sd_card/fatfs/ff.c **** DWORD clust2sect (	/* !=0: Sector number, 0: Failed - invalid cluster# */
 528:../sd_card/fatfs/ff.c **** 	FATFS *fs,		/* File system object */
 529:../sd_card/fatfs/ff.c **** 	DWORD clst		/* Cluster# to be converted */
 530:../sd_card/fatfs/ff.c **** )
 531:../sd_card/fatfs/ff.c **** {
 18858              		.loc 1 531 0
 18859              		.cfi_startproc
 18860              		@ args = 0, pretend = 0, frame = 0
 18861              		@ frame_needed = 0, uses_anonymous_args = 0
 18862              		@ link register save eliminated.
 18863              	.LVL6:
 532:../sd_card/fatfs/ff.c **** 	clst -= 2;
 18864              		.loc 1 532 0
 18865 0000 A1F10201 		sub	r1, r1, #2
 18866              	.LVL7:
 533:../sd_card/fatfs/ff.c **** 	if (clst >= (fs->max_clust - 2)) return 0;		/* Invalid cluster# */
 18867              		.loc 1 533 0
 18868 0004 C369     		ldr	r3, [r0, #28]
 18869 0006 A3F10203 		sub	r3, r3, #2
 18870 000a 9942     		cmp	r1, r3
 18871 000c 2FBF     		iteee	cs
 18872 000e 0020     		movcs	r0, #0
 18873              	.LVL8:
 534:../sd_card/fatfs/ff.c **** 	return clst * fs->csize + fs->database;
 18874              		.loc 1 534 0
 18875 0010 8278     		ldrbcc	r2, [r0, #2]	@ zero_extendqisi2
 18876              	.LVL9:
 18877 0012 836A     		ldrcc	r3, [r0, #40]
 18878 0014 02FB0130 		mlacc	r0, r2, r1, r3
 18879              	.LVL10:
 535:../sd_card/fatfs/ff.c **** }
 18880              		.loc 1 535 0
 18881 0018 7047     		bx	lr
 18882              		.cfi_endproc
 18883              	.LFE39:
 18885 001a 00BF     		.section	.text.f_mount,"ax",%progbits
 18886              		.align	2
 18887              		.global	f_mount
 18888              		.thumb
 18889              		.thumb_func
 18891              	f_mount:
 18892              	.LFB51:
 536:../sd_card/fatfs/ff.c **** 
 537:../sd_card/fatfs/ff.c **** 
 538:../sd_card/fatfs/ff.c **** 
 539:../sd_card/fatfs/ff.c **** 
 540:../sd_card/fatfs/ff.c **** /*-----------------------------------------------------------------------*/
 541:../sd_card/fatfs/ff.c **** /* Directory handling - Seek directory index                             */
 542:../sd_card/fatfs/ff.c **** /*-----------------------------------------------------------------------*/
 543:../sd_card/fatfs/ff.c **** 
 544:../sd_card/fatfs/ff.c **** static
 545:../sd_card/fatfs/ff.c **** FRESULT dir_seek (
 546:../sd_card/fatfs/ff.c **** 	DIR *dj,		/* Pointer to directory object */
 547:../sd_card/fatfs/ff.c **** 	WORD idx		/* Directory index number */
 548:../sd_card/fatfs/ff.c **** )
 549:../sd_card/fatfs/ff.c **** {
 550:../sd_card/fatfs/ff.c **** 	DWORD clst;
 551:../sd_card/fatfs/ff.c **** 	WORD ic;
 552:../sd_card/fatfs/ff.c **** 
 553:../sd_card/fatfs/ff.c **** 
 554:../sd_card/fatfs/ff.c **** 	dj->index = idx;
 555:../sd_card/fatfs/ff.c **** 	clst = dj->sclust;
 556:../sd_card/fatfs/ff.c **** 	if (clst == 1 || clst >= dj->fs->max_clust)	/* Check start cluster range */
 557:../sd_card/fatfs/ff.c **** 		return FR_INT_ERR;
 558:../sd_card/fatfs/ff.c **** 	if (!clst && dj->fs->fs_type == FS_FAT32)	/* Replace cluster# 0 with root cluster# if in FAT32 */
 559:../sd_card/fatfs/ff.c **** 		clst = dj->fs->dirbase;
 560:../sd_card/fatfs/ff.c **** 
 561:../sd_card/fatfs/ff.c **** 	if (clst == 0) {	/* Static table */
 562:../sd_card/fatfs/ff.c **** 		dj->clust = clst;
 563:../sd_card/fatfs/ff.c **** 		if (idx >= dj->fs->n_rootdir)		/* Index is out of range */
 564:../sd_card/fatfs/ff.c **** 			return FR_INT_ERR;
 565:../sd_card/fatfs/ff.c **** 		dj->sect = dj->fs->dirbase + idx / (SS(dj->fs) / 32);	/* Sector# */
 566:../sd_card/fatfs/ff.c **** 	}
 567:../sd_card/fatfs/ff.c **** 	else {				/* Dynamic table */
 568:../sd_card/fatfs/ff.c **** 		ic = SS(dj->fs) / 32 * dj->fs->csize;	/* Entries per cluster */
 569:../sd_card/fatfs/ff.c **** 		while (idx >= ic) {	/* Follow cluster chain */
 570:../sd_card/fatfs/ff.c **** 			clst = get_fat(dj->fs, clst);				/* Get next cluster */
 571:../sd_card/fatfs/ff.c **** 			if (clst == 0xFFFFFFFF) return FR_DISK_ERR;	/* Disk error */
 572:../sd_card/fatfs/ff.c **** 			if (clst < 2 || clst >= dj->fs->max_clust)	/* Reached to end of table or int error */
 573:../sd_card/fatfs/ff.c **** 				return FR_INT_ERR;
 574:../sd_card/fatfs/ff.c **** 			idx -= ic;
 575:../sd_card/fatfs/ff.c **** 		}
 576:../sd_card/fatfs/ff.c **** 		dj->clust = clst;
 577:../sd_card/fatfs/ff.c **** 		dj->sect = clust2sect(dj->fs, clst) + idx / (SS(dj->fs) / 32);	/* Sector# */
 578:../sd_card/fatfs/ff.c **** 	}
 579:../sd_card/fatfs/ff.c **** 
 580:../sd_card/fatfs/ff.c **** 	dj->dir = dj->fs->win + (idx % (SS(dj->fs) / 32)) * 32;	/* Ptr to the entry in the sector */
 581:../sd_card/fatfs/ff.c **** 
 582:../sd_card/fatfs/ff.c **** 	return FR_OK;	/* Seek succeeded */
 583:../sd_card/fatfs/ff.c **** }
 584:../sd_card/fatfs/ff.c **** 
 585:../sd_card/fatfs/ff.c **** 
 586:../sd_card/fatfs/ff.c **** 
 587:../sd_card/fatfs/ff.c **** 
 588:../sd_card/fatfs/ff.c **** /*-----------------------------------------------------------------------*/
 589:../sd_card/fatfs/ff.c **** /* Directory handling - Move directory index next                        */
 590:../sd_card/fatfs/ff.c **** /*-----------------------------------------------------------------------*/
 591:../sd_card/fatfs/ff.c **** 
 592:../sd_card/fatfs/ff.c **** static
 593:../sd_card/fatfs/ff.c **** FRESULT dir_next (	/* FR_OK:Succeeded, FR_NO_FILE:End of table, FR_DENIED:EOT and could not streach
 594:../sd_card/fatfs/ff.c **** 	DIR *dj,		/* Pointer to directory object */
 595:../sd_card/fatfs/ff.c **** 	BOOL streach	/* FALSE: Do not stretch table, TRUE: Stretch table if needed */
 596:../sd_card/fatfs/ff.c **** )
 597:../sd_card/fatfs/ff.c **** {
 598:../sd_card/fatfs/ff.c **** 	DWORD clst;
 599:../sd_card/fatfs/ff.c **** 	WORD i;
 600:../sd_card/fatfs/ff.c **** 
 601:../sd_card/fatfs/ff.c **** 
 602:../sd_card/fatfs/ff.c **** 	i = dj->index + 1;
 603:../sd_card/fatfs/ff.c **** 	if (!i || !dj->sect)	/* Report EOT when index has reached 65535 */
 604:../sd_card/fatfs/ff.c **** 		return FR_NO_FILE;
 605:../sd_card/fatfs/ff.c **** 
 606:../sd_card/fatfs/ff.c **** 	if (!(i % (SS(dj->fs) / 32))) {	/* Sector changed? */
 607:../sd_card/fatfs/ff.c **** 		dj->sect++;					/* Next sector */
 608:../sd_card/fatfs/ff.c **** 
 609:../sd_card/fatfs/ff.c **** 		if (dj->clust == 0) {	/* Static table */
 610:../sd_card/fatfs/ff.c **** 			if (i >= dj->fs->n_rootdir)	/* Report EOT when end of table */
 611:../sd_card/fatfs/ff.c **** 				return FR_NO_FILE;
 612:../sd_card/fatfs/ff.c **** 		}
 613:../sd_card/fatfs/ff.c **** 		else {					/* Dynamic table */
 614:../sd_card/fatfs/ff.c **** 			if (((i / (SS(dj->fs) / 32)) & (dj->fs->csize - 1)) == 0) {	/* Cluster changed? */
 615:../sd_card/fatfs/ff.c **** 				clst = get_fat(dj->fs, dj->clust);				/* Get next cluster */
 616:../sd_card/fatfs/ff.c **** 				if (clst <= 1) return FR_INT_ERR;
 617:../sd_card/fatfs/ff.c **** 				if (clst == 0xFFFFFFFF) return FR_DISK_ERR;
 618:../sd_card/fatfs/ff.c **** 				if (clst >= dj->fs->max_clust) {				/* When it reached end of dynamic table */
 619:../sd_card/fatfs/ff.c **** #if !_FS_READONLY
 620:../sd_card/fatfs/ff.c **** 					BYTE c;
 621:../sd_card/fatfs/ff.c **** 					if (!streach) return FR_NO_FILE;			/* When do not stretch, report EOT */
 622:../sd_card/fatfs/ff.c **** 					clst = create_chain(dj->fs, dj->clust);		/* Stretch cluster chain */
 623:../sd_card/fatfs/ff.c **** 					if (clst == 0) return FR_DENIED;			/* No free cluster */
 624:../sd_card/fatfs/ff.c **** 					if (clst == 1) return FR_INT_ERR;
 625:../sd_card/fatfs/ff.c **** 					if (clst == 0xFFFFFFFF) return FR_DISK_ERR;
 626:../sd_card/fatfs/ff.c **** 					/* Clean-up streached table */
 627:../sd_card/fatfs/ff.c **** 					if (move_window(dj->fs, 0)) return FR_DISK_ERR;	/* Flush active window */
 628:../sd_card/fatfs/ff.c **** 					mem_set(dj->fs->win, 0, SS(dj->fs));			/* Clear window buffer */
 629:../sd_card/fatfs/ff.c **** 					dj->fs->winsect = clust2sect(dj->fs, clst);	/* Cluster start sector */
 630:../sd_card/fatfs/ff.c **** 					for (c = 0; c < dj->fs->csize; c++) {		/* Fill the new cluster with 0 */
 631:../sd_card/fatfs/ff.c **** 						dj->fs->wflag = 1;
 632:../sd_card/fatfs/ff.c **** 						if (move_window(dj->fs, 0)) return FR_DISK_ERR;
 633:../sd_card/fatfs/ff.c **** 						dj->fs->winsect++;
 634:../sd_card/fatfs/ff.c **** 					}
 635:../sd_card/fatfs/ff.c **** 					dj->fs->winsect -= c;						/* Rewind window address */
 636:../sd_card/fatfs/ff.c **** #else
 637:../sd_card/fatfs/ff.c **** 					return FR_NO_FILE;			/* Report EOT */
 638:../sd_card/fatfs/ff.c **** #endif
 639:../sd_card/fatfs/ff.c **** 				}
 640:../sd_card/fatfs/ff.c **** 				dj->clust = clst;				/* Initialize data for new cluster */
 641:../sd_card/fatfs/ff.c **** 				dj->sect = clust2sect(dj->fs, clst);
 642:../sd_card/fatfs/ff.c **** 			}
 643:../sd_card/fatfs/ff.c **** 		}
 644:../sd_card/fatfs/ff.c **** 	}
 645:../sd_card/fatfs/ff.c **** 
 646:../sd_card/fatfs/ff.c **** 	dj->index = i;
 647:../sd_card/fatfs/ff.c **** 	dj->dir = dj->fs->win + (i % (SS(dj->fs) / 32)) * 32;
 648:../sd_card/fatfs/ff.c **** 
 649:../sd_card/fatfs/ff.c **** 	return FR_OK;
 650:../sd_card/fatfs/ff.c **** }
 651:../sd_card/fatfs/ff.c **** 
 652:../sd_card/fatfs/ff.c **** 
 653:../sd_card/fatfs/ff.c **** 
 654:../sd_card/fatfs/ff.c **** 
 655:../sd_card/fatfs/ff.c **** /*-----------------------------------------------------------------------*/
 656:../sd_card/fatfs/ff.c **** /* LFN handling - Test/Pick/Fit an LFN segment from/to directory entry   */
 657:../sd_card/fatfs/ff.c **** /*-----------------------------------------------------------------------*/
 658:../sd_card/fatfs/ff.c **** #if _USE_LFN
 659:../sd_card/fatfs/ff.c **** static
 660:../sd_card/fatfs/ff.c **** const BYTE LfnOfs[] = {1,3,5,7,9,14,16,18,20,22,24,28,30};	/* Offset of LFN chars in the directory 
 661:../sd_card/fatfs/ff.c **** 
 662:../sd_card/fatfs/ff.c **** 
 663:../sd_card/fatfs/ff.c **** static
 664:../sd_card/fatfs/ff.c **** BOOL cmp_lfn (			/* TRUE:Matched, FALSE:Not matched */
 665:../sd_card/fatfs/ff.c **** 	WCHAR *lfnbuf,		/* Pointer to the LFN to be compared */
 666:../sd_card/fatfs/ff.c **** 	BYTE *dir			/* Pointer to the directory entry containing a part of LFN */
 667:../sd_card/fatfs/ff.c **** )
 668:../sd_card/fatfs/ff.c **** {
 669:../sd_card/fatfs/ff.c **** 	int i, s;
 670:../sd_card/fatfs/ff.c **** 	WCHAR wc, uc;
 671:../sd_card/fatfs/ff.c **** 
 672:../sd_card/fatfs/ff.c **** 
 673:../sd_card/fatfs/ff.c **** 	i = ((dir[LDIR_Ord] & 0xBF) - 1) * 13;	/* Get offset in the LFN buffer */
 674:../sd_card/fatfs/ff.c **** 	s = 0; wc = 1;
 675:../sd_card/fatfs/ff.c **** 	do {
 676:../sd_card/fatfs/ff.c **** 		uc = LD_WORD(dir+LfnOfs[s]);	/* Pick an LFN character from the entry */
 677:../sd_card/fatfs/ff.c **** 		if (wc) {	/* Last char has not been processed */
 678:../sd_card/fatfs/ff.c **** 			wc = ff_wtoupper(uc);		/* Convert it to upper case */
 679:../sd_card/fatfs/ff.c **** 			if (i >= _MAX_LFN || wc != ff_wtoupper(lfnbuf[i++]))	/* Compare it */
 680:../sd_card/fatfs/ff.c **** 				return FALSE;			/* Not matched */
 681:../sd_card/fatfs/ff.c **** 		} else {
 682:../sd_card/fatfs/ff.c **** 			if (uc != 0xFFFF) return FALSE;	/* Check filler */
 683:../sd_card/fatfs/ff.c **** 		}
 684:../sd_card/fatfs/ff.c **** 	} while (++s < 13);				/* Repeat until all chars in the entry are checked */
 685:../sd_card/fatfs/ff.c **** 
 686:../sd_card/fatfs/ff.c **** 	if ((dir[LDIR_Ord] & 0x40) && wc && lfnbuf[i])	/* Last segment matched but different length */
 687:../sd_card/fatfs/ff.c **** 		return FALSE;
 688:../sd_card/fatfs/ff.c **** 
 689:../sd_card/fatfs/ff.c **** 	return TRUE;					/* The part of LFN matched */
 690:../sd_card/fatfs/ff.c **** }
 691:../sd_card/fatfs/ff.c **** 
 692:../sd_card/fatfs/ff.c **** 
 693:../sd_card/fatfs/ff.c **** 
 694:../sd_card/fatfs/ff.c **** static
 695:../sd_card/fatfs/ff.c **** BOOL pick_lfn (			/* TRUE:Succeeded, FALSE:Buffer overflow */
 696:../sd_card/fatfs/ff.c **** 	WCHAR *lfnbuf,		/* Pointer to the Unicode-LFN buffer */
 697:../sd_card/fatfs/ff.c **** 	BYTE *dir			/* Pointer to the directory entry */
 698:../sd_card/fatfs/ff.c **** )
 699:../sd_card/fatfs/ff.c **** {
 700:../sd_card/fatfs/ff.c **** 	int i, s;
 701:../sd_card/fatfs/ff.c **** 	WCHAR wc, uc;
 702:../sd_card/fatfs/ff.c **** 
 703:../sd_card/fatfs/ff.c **** 
 704:../sd_card/fatfs/ff.c **** 	i = ((dir[LDIR_Ord] & 0x3F) - 1) * 13;	/* Offset in the LFN buffer */
 705:../sd_card/fatfs/ff.c **** 
 706:../sd_card/fatfs/ff.c **** 	s = 0; wc = 1;
 707:../sd_card/fatfs/ff.c **** 	do {
 708:../sd_card/fatfs/ff.c **** 		uc = LD_WORD(dir+LfnOfs[s]);			/* Pick an LFN character from the entry */
 709:../sd_card/fatfs/ff.c **** 		if (wc) {	/* Last char has not been processed */
 710:../sd_card/fatfs/ff.c **** 			if (i >= _MAX_LFN) return FALSE;	/* Buffer overflow? */
 711:../sd_card/fatfs/ff.c **** 			lfnbuf[i++] = wc = uc;				/* Store it */
 712:../sd_card/fatfs/ff.c **** 		} else {
 713:../sd_card/fatfs/ff.c **** 			if (uc != 0xFFFF) return FALSE;		/* Check filler */
 714:../sd_card/fatfs/ff.c **** 		}
 715:../sd_card/fatfs/ff.c **** 	} while (++s < 13);						/* Read all character in the entry */
 716:../sd_card/fatfs/ff.c **** 
 717:../sd_card/fatfs/ff.c **** 	if (dir[LDIR_Ord] & 0x40) {				/* Put terminator if it is the last LFN part */
 718:../sd_card/fatfs/ff.c **** 		if (i >= _MAX_LFN) return FALSE;	/* Buffer overflow? */
 719:../sd_card/fatfs/ff.c **** 		lfnbuf[i] = 0;
 720:../sd_card/fatfs/ff.c **** 	}
 721:../sd_card/fatfs/ff.c **** 
 722:../sd_card/fatfs/ff.c **** 	return TRUE;
 723:../sd_card/fatfs/ff.c **** }
 724:../sd_card/fatfs/ff.c **** 
 725:../sd_card/fatfs/ff.c **** 
 726:../sd_card/fatfs/ff.c **** #if !_FS_READONLY
 727:../sd_card/fatfs/ff.c **** static
 728:../sd_card/fatfs/ff.c **** void fit_lfn (
 729:../sd_card/fatfs/ff.c **** 	const WCHAR *lfnbuf,	/* Pointer to the LFN buffer */
 730:../sd_card/fatfs/ff.c **** 	BYTE *dir,				/* Pointer to the directory entry */
 731:../sd_card/fatfs/ff.c **** 	BYTE ord,				/* LFN order (1-20) */
 732:../sd_card/fatfs/ff.c **** 	BYTE sum				/* SFN sum */
 733:../sd_card/fatfs/ff.c **** )
 734:../sd_card/fatfs/ff.c **** {
 735:../sd_card/fatfs/ff.c **** 	int i, s;
 736:../sd_card/fatfs/ff.c **** 	WCHAR wc;
 737:../sd_card/fatfs/ff.c **** 
 738:../sd_card/fatfs/ff.c **** 
 739:../sd_card/fatfs/ff.c **** 	dir[LDIR_Chksum] = sum;			/* Set check sum */
 740:../sd_card/fatfs/ff.c **** 	dir[LDIR_Attr] = AM_LFN;		/* Set attribute. LFN entry */
 741:../sd_card/fatfs/ff.c **** 	dir[LDIR_Type] = 0;
 742:../sd_card/fatfs/ff.c **** 	ST_WORD(dir+LDIR_FstClusLO, 0);
 743:../sd_card/fatfs/ff.c **** 
 744:../sd_card/fatfs/ff.c **** 	i = (ord - 1) * 13;				/* Get offset in the LFN buffer */
 745:../sd_card/fatfs/ff.c **** 	s = wc = 0;
 746:../sd_card/fatfs/ff.c **** 	do {
 747:../sd_card/fatfs/ff.c **** 		if (wc != 0xFFFF) wc = lfnbuf[i++];	/* Get an effective char */
 748:../sd_card/fatfs/ff.c **** 		ST_WORD(dir+LfnOfs[s], wc);	/* Put it */
 749:../sd_card/fatfs/ff.c **** 		if (!wc) wc = 0xFFFF;		/* Padding chars following last char */
 750:../sd_card/fatfs/ff.c **** 	} while (++s < 13);
 751:../sd_card/fatfs/ff.c **** 	if (wc == 0xFFFF || !lfnbuf[i]) ord |= 0x40;	/* Bottom LFN part is the start of LFN sequence */
 752:../sd_card/fatfs/ff.c **** 	dir[LDIR_Ord] = ord;			/* Set the LFN order */
 753:../sd_card/fatfs/ff.c **** }
 754:../sd_card/fatfs/ff.c **** 
 755:../sd_card/fatfs/ff.c **** #endif
 756:../sd_card/fatfs/ff.c **** #endif
 757:../sd_card/fatfs/ff.c **** 
 758:../sd_card/fatfs/ff.c **** 
 759:../sd_card/fatfs/ff.c **** 
 760:../sd_card/fatfs/ff.c **** /*-----------------------------------------------------------------------*/
 761:../sd_card/fatfs/ff.c **** /* Create numbered name                                                  */
 762:../sd_card/fatfs/ff.c **** /*-----------------------------------------------------------------------*/
 763:../sd_card/fatfs/ff.c **** #if _USE_LFN
 764:../sd_card/fatfs/ff.c **** void gen_numname (
 765:../sd_card/fatfs/ff.c **** 	BYTE *dst,			/* Pointer to generated SFN */
 766:../sd_card/fatfs/ff.c **** 	const BYTE *src,	/* Pointer to source SFN to be modified */
 767:../sd_card/fatfs/ff.c **** 	const WCHAR *lfn,	/* Pointer to LFN */
 768:../sd_card/fatfs/ff.c **** 	WORD num			/* Sequence number */
 769:../sd_card/fatfs/ff.c **** )
 770:../sd_card/fatfs/ff.c **** {
 771:../sd_card/fatfs/ff.c **** 	char ns[8];
 772:../sd_card/fatfs/ff.c **** 	int i, j;
 773:../sd_card/fatfs/ff.c **** 
 774:../sd_card/fatfs/ff.c **** 
 775:../sd_card/fatfs/ff.c **** 	mem_cpy(dst, src, 11);
 776:../sd_card/fatfs/ff.c **** 
 777:../sd_card/fatfs/ff.c **** 	if (num > 5) {	/* On many collisions, generate a hash number instead of sequential number */
 778:../sd_card/fatfs/ff.c **** 		do num = (num >> 1) + (num << 15) + (WORD)*lfn++; while (*lfn);
 779:../sd_card/fatfs/ff.c **** 	}
 780:../sd_card/fatfs/ff.c **** 
 781:../sd_card/fatfs/ff.c **** 	/* itoa */
 782:../sd_card/fatfs/ff.c **** 	i = 7;
 783:../sd_card/fatfs/ff.c **** 	do {
 784:../sd_card/fatfs/ff.c **** 		ns[i--] = (num % 10) + '0';
 785:../sd_card/fatfs/ff.c **** 		num /= 10;
 786:../sd_card/fatfs/ff.c **** 	} while (num);
 787:../sd_card/fatfs/ff.c **** 	ns[i] = '~';
 788:../sd_card/fatfs/ff.c **** 
 789:../sd_card/fatfs/ff.c **** 	/* Append the number */
 790:../sd_card/fatfs/ff.c **** 	for (j = 0; j < i && dst[j] != ' '; j++) {
 791:../sd_card/fatfs/ff.c **** 		if (IsDBCS1(dst[j])) {
 792:../sd_card/fatfs/ff.c **** 			if (j == i - 1) break;
 793:../sd_card/fatfs/ff.c **** 			j++;
 794:../sd_card/fatfs/ff.c **** 		}
 795:../sd_card/fatfs/ff.c **** 	}
 796:../sd_card/fatfs/ff.c **** 	do {
 797:../sd_card/fatfs/ff.c **** 		dst[j++] = (i < 8) ? ns[i++] : ' ';
 798:../sd_card/fatfs/ff.c **** 	} while (j < 8);
 799:../sd_card/fatfs/ff.c **** }
 800:../sd_card/fatfs/ff.c **** #endif
 801:../sd_card/fatfs/ff.c **** 
 802:../sd_card/fatfs/ff.c **** 
 803:../sd_card/fatfs/ff.c **** 
 804:../sd_card/fatfs/ff.c **** 
 805:../sd_card/fatfs/ff.c **** /*-----------------------------------------------------------------------*/
 806:../sd_card/fatfs/ff.c **** /* Calculate sum of an SFN                                               */
 807:../sd_card/fatfs/ff.c **** /*-----------------------------------------------------------------------*/
 808:../sd_card/fatfs/ff.c **** #if _USE_LFN
 809:../sd_card/fatfs/ff.c **** static
 810:../sd_card/fatfs/ff.c **** BYTE sum_sfn (
 811:../sd_card/fatfs/ff.c **** 	const BYTE *dir		/* Ptr to directory entry */
 812:../sd_card/fatfs/ff.c **** )
 813:../sd_card/fatfs/ff.c **** {
 814:../sd_card/fatfs/ff.c **** 	BYTE sum = 0;
 815:../sd_card/fatfs/ff.c **** 	int n = 11;
 816:../sd_card/fatfs/ff.c **** 
 817:../sd_card/fatfs/ff.c **** 	do sum = (sum >> 1) + (sum << 7) + *dir++; while (--n);
 818:../sd_card/fatfs/ff.c **** 	return sum;
 819:../sd_card/fatfs/ff.c **** }
 820:../sd_card/fatfs/ff.c **** #endif
 821:../sd_card/fatfs/ff.c **** 
 822:../sd_card/fatfs/ff.c **** 
 823:../sd_card/fatfs/ff.c **** 
 824:../sd_card/fatfs/ff.c **** 
 825:../sd_card/fatfs/ff.c **** /*-----------------------------------------------------------------------*/
 826:../sd_card/fatfs/ff.c **** /* Directory handling - Find an object in the directory                  */
 827:../sd_card/fatfs/ff.c **** /*-----------------------------------------------------------------------*/
 828:../sd_card/fatfs/ff.c **** 
 829:../sd_card/fatfs/ff.c **** static
 830:../sd_card/fatfs/ff.c **** FRESULT dir_find (
 831:../sd_card/fatfs/ff.c **** 	DIR *dj			/* Pointer to the directory object linked to the file name */
 832:../sd_card/fatfs/ff.c **** )
 833:../sd_card/fatfs/ff.c **** {
 834:../sd_card/fatfs/ff.c **** 	FRESULT res;
 835:../sd_card/fatfs/ff.c **** 	BYTE c, *dir;
 836:../sd_card/fatfs/ff.c **** #if _USE_LFN
 837:../sd_card/fatfs/ff.c **** 	BYTE a, ord, sum;
 838:../sd_card/fatfs/ff.c **** #endif
 839:../sd_card/fatfs/ff.c **** 
 840:../sd_card/fatfs/ff.c **** 	res = dir_seek(dj, 0);			/* Rewind directory object */
 841:../sd_card/fatfs/ff.c **** 	if (res != FR_OK) return res;
 842:../sd_card/fatfs/ff.c **** 
 843:../sd_card/fatfs/ff.c **** #if _USE_LFN
 844:../sd_card/fatfs/ff.c **** 	ord = sum = 0xFF;
 845:../sd_card/fatfs/ff.c **** #endif
 846:../sd_card/fatfs/ff.c **** 	do {
 847:../sd_card/fatfs/ff.c **** 		res = move_window(dj->fs, dj->sect);
 848:../sd_card/fatfs/ff.c **** 		if (res != FR_OK) break;
 849:../sd_card/fatfs/ff.c **** 		dir = dj->dir;					/* Ptr to the directory entry of current index */
 850:../sd_card/fatfs/ff.c **** 		c = dir[DIR_Name];
 851:../sd_card/fatfs/ff.c **** 		if (c == 0) { res = FR_NO_FILE; break; }	/* Reached to end of table */
 852:../sd_card/fatfs/ff.c **** #if _USE_LFN	/* LFN configuration */
 853:../sd_card/fatfs/ff.c **** 		a = dir[DIR_Attr] & AM_MASK;
 854:../sd_card/fatfs/ff.c **** 		if (c == 0xE5 || ((a & AM_VOL) && a != AM_LFN)) {	/* An entry without valid data */
 855:../sd_card/fatfs/ff.c **** 			ord = 0xFF;
 856:../sd_card/fatfs/ff.c **** 		} else {
 857:../sd_card/fatfs/ff.c **** 			if (a == AM_LFN) {			/* An LFN entry is found */
 858:../sd_card/fatfs/ff.c **** 				if (dj->lfn) {
 859:../sd_card/fatfs/ff.c **** 					if (c & 0x40) {		/* Is it start of LFN sequence? */
 860:../sd_card/fatfs/ff.c **** 						sum = dir[LDIR_Chksum];
 861:../sd_card/fatfs/ff.c **** 						c &= 0xBF; ord = c;	/* LFN start order */
 862:../sd_card/fatfs/ff.c **** 						dj->lfn_idx = dj->index;
 863:../sd_card/fatfs/ff.c **** 					}
 864:../sd_card/fatfs/ff.c **** 					/* Check validity of the LFN entry and compare it with given name */
 865:../sd_card/fatfs/ff.c **** 					ord = (c == ord && sum == dir[LDIR_Chksum] && cmp_lfn(dj->lfn, dir)) ? ord - 1 : 0xFF;
 866:../sd_card/fatfs/ff.c **** 				}
 867:../sd_card/fatfs/ff.c **** 			} else {					/* An SFN entry is found */
 868:../sd_card/fatfs/ff.c **** 				if (!ord && sum == sum_sfn(dir)) break;	/* LFN matched? */
 869:../sd_card/fatfs/ff.c **** 				ord = 0xFF; dj->lfn_idx = 0xFFFF;	/* Reset LFN sequence */
 870:../sd_card/fatfs/ff.c **** 				if (!(dj->fn[NS] & NS_LOSS) && !mem_cmp(dir, dj->fn, 11)) break;	/* SFN matched? */
 871:../sd_card/fatfs/ff.c **** 			}
 872:../sd_card/fatfs/ff.c **** 		}
 873:../sd_card/fatfs/ff.c **** #else		/* Non LFN configuration */
 874:../sd_card/fatfs/ff.c **** 		if (!(dir[DIR_Attr] & AM_VOL) && !mem_cmp(dir, dj->fn, 11)) /* Is it a valid entry? */
 875:../sd_card/fatfs/ff.c **** 			break;
 876:../sd_card/fatfs/ff.c **** #endif
 877:../sd_card/fatfs/ff.c **** 		res = dir_next(dj, FALSE);		/* Next entry */
 878:../sd_card/fatfs/ff.c **** 	} while (res == FR_OK);
 879:../sd_card/fatfs/ff.c **** 
 880:../sd_card/fatfs/ff.c **** 	return res;
 881:../sd_card/fatfs/ff.c **** }
 882:../sd_card/fatfs/ff.c **** 
 883:../sd_card/fatfs/ff.c **** 
 884:../sd_card/fatfs/ff.c **** 
 885:../sd_card/fatfs/ff.c **** 
 886:../sd_card/fatfs/ff.c **** /*-----------------------------------------------------------------------*/
 887:../sd_card/fatfs/ff.c **** /* Read an object from the directory                                     */
 888:../sd_card/fatfs/ff.c **** /*-----------------------------------------------------------------------*/
 889:../sd_card/fatfs/ff.c **** #if _FS_MINIMIZE <= 1
 890:../sd_card/fatfs/ff.c **** static
 891:../sd_card/fatfs/ff.c **** FRESULT dir_read (
 892:../sd_card/fatfs/ff.c **** 	DIR *dj			/* Pointer to the directory object that pointing the entry to be read */
 893:../sd_card/fatfs/ff.c **** )
 894:../sd_card/fatfs/ff.c **** {
 895:../sd_card/fatfs/ff.c **** 	FRESULT res;
 896:../sd_card/fatfs/ff.c **** 	BYTE c, *dir;
 897:../sd_card/fatfs/ff.c **** #if _USE_LFN
 898:../sd_card/fatfs/ff.c **** 	BYTE a, ord = 0xFF, sum = 0xFF;
 899:../sd_card/fatfs/ff.c **** #endif
 900:../sd_card/fatfs/ff.c **** 
 901:../sd_card/fatfs/ff.c **** 	res = FR_NO_FILE;
 902:../sd_card/fatfs/ff.c **** 	while (dj->sect) {
 903:../sd_card/fatfs/ff.c **** 		res = move_window(dj->fs, dj->sect);
 904:../sd_card/fatfs/ff.c **** 		if (res != FR_OK) break;
 905:../sd_card/fatfs/ff.c **** 		dir = dj->dir;					/* Ptr to the directory entry of current index */
 906:../sd_card/fatfs/ff.c **** 		c = dir[DIR_Name];
 907:../sd_card/fatfs/ff.c **** 		if (c == 0) { res = FR_NO_FILE; break; }	/* Reached to end of table */
 908:../sd_card/fatfs/ff.c **** #if _USE_LFN	/* LFN configuration */
 909:../sd_card/fatfs/ff.c **** 		a = dir[DIR_Attr] & AM_MASK;
 910:../sd_card/fatfs/ff.c **** 		if (c == 0xE5 || (!_FS_RPATH && c == '.') || ((a & AM_VOL) && a != AM_LFN)) {	/* An entry without
 911:../sd_card/fatfs/ff.c **** 			ord = 0xFF;
 912:../sd_card/fatfs/ff.c **** 		} else {
 913:../sd_card/fatfs/ff.c **** 			if (a == AM_LFN) {			/* An LFN entry is found */
 914:../sd_card/fatfs/ff.c **** 				if (c & 0x40) {			/* Is it start of LFN sequence? */
 915:../sd_card/fatfs/ff.c **** 					sum = dir[LDIR_Chksum];
 916:../sd_card/fatfs/ff.c **** 					c &= 0xBF; ord = c;
 917:../sd_card/fatfs/ff.c **** 					dj->lfn_idx = dj->index;
 918:../sd_card/fatfs/ff.c **** 				}
 919:../sd_card/fatfs/ff.c **** 				/* Check LFN validity and capture it */
 920:../sd_card/fatfs/ff.c **** 				ord = (c == ord && sum == dir[LDIR_Chksum] && pick_lfn(dj->lfn, dir)) ? ord - 1 : 0xFF;
 921:../sd_card/fatfs/ff.c **** 			} else {					/* An SFN entry is found */
 922:../sd_card/fatfs/ff.c **** 				if (ord || sum != sum_sfn(dir))	/* Is there a valid LFN? */
 923:../sd_card/fatfs/ff.c **** 					dj->lfn_idx = 0xFFFF;		/* It has no LFN. */
 924:../sd_card/fatfs/ff.c **** 				break;
 925:../sd_card/fatfs/ff.c **** 			}
 926:../sd_card/fatfs/ff.c **** 		}
 927:../sd_card/fatfs/ff.c **** #else		/* Non LFN configuration */
 928:../sd_card/fatfs/ff.c **** 		if (c != 0xE5 && (_FS_RPATH || c != '.') && !(dir[DIR_Attr] & AM_VOL))	/* Is it a valid entry? */
 929:../sd_card/fatfs/ff.c **** 			break;
 930:../sd_card/fatfs/ff.c **** #endif
 931:../sd_card/fatfs/ff.c **** 		res = dir_next(dj, FALSE);				/* Next entry */
 932:../sd_card/fatfs/ff.c **** 		if (res != FR_OK) break;
 933:../sd_card/fatfs/ff.c **** 	}
 934:../sd_card/fatfs/ff.c **** 
 935:../sd_card/fatfs/ff.c **** 	if (res != FR_OK) dj->sect = 0;
 936:../sd_card/fatfs/ff.c **** 
 937:../sd_card/fatfs/ff.c **** 	return res;
 938:../sd_card/fatfs/ff.c **** }
 939:../sd_card/fatfs/ff.c **** #endif
 940:../sd_card/fatfs/ff.c **** 
 941:../sd_card/fatfs/ff.c **** 
 942:../sd_card/fatfs/ff.c **** 
 943:../sd_card/fatfs/ff.c **** /*-----------------------------------------------------------------------*/
 944:../sd_card/fatfs/ff.c **** /* Register an object to the directory                                   */
 945:../sd_card/fatfs/ff.c **** /*-----------------------------------------------------------------------*/
 946:../sd_card/fatfs/ff.c **** #if !_FS_READONLY
 947:../sd_card/fatfs/ff.c **** static
 948:../sd_card/fatfs/ff.c **** FRESULT dir_register (	/* FR_OK:Successful, FR_DENIED:No free entry or too many SFN collision, FR_D
 949:../sd_card/fatfs/ff.c **** 	DIR *dj				/* Target directory with object name to be created */
 950:../sd_card/fatfs/ff.c **** )
 951:../sd_card/fatfs/ff.c **** {
 952:../sd_card/fatfs/ff.c **** 	FRESULT res;
 953:../sd_card/fatfs/ff.c **** 	BYTE c, *dir;
 954:../sd_card/fatfs/ff.c **** #if _USE_LFN	/* LFN configuration */
 955:../sd_card/fatfs/ff.c **** 	WORD n, ne, is;
 956:../sd_card/fatfs/ff.c **** 	BYTE sn[12], *fn, sum;
 957:../sd_card/fatfs/ff.c **** 	WCHAR *lfn;
 958:../sd_card/fatfs/ff.c **** 
 959:../sd_card/fatfs/ff.c **** 
 960:../sd_card/fatfs/ff.c **** 	fn = dj->fn; lfn = dj->lfn;
 961:../sd_card/fatfs/ff.c **** 	mem_cpy(sn, fn, 12);
 962:../sd_card/fatfs/ff.c **** 
 963:../sd_card/fatfs/ff.c **** 	if (_FS_RPATH && (sn[NS] & NS_DOT)) return FR_INVALID_NAME;	/* Cannot create dot entry */
 964:../sd_card/fatfs/ff.c **** 
 965:../sd_card/fatfs/ff.c **** 	if (sn[NS] & NS_LOSS) {			/* When LFN is out of 8.3 format, generate a numbered name */
 966:../sd_card/fatfs/ff.c **** 		fn[NS] = 0; dj->lfn = NULL;			/* Find only SFN */
 967:../sd_card/fatfs/ff.c **** 		for (n = 1; n < 100; n++) {
 968:../sd_card/fatfs/ff.c **** 			gen_numname(fn, sn, lfn, n);	/* Generate a numbered name */
 969:../sd_card/fatfs/ff.c **** 			res = dir_find(dj);				/* Check if the name collides with existing SFN */
 970:../sd_card/fatfs/ff.c **** 			if (res != FR_OK) break;
 971:../sd_card/fatfs/ff.c **** 		}
 972:../sd_card/fatfs/ff.c **** 		if (n == 100) return FR_DENIED;		/* Abort if too many collisions */
 973:../sd_card/fatfs/ff.c **** 		if (res != FR_NO_FILE) return res;	/* Abort if the result is other than 'not collided' */
 974:../sd_card/fatfs/ff.c **** 		fn[NS] = sn[NS]; dj->lfn = lfn;
 975:../sd_card/fatfs/ff.c **** 	}
 976:../sd_card/fatfs/ff.c **** 
 977:../sd_card/fatfs/ff.c **** 	if (sn[NS] & NS_LFN) {			/* When LFN is to be created, reserve reserve an SFN + LFN entries. */
 978:../sd_card/fatfs/ff.c **** 		for (ne = 0; lfn[ne]; ne++) ;
 979:../sd_card/fatfs/ff.c **** 		ne = (ne + 25) / 13;
 980:../sd_card/fatfs/ff.c **** 	} else {						/* Otherwise reserve only an SFN entry. */
 981:../sd_card/fatfs/ff.c **** 		ne = 1;
 982:../sd_card/fatfs/ff.c **** 	}
 983:../sd_card/fatfs/ff.c **** 
 984:../sd_card/fatfs/ff.c **** 	/* Reserve contiguous entries */
 985:../sd_card/fatfs/ff.c **** 	res = dir_seek(dj, 0);
 986:../sd_card/fatfs/ff.c **** 	if (res != FR_OK) return res;
 987:../sd_card/fatfs/ff.c **** 	n = is = 0;
 988:../sd_card/fatfs/ff.c **** 	do {
 989:../sd_card/fatfs/ff.c **** 		res = move_window(dj->fs, dj->sect);
 990:../sd_card/fatfs/ff.c **** 		if (res != FR_OK) break;
 991:../sd_card/fatfs/ff.c **** 		c = *dj->dir;				/* Check the entry status */
 992:../sd_card/fatfs/ff.c **** 		if (c == 0xE5 || c == 0) {	/* Is it a blank entry? */
 993:../sd_card/fatfs/ff.c **** 			if (n == 0) is = dj->index;	/* First index of the contiguous entry */
 994:../sd_card/fatfs/ff.c **** 			if (++n == ne) break;	/* A contiguous entry that required count is found */
 995:../sd_card/fatfs/ff.c **** 		} else {
 996:../sd_card/fatfs/ff.c **** 			n = 0;					/* Not a blank entry. Restart to search */
 997:../sd_card/fatfs/ff.c **** 		}
 998:../sd_card/fatfs/ff.c **** 		res = dir_next(dj, TRUE);	/* Next entry with table stretch */
 999:../sd_card/fatfs/ff.c **** 	} while (res == FR_OK);
1000:../sd_card/fatfs/ff.c **** 
1001:../sd_card/fatfs/ff.c **** 	if (res == FR_OK && ne > 1) {	/* Initialize LFN entry if needed */
1002:../sd_card/fatfs/ff.c **** 		res = dir_seek(dj, is);
1003:../sd_card/fatfs/ff.c **** 		if (res == FR_OK) {
1004:../sd_card/fatfs/ff.c **** 			sum = sum_sfn(dj->fn);	/* Sum of the SFN tied to the LFN */
1005:../sd_card/fatfs/ff.c **** 			ne--;
1006:../sd_card/fatfs/ff.c **** 			do {					/* Store LFN entries in bottom first */
1007:../sd_card/fatfs/ff.c **** 				res = move_window(dj->fs, dj->sect);
1008:../sd_card/fatfs/ff.c **** 				if (res != FR_OK) break;
1009:../sd_card/fatfs/ff.c **** 				fit_lfn(dj->lfn, dj->dir, (BYTE)ne, sum);
1010:../sd_card/fatfs/ff.c **** 				dj->fs->wflag = 1;
1011:../sd_card/fatfs/ff.c **** 				res = dir_next(dj, FALSE);	/* Next entry */
1012:../sd_card/fatfs/ff.c **** 			} while (res == FR_OK && --ne);
1013:../sd_card/fatfs/ff.c **** 		}
1014:../sd_card/fatfs/ff.c **** 	}
1015:../sd_card/fatfs/ff.c **** 
1016:../sd_card/fatfs/ff.c **** #else	/* Non LFN configuration */
1017:../sd_card/fatfs/ff.c **** 	res = dir_seek(dj, 0);
1018:../sd_card/fatfs/ff.c **** 	if (res == FR_OK) {
1019:../sd_card/fatfs/ff.c **** 		do {	/* Find a blank entry for the SFN */
1020:../sd_card/fatfs/ff.c **** 			res = move_window(dj->fs, dj->sect);
1021:../sd_card/fatfs/ff.c **** 			if (res != FR_OK) break;
1022:../sd_card/fatfs/ff.c **** 			c = *dj->dir;
1023:../sd_card/fatfs/ff.c **** 			if (c == 0xE5 || c == 0) break;	/* Is it a blank entry? */
1024:../sd_card/fatfs/ff.c **** 			res = dir_next(dj, TRUE);		/* Next entry with table streach */
1025:../sd_card/fatfs/ff.c **** 		} while (res == FR_OK);
1026:../sd_card/fatfs/ff.c **** 	}
1027:../sd_card/fatfs/ff.c **** #endif
1028:../sd_card/fatfs/ff.c **** 
1029:../sd_card/fatfs/ff.c **** 	if (res == FR_OK) {		/* Initialize the SFN entry */
1030:../sd_card/fatfs/ff.c **** 		res = move_window(dj->fs, dj->sect);
1031:../sd_card/fatfs/ff.c **** 		if (res == FR_OK) {
1032:../sd_card/fatfs/ff.c **** 			dir = dj->dir;
1033:../sd_card/fatfs/ff.c **** 			mem_set(dir, 0, 32);		/* Clean the entry */
1034:../sd_card/fatfs/ff.c **** 			mem_cpy(dir, dj->fn, 11);	/* Put SFN */
1035:../sd_card/fatfs/ff.c **** 			dir[DIR_NTres] = *(dj->fn+NS) & (NS_BODY | NS_EXT);	/* Put NT flag */
1036:../sd_card/fatfs/ff.c **** 			dj->fs->wflag = 1;
1037:../sd_card/fatfs/ff.c **** 		}
1038:../sd_card/fatfs/ff.c **** 	}
1039:../sd_card/fatfs/ff.c **** 
1040:../sd_card/fatfs/ff.c **** 	return res;
1041:../sd_card/fatfs/ff.c **** }
1042:../sd_card/fatfs/ff.c **** #endif /* !_FS_READONLY */
1043:../sd_card/fatfs/ff.c **** 
1044:../sd_card/fatfs/ff.c **** 
1045:../sd_card/fatfs/ff.c **** 
1046:../sd_card/fatfs/ff.c **** 
1047:../sd_card/fatfs/ff.c **** /*-----------------------------------------------------------------------*/
1048:../sd_card/fatfs/ff.c **** /* Remove an object from the directory                                   */
1049:../sd_card/fatfs/ff.c **** /*-----------------------------------------------------------------------*/
1050:../sd_card/fatfs/ff.c **** #if !_FS_READONLY && !_FS_MINIMIZE
1051:../sd_card/fatfs/ff.c **** static
1052:../sd_card/fatfs/ff.c **** FRESULT dir_remove (	/* FR_OK: Successful, FR_DISK_ERR: A disk error */
1053:../sd_card/fatfs/ff.c **** 	DIR *dj				/* Directory object pointing the entry to be removed */
1054:../sd_card/fatfs/ff.c **** )
1055:../sd_card/fatfs/ff.c **** {
1056:../sd_card/fatfs/ff.c **** 	FRESULT res;
1057:../sd_card/fatfs/ff.c **** #if _USE_LFN	/* LFN configuration */
1058:../sd_card/fatfs/ff.c **** 	WORD i;
1059:../sd_card/fatfs/ff.c **** 
1060:../sd_card/fatfs/ff.c **** 	i = dj->index;	/* SFN index */
1061:../sd_card/fatfs/ff.c **** 	res = dir_seek(dj, (WORD)((dj->lfn_idx == 0xFFFF) ? i : dj->lfn_idx));	/* Goto the SFN or top of t
1062:../sd_card/fatfs/ff.c **** 	if (res == FR_OK) {
1063:../sd_card/fatfs/ff.c **** 		do {
1064:../sd_card/fatfs/ff.c **** 			res = move_window(dj->fs, dj->sect);
1065:../sd_card/fatfs/ff.c **** 			if (res != FR_OK) break;
1066:../sd_card/fatfs/ff.c **** 			*dj->dir = 0xE5;			/* Mark the entry "deleted" */
1067:../sd_card/fatfs/ff.c **** 			dj->fs->wflag = 1;
1068:../sd_card/fatfs/ff.c **** 			if (dj->index >= i) break;	/* When reached SFN, all entries of the object has been deleted. */
1069:../sd_card/fatfs/ff.c **** 			res = dir_next(dj, FALSE);	/* Next entry */
1070:../sd_card/fatfs/ff.c **** 		} while (res == FR_OK);
1071:../sd_card/fatfs/ff.c **** 		if (res == FR_NO_FILE) res = FR_INT_ERR;
1072:../sd_card/fatfs/ff.c **** 	}
1073:../sd_card/fatfs/ff.c **** 
1074:../sd_card/fatfs/ff.c **** #else			/* Non LFN configuration */
1075:../sd_card/fatfs/ff.c **** 	res = dir_seek(dj, dj->index);
1076:../sd_card/fatfs/ff.c **** 	if (res == FR_OK) {
1077:../sd_card/fatfs/ff.c **** 		res = move_window(dj->fs, dj->sect);
1078:../sd_card/fatfs/ff.c **** 		if (res == FR_OK) {
1079:../sd_card/fatfs/ff.c **** 			*dj->dir = 0xE5;			/* Mark the entry "deleted" */
1080:../sd_card/fatfs/ff.c **** 			dj->fs->wflag = 1;
1081:../sd_card/fatfs/ff.c **** 		}
1082:../sd_card/fatfs/ff.c **** 	}
1083:../sd_card/fatfs/ff.c **** #endif
1084:../sd_card/fatfs/ff.c **** 
1085:../sd_card/fatfs/ff.c **** 	return res;
1086:../sd_card/fatfs/ff.c **** }
1087:../sd_card/fatfs/ff.c **** #endif /* !_FS_READONLY */
1088:../sd_card/fatfs/ff.c **** 
1089:../sd_card/fatfs/ff.c **** 
1090:../sd_card/fatfs/ff.c **** 
1091:../sd_card/fatfs/ff.c **** 
1092:../sd_card/fatfs/ff.c **** /*-----------------------------------------------------------------------*/
1093:../sd_card/fatfs/ff.c **** /* Pick a segment and create the object name in directory form           */
1094:../sd_card/fatfs/ff.c **** /*-----------------------------------------------------------------------*/
1095:../sd_card/fatfs/ff.c **** 
1096:../sd_card/fatfs/ff.c **** static
1097:../sd_card/fatfs/ff.c **** FRESULT create_name (
1098:../sd_card/fatfs/ff.c **** 	DIR *dj,			/* Pointer to the directory object */
1099:../sd_card/fatfs/ff.c **** 	const XCHAR **path	/* Pointer to pointer to the segment in the path string */
1100:../sd_card/fatfs/ff.c **** )
1101:../sd_card/fatfs/ff.c **** {
1102:../sd_card/fatfs/ff.c **** #ifdef _EXCVT
1103:../sd_card/fatfs/ff.c **** 	static const BYTE cvt[] = _EXCVT;
1104:../sd_card/fatfs/ff.c **** #endif
1105:../sd_card/fatfs/ff.c **** 
1106:../sd_card/fatfs/ff.c **** #if _USE_LFN	/* LFN configuration */
1107:../sd_card/fatfs/ff.c **** 	BYTE b, cf;
1108:../sd_card/fatfs/ff.c **** 	WCHAR w, *lfn;
1109:../sd_card/fatfs/ff.c **** 	int i, ni, si, di;
1110:../sd_card/fatfs/ff.c **** 	const XCHAR *p;
1111:../sd_card/fatfs/ff.c **** 
1112:../sd_card/fatfs/ff.c **** 	/* Create LFN in Unicode */
1113:../sd_card/fatfs/ff.c **** 	si = di = 0;
1114:../sd_card/fatfs/ff.c **** 	p = *path;
1115:../sd_card/fatfs/ff.c **** 	lfn = dj->lfn;
1116:../sd_card/fatfs/ff.c **** 	for (;;) {
1117:../sd_card/fatfs/ff.c **** 		w = p[si++];					/* Get a character */
1118:../sd_card/fatfs/ff.c **** 		if (w < ' ' || w == '/' || w == '\\') break;	/* Break on end of segment */
1119:../sd_card/fatfs/ff.c **** 		if (di >= _MAX_LFN)				/* Reject too long name */
1120:../sd_card/fatfs/ff.c **** 			return FR_INVALID_NAME;
1121:../sd_card/fatfs/ff.c **** #if !_LFN_UNICODE
1122:../sd_card/fatfs/ff.c **** 		w &= 0xFF;
1123:../sd_card/fatfs/ff.c **** 		if (IsDBCS1(w)) {				/* If it is a DBC 1st byte */
1124:../sd_card/fatfs/ff.c **** 			b = p[si++];				/* Get 2nd byte */
1125:../sd_card/fatfs/ff.c **** 			if (!IsDBCS2(b))			/* Reject invalid code for DBC */
1126:../sd_card/fatfs/ff.c **** 				return FR_INVALID_NAME;
1127:../sd_card/fatfs/ff.c **** 			w = (w << 8) + b;
1128:../sd_card/fatfs/ff.c **** 		}
1129:../sd_card/fatfs/ff.c **** 		w = ff_convert(w, 1);			/* Convert OEM to Unicode */
1130:../sd_card/fatfs/ff.c **** 		if (!w) return FR_INVALID_NAME;	/* Reject invalid code */
1131:../sd_card/fatfs/ff.c **** #endif
1132:../sd_card/fatfs/ff.c **** 		if (w < 0x80 && chk_chr("\"*:<>\?|\x7F", w)) /* Reject illegal chars for LFN */
1133:../sd_card/fatfs/ff.c **** 			return FR_INVALID_NAME;
1134:../sd_card/fatfs/ff.c **** 		lfn[di++] = w;					/* Store the Unicode char */
1135:../sd_card/fatfs/ff.c **** 	}
1136:../sd_card/fatfs/ff.c **** 	*path = &p[si];						/* Return pointer to the next segment */
1137:../sd_card/fatfs/ff.c **** 	cf = (w < ' ') ? NS_LAST : 0;		/* Set last segment flag if end of path */
1138:../sd_card/fatfs/ff.c **** #if _FS_RPATH
1139:../sd_card/fatfs/ff.c **** 	if ((di == 1 && lfn[di - 1] == '.') || /* Is this a dot entry? */
1140:../sd_card/fatfs/ff.c **** 		(di == 2 && lfn[di - 1] == '.' && lfn[di - 2] == '.')) {
1141:../sd_card/fatfs/ff.c **** 		lfn[di] = 0;
1142:../sd_card/fatfs/ff.c **** 		for (i = 0; i < 11; i++)
1143:../sd_card/fatfs/ff.c **** 			dj->fn[i] = (i < di) ? '.' : ' ';
1144:../sd_card/fatfs/ff.c **** 		dj->fn[i] = cf | NS_DOT;		/* This is a dot entry */
1145:../sd_card/fatfs/ff.c **** 		return FR_OK;
1146:../sd_card/fatfs/ff.c **** 	}
1147:../sd_card/fatfs/ff.c **** #endif
1148:../sd_card/fatfs/ff.c **** 	while (di) {						/* Strip trailing spaces and dots */
1149:../sd_card/fatfs/ff.c **** 		w = lfn[di - 1];
1150:../sd_card/fatfs/ff.c **** 		if (w != ' ' && w != '.') break;
1151:../sd_card/fatfs/ff.c **** 		di--;
1152:../sd_card/fatfs/ff.c **** 	}
1153:../sd_card/fatfs/ff.c **** 	if (!di) return FR_INVALID_NAME;	/* Reject null string */
1154:../sd_card/fatfs/ff.c **** 
1155:../sd_card/fatfs/ff.c **** 	lfn[di] = 0;						/* LFN is created */
1156:../sd_card/fatfs/ff.c **** 
1157:../sd_card/fatfs/ff.c **** 	/* Create SFN in directory form */
1158:../sd_card/fatfs/ff.c **** 	mem_set(dj->fn, ' ', 11);
1159:../sd_card/fatfs/ff.c **** 	for (si = 0; lfn[si] == ' ' || lfn[si] == '.'; si++) ;	/* Strip leading spaces and dots */
1160:../sd_card/fatfs/ff.c **** 	if (si) cf |= NS_LOSS | NS_LFN;
1161:../sd_card/fatfs/ff.c **** 	while (di && lfn[di - 1] != '.') di--;	/* Find extension (di<=si: no extension) */
1162:../sd_card/fatfs/ff.c **** 
1163:../sd_card/fatfs/ff.c **** 	b = i = 0; ni = 8;
1164:../sd_card/fatfs/ff.c **** 	for (;;) {
1165:../sd_card/fatfs/ff.c **** 		w = lfn[si++];					/* Get an LFN char */
1166:../sd_card/fatfs/ff.c **** 		if (!w) break;					/* Break on end of the LFN */
1167:../sd_card/fatfs/ff.c **** 		if (w == ' ' || (w == '.' && si != di)) {	/* Remove spaces and dots */
1168:../sd_card/fatfs/ff.c **** 			cf |= NS_LOSS | NS_LFN; continue;
1169:../sd_card/fatfs/ff.c **** 		}
1170:../sd_card/fatfs/ff.c **** 
1171:../sd_card/fatfs/ff.c **** 		if (i >= ni || si == di) {		/* Extension or end of SFN */
1172:../sd_card/fatfs/ff.c **** 			if (ni == 11) {				/* Long extension */
1173:../sd_card/fatfs/ff.c **** 				cf |= NS_LOSS | NS_LFN; break;
1174:../sd_card/fatfs/ff.c **** 			}
1175:../sd_card/fatfs/ff.c **** 			if (si != di) cf |= NS_LOSS | NS_LFN;	/* Out of 8.3 format */
1176:../sd_card/fatfs/ff.c **** 			if (si > di) break;			/* No extension */
1177:../sd_card/fatfs/ff.c **** 			si = di; i = 8; ni = 11;	/* Enter extension section */
1178:../sd_card/fatfs/ff.c **** 			b <<= 2; continue;
1179:../sd_card/fatfs/ff.c **** 		}
1180:../sd_card/fatfs/ff.c **** 
1181:../sd_card/fatfs/ff.c **** 		if (w >= 0x80) {				/* Non ASCII char */
1182:../sd_card/fatfs/ff.c **** #ifdef _EXCVT
1183:../sd_card/fatfs/ff.c **** 			w = ff_convert(w, 0);		/* Unicode -> OEM code */
1184:../sd_card/fatfs/ff.c **** 			if (w) w = cvt[w - 0x80];	/* Convert extended char to upper (SBCS) */
1185:../sd_card/fatfs/ff.c **** #else
1186:../sd_card/fatfs/ff.c **** 			w = ff_convert(ff_wtoupper(w), 0);	/* Upper converted Unicode -> OEM code */
1187:../sd_card/fatfs/ff.c **** #endif
1188:../sd_card/fatfs/ff.c **** 			cf |= NS_LFN;				/* Force create LFN entry */
1189:../sd_card/fatfs/ff.c **** 		}
1190:../sd_card/fatfs/ff.c **** 
1191:../sd_card/fatfs/ff.c **** 		if (_DF1S && w >= 0x100) {		/* Double byte char */
1192:../sd_card/fatfs/ff.c **** 			if (i >= ni - 1) {
1193:../sd_card/fatfs/ff.c **** 				cf |= NS_LOSS | NS_LFN; i = ni; continue;
1194:../sd_card/fatfs/ff.c **** 			}
1195:../sd_card/fatfs/ff.c **** 			dj->fn[i++] = (BYTE)(w >> 8);
1196:../sd_card/fatfs/ff.c **** 		} else {						/* Single byte char */
1197:../sd_card/fatfs/ff.c **** 			if (!w || chk_chr("+,;[=]", w)) {		/* Replace illegal chars for SFN */
1198:../sd_card/fatfs/ff.c **** 				w = '_'; cf |= NS_LOSS | NS_LFN;	/* Lossy conversion */
1199:../sd_card/fatfs/ff.c **** 			} else {
1200:../sd_card/fatfs/ff.c **** 				if (IsUpper(w)) {		/* ASCII large capital */
1201:../sd_card/fatfs/ff.c **** 					b |= 2;
1202:../sd_card/fatfs/ff.c **** 				} else {
1203:../sd_card/fatfs/ff.c **** 					if (IsLower(w)) {	/* ASCII small capital */
1204:../sd_card/fatfs/ff.c **** 						b |= 1; w -= 0x20;
1205:../sd_card/fatfs/ff.c **** 					}
1206:../sd_card/fatfs/ff.c **** 				}
1207:../sd_card/fatfs/ff.c **** 			}
1208:../sd_card/fatfs/ff.c **** 		}
1209:../sd_card/fatfs/ff.c **** 		dj->fn[i++] = (BYTE)w;
1210:../sd_card/fatfs/ff.c **** 	}
1211:../sd_card/fatfs/ff.c **** 
1212:../sd_card/fatfs/ff.c **** 	if (dj->fn[0] == 0xE5) dj->fn[0] = 0x05;	/* If the first char collides with deleted mark, replace 
1213:../sd_card/fatfs/ff.c **** 
1214:../sd_card/fatfs/ff.c **** 	if (ni == 8) b <<= 2;
1215:../sd_card/fatfs/ff.c **** 	if ((b & 0x0C) == 0x0C || (b & 0x03) == 0x03)	/* Create LFN entry when there are composite capital
1216:../sd_card/fatfs/ff.c **** 		cf |= NS_LFN;
1217:../sd_card/fatfs/ff.c **** 	if (!(cf & NS_LFN)) {						/* When LFN is in 8.3 format without extended char, NT flags are create
1218:../sd_card/fatfs/ff.c **** 		if ((b & 0x03) == 0x01) cf |= NS_EXT;	/* NT flag (Extension has only small capital) */
1219:../sd_card/fatfs/ff.c **** 		if ((b & 0x0C) == 0x04) cf |= NS_BODY;	/* NT flag (Filename has only small capital) */
1220:../sd_card/fatfs/ff.c **** 	}
1221:../sd_card/fatfs/ff.c **** 
1222:../sd_card/fatfs/ff.c **** 	dj->fn[NS] = cf;	/* SFN is created */
1223:../sd_card/fatfs/ff.c **** 
1224:../sd_card/fatfs/ff.c **** 	return FR_OK;
1225:../sd_card/fatfs/ff.c **** 
1226:../sd_card/fatfs/ff.c **** 
1227:../sd_card/fatfs/ff.c **** #else	/* Non-LFN configuration */
1228:../sd_card/fatfs/ff.c **** 	BYTE b, c, d, *sfn;
1229:../sd_card/fatfs/ff.c **** 	int ni, si, i;
1230:../sd_card/fatfs/ff.c **** 	const char *p;
1231:../sd_card/fatfs/ff.c **** 
1232:../sd_card/fatfs/ff.c **** 	/* Create file name in directory form */
1233:../sd_card/fatfs/ff.c **** 	sfn = dj->fn;
1234:../sd_card/fatfs/ff.c **** 	mem_set(sfn, ' ', 11);
1235:../sd_card/fatfs/ff.c **** 	si = i = b = 0; ni = 8;
1236:../sd_card/fatfs/ff.c **** 	p = *path;
1237:../sd_card/fatfs/ff.c **** #if _FS_RPATH
1238:../sd_card/fatfs/ff.c **** 	if (p[si] == '.') { /* Is this a dot entry? */
1239:../sd_card/fatfs/ff.c **** 		for (;;) {
1240:../sd_card/fatfs/ff.c **** 			c = p[si++];
1241:../sd_card/fatfs/ff.c **** 			if (c != '.' || si >= 3) break;
1242:../sd_card/fatfs/ff.c **** 			sfn[i++] = c;
1243:../sd_card/fatfs/ff.c **** 		}
1244:../sd_card/fatfs/ff.c **** 		if (c != '/' && c != '\\' && c > ' ') return FR_INVALID_NAME;
1245:../sd_card/fatfs/ff.c **** 		*path = &p[si];									/* Return pointer to the next segment */
1246:../sd_card/fatfs/ff.c **** 		sfn[NS] = (c <= ' ') ? NS_LAST | NS_DOT : NS_DOT;	/* Set last segment flag if end of path */
1247:../sd_card/fatfs/ff.c **** 		return FR_OK;
1248:../sd_card/fatfs/ff.c **** 	}
1249:../sd_card/fatfs/ff.c **** #endif
1250:../sd_card/fatfs/ff.c **** 	for (;;) {
1251:../sd_card/fatfs/ff.c **** 		c = p[si++];
1252:../sd_card/fatfs/ff.c **** 		if (c <= ' ' || c == '/' || c == '\\') break;	/* Break on end of segment */
1253:../sd_card/fatfs/ff.c **** 		if (c == '.' || i >= ni) {
1254:../sd_card/fatfs/ff.c **** 			if (ni != 8 || c != '.') return FR_INVALID_NAME;
1255:../sd_card/fatfs/ff.c **** 			i = 8; ni = 11;
1256:../sd_card/fatfs/ff.c **** 			b <<= 2; continue;
1257:../sd_card/fatfs/ff.c **** 		}
1258:../sd_card/fatfs/ff.c **** 		if (c >= 0x80) {				/* Extended char */
1259:../sd_card/fatfs/ff.c **** #ifdef _EXCVT
1260:../sd_card/fatfs/ff.c **** 			c = cvt[c - 0x80];			/* Convert extend char (SBCS) */
1261:../sd_card/fatfs/ff.c **** #else
1262:../sd_card/fatfs/ff.c **** 			b |= 3;						/* Eliminate NT flag if ext char is exist */
1263:../sd_card/fatfs/ff.c **** #if !_DF1S	/* ASCII only cfg */
1264:../sd_card/fatfs/ff.c **** 			return FR_INVALID_NAME;
1265:../sd_card/fatfs/ff.c **** #endif
1266:../sd_card/fatfs/ff.c **** #endif
1267:../sd_card/fatfs/ff.c **** 		}
1268:../sd_card/fatfs/ff.c **** 		if (IsDBCS1(c)) {				/* DBC 1st byte? */
1269:../sd_card/fatfs/ff.c **** 			d = p[si++];				/* Get 2nd byte */
1270:../sd_card/fatfs/ff.c **** 			if (!IsDBCS2(d) || i >= ni - 1)	/* Reject invalid DBC */
1271:../sd_card/fatfs/ff.c **** 				return FR_INVALID_NAME;
1272:../sd_card/fatfs/ff.c **** 			sfn[i++] = c;
1273:../sd_card/fatfs/ff.c **** 			sfn[i++] = d;
1274:../sd_card/fatfs/ff.c **** 		} else {						/* Single byte code */
1275:../sd_card/fatfs/ff.c **** 			if (chk_chr(" \"*+,[=]|\x7F", c))	/* Reject illegal chrs for SFN */
1276:../sd_card/fatfs/ff.c **** 				return FR_INVALID_NAME;
1277:../sd_card/fatfs/ff.c **** 			if (IsUpper(c)) {			/* ASCII large capital? */
1278:../sd_card/fatfs/ff.c **** 				b |= 2;
1279:../sd_card/fatfs/ff.c **** 			} else {
1280:../sd_card/fatfs/ff.c **** 				if (IsLower(c)) {		/* ASCII small capital? */
1281:../sd_card/fatfs/ff.c **** 					b |= 1; c -= 0x20;
1282:../sd_card/fatfs/ff.c **** 				}
1283:../sd_card/fatfs/ff.c **** 			}
1284:../sd_card/fatfs/ff.c **** 			sfn[i++] = c;
1285:../sd_card/fatfs/ff.c **** 		}
1286:../sd_card/fatfs/ff.c **** 	}
1287:../sd_card/fatfs/ff.c **** 	*path = &p[si];						/* Return pointer to the next segment */
1288:../sd_card/fatfs/ff.c **** 	c = (c <= ' ') ? NS_LAST : 0;		/* Set last segment flag if end of path */
1289:../sd_card/fatfs/ff.c **** 
1290:../sd_card/fatfs/ff.c **** 	if (!i) return FR_INVALID_NAME;		/* Reject null string */
1291:../sd_card/fatfs/ff.c **** 	if (sfn[0] == 0xE5) sfn[0] = 0x05;	/* When first char collides with 0xE5, replace it with 0x05 */
1292:../sd_card/fatfs/ff.c **** 
1293:../sd_card/fatfs/ff.c **** 	if (ni == 8) b <<= 2;
1294:../sd_card/fatfs/ff.c **** 	if ((b & 0x03) == 0x01) c |= NS_EXT;	/* NT flag (Extension has only small capital) */
1295:../sd_card/fatfs/ff.c **** 	if ((b & 0x0C) == 0x04) c |= NS_BODY;	/* NT flag (Filename has only small capital) */
1296:../sd_card/fatfs/ff.c **** 
1297:../sd_card/fatfs/ff.c **** 	sfn[NS] = c;		/* Store NT flag, File name is created */
1298:../sd_card/fatfs/ff.c **** 
1299:../sd_card/fatfs/ff.c **** 	return FR_OK;
1300:../sd_card/fatfs/ff.c **** #endif
1301:../sd_card/fatfs/ff.c **** }
1302:../sd_card/fatfs/ff.c **** 
1303:../sd_card/fatfs/ff.c **** 
1304:../sd_card/fatfs/ff.c **** 
1305:../sd_card/fatfs/ff.c **** 
1306:../sd_card/fatfs/ff.c **** /*-----------------------------------------------------------------------*/
1307:../sd_card/fatfs/ff.c **** /* Get file information from directory entry                             */
1308:../sd_card/fatfs/ff.c **** /*-----------------------------------------------------------------------*/
1309:../sd_card/fatfs/ff.c **** #if _FS_MINIMIZE <= 1
1310:../sd_card/fatfs/ff.c **** static
1311:../sd_card/fatfs/ff.c **** void get_fileinfo (		/* No return code */
1312:../sd_card/fatfs/ff.c **** 	DIR *dj,			/* Pointer to the directory object */
1313:../sd_card/fatfs/ff.c **** 	FILINFO *fno	 	/* Pointer to the file information to be filled */
1314:../sd_card/fatfs/ff.c **** )
1315:../sd_card/fatfs/ff.c **** {
1316:../sd_card/fatfs/ff.c **** 	int i;
1317:../sd_card/fatfs/ff.c **** 	BYTE c, nt, *dir;
1318:../sd_card/fatfs/ff.c **** 	char *p;
1319:../sd_card/fatfs/ff.c **** 
1320:../sd_card/fatfs/ff.c **** 
1321:../sd_card/fatfs/ff.c **** 	p = fno->fname;
1322:../sd_card/fatfs/ff.c **** 	if (dj->sect) {
1323:../sd_card/fatfs/ff.c **** 		dir = dj->dir;
1324:../sd_card/fatfs/ff.c **** 		nt = dir[DIR_NTres];		/* NT flag */
1325:../sd_card/fatfs/ff.c **** 		for (i = 0; i < 8; i++) {	/* Copy name body */
1326:../sd_card/fatfs/ff.c **** 			c = dir[i];
1327:../sd_card/fatfs/ff.c **** 			if (c == ' ') break;
1328:../sd_card/fatfs/ff.c **** 			if (c == 0x05) c = 0xE5;
1329:../sd_card/fatfs/ff.c **** 			if (_USE_LFN && (nt & NS_BODY) && IsUpper(c)) c += 0x20;
1330:../sd_card/fatfs/ff.c **** 			*p++ = c;
1331:../sd_card/fatfs/ff.c **** 		}
1332:../sd_card/fatfs/ff.c **** 		if (dir[8] != ' ') {		/* Copy name extension */
1333:../sd_card/fatfs/ff.c **** 			*p++ = '.';
1334:../sd_card/fatfs/ff.c **** 			for (i = 8; i < 11; i++) {
1335:../sd_card/fatfs/ff.c **** 				c = dir[i];
1336:../sd_card/fatfs/ff.c **** 				if (c == ' ') break;
1337:../sd_card/fatfs/ff.c **** 				if (_USE_LFN && (nt & NS_EXT) && IsUpper(c)) c += 0x20;
1338:../sd_card/fatfs/ff.c **** 				*p++ = c;
1339:../sd_card/fatfs/ff.c **** 			}
1340:../sd_card/fatfs/ff.c **** 		}
1341:../sd_card/fatfs/ff.c **** 		fno->fattrib = dir[DIR_Attr];				/* Attribute */
1342:../sd_card/fatfs/ff.c **** 		fno->fsize = LD_DWORD(dir+DIR_FileSize);	/* Size */
1343:../sd_card/fatfs/ff.c **** 		fno->fdate = LD_WORD(dir+DIR_WrtDate);		/* Date */
1344:../sd_card/fatfs/ff.c **** 		fno->ftime = LD_WORD(dir+DIR_WrtTime);		/* Time */
1345:../sd_card/fatfs/ff.c **** 	}
1346:../sd_card/fatfs/ff.c **** 	*p = 0;
1347:../sd_card/fatfs/ff.c **** 
1348:../sd_card/fatfs/ff.c **** #if _USE_LFN
1349:../sd_card/fatfs/ff.c **** 	if (fno->lfname) {
1350:../sd_card/fatfs/ff.c **** 		XCHAR *tp = fno->lfname;
1351:../sd_card/fatfs/ff.c **** 		WCHAR w, *lfn;
1352:../sd_card/fatfs/ff.c **** 
1353:../sd_card/fatfs/ff.c **** 		i = 0;
1354:../sd_card/fatfs/ff.c **** 		if (dj->sect && dj->lfn_idx != 0xFFFF) {/* Get LFN if available */
1355:../sd_card/fatfs/ff.c **** 			lfn = dj->lfn;
1356:../sd_card/fatfs/ff.c **** 			while ((w = *lfn++) != 0) {			/* Get an LFN char */
1357:../sd_card/fatfs/ff.c **** #if !_LFN_UNICODE
1358:../sd_card/fatfs/ff.c **** 				w = ff_convert(w, 0);			/* Unicode -> OEM conversion */
1359:../sd_card/fatfs/ff.c **** 				if (!w) { i = 0; break; }		/* Could not convert, no LFN */
1360:../sd_card/fatfs/ff.c **** 				if (_DF1S && w >= 0x100)		/* Put 1st byte if it is a DBC */
1361:../sd_card/fatfs/ff.c **** 					tp[i++] = (XCHAR)(w >> 8);
1362:../sd_card/fatfs/ff.c **** #endif
1363:../sd_card/fatfs/ff.c **** 				if (i >= fno->lfsize - 1) { i = 0; break; }	/* Buffer overrun, no LFN */
1364:../sd_card/fatfs/ff.c **** 				tp[i++] = (XCHAR)w;
1365:../sd_card/fatfs/ff.c **** 			}
1366:../sd_card/fatfs/ff.c **** 		}
1367:../sd_card/fatfs/ff.c **** 		tp[i] = 0;	/* Terminator */
1368:../sd_card/fatfs/ff.c **** 	}
1369:../sd_card/fatfs/ff.c **** #endif
1370:../sd_card/fatfs/ff.c **** }
1371:../sd_card/fatfs/ff.c **** #endif /* _FS_MINIMIZE <= 1 */
1372:../sd_card/fatfs/ff.c **** 
1373:../sd_card/fatfs/ff.c **** 
1374:../sd_card/fatfs/ff.c **** 
1375:../sd_card/fatfs/ff.c **** 
1376:../sd_card/fatfs/ff.c **** /*-----------------------------------------------------------------------*/
1377:../sd_card/fatfs/ff.c **** /* Follow a file path                                                    */
1378:../sd_card/fatfs/ff.c **** /*-----------------------------------------------------------------------*/
1379:../sd_card/fatfs/ff.c **** 
1380:../sd_card/fatfs/ff.c **** static
1381:../sd_card/fatfs/ff.c **** FRESULT follow_path (	/* FR_OK(0): successful, !=0: error code */
1382:../sd_card/fatfs/ff.c **** 	DIR *dj,			/* Directory object to return last directory and found object */
1383:../sd_card/fatfs/ff.c **** 	const XCHAR *path	/* Full-path string to find a file or directory */
1384:../sd_card/fatfs/ff.c **** )
1385:../sd_card/fatfs/ff.c **** {
1386:../sd_card/fatfs/ff.c **** 	FRESULT res;
1387:../sd_card/fatfs/ff.c **** 	BYTE *dir, last;
1388:../sd_card/fatfs/ff.c **** 
1389:../sd_card/fatfs/ff.c **** 
1390:../sd_card/fatfs/ff.c **** 	while (!_USE_LFN && *path == ' ') path++;	/* Skip leading spaces */
1391:../sd_card/fatfs/ff.c **** #if _FS_RPATH
1392:../sd_card/fatfs/ff.c **** 	if (*path == '/' || *path == '\\') { /* There is a heading separator */
1393:../sd_card/fatfs/ff.c **** 		path++;	dj->sclust = 0;		/* Strip it and start from the root dir */
1394:../sd_card/fatfs/ff.c **** 	} else {							/* No heading separator */
1395:../sd_card/fatfs/ff.c **** 		dj->sclust = dj->fs->cdir;	/* Start from the current dir */
1396:../sd_card/fatfs/ff.c **** 	}
1397:../sd_card/fatfs/ff.c **** #else
1398:../sd_card/fatfs/ff.c **** 	if (*path == '/' || *path == '\\')	/* Strip heading separator if exist */
1399:../sd_card/fatfs/ff.c **** 		path++;
1400:../sd_card/fatfs/ff.c **** 	dj->sclust = 0;						/* Start from the root dir */
1401:../sd_card/fatfs/ff.c **** #endif
1402:../sd_card/fatfs/ff.c **** 
1403:../sd_card/fatfs/ff.c **** 	if ((UINT)*path < ' ') {			/* Null path means the start directory itself */
1404:../sd_card/fatfs/ff.c **** 		res = dir_seek(dj, 0);
1405:../sd_card/fatfs/ff.c **** 		dj->dir = NULL;
1406:../sd_card/fatfs/ff.c **** 
1407:../sd_card/fatfs/ff.c **** 	} else {							/* Follow path */
1408:../sd_card/fatfs/ff.c **** 		for (;;) {
1409:../sd_card/fatfs/ff.c **** 			res = create_name(dj, &path);	/* Get a segment */
1410:../sd_card/fatfs/ff.c **** 			if (res != FR_OK) break;
1411:../sd_card/fatfs/ff.c **** 			res = dir_find(dj);				/* Find it */
1412:../sd_card/fatfs/ff.c **** 			last = *(dj->fn+NS) & NS_LAST;
1413:../sd_card/fatfs/ff.c **** 			if (res != FR_OK) {				/* Could not find the object */
1414:../sd_card/fatfs/ff.c **** 				if (res == FR_NO_FILE && !last)
1415:../sd_card/fatfs/ff.c **** 					res = FR_NO_PATH;
1416:../sd_card/fatfs/ff.c **** 				break;
1417:../sd_card/fatfs/ff.c **** 			}
1418:../sd_card/fatfs/ff.c **** 			if (last) break;				/* Last segment match. Function completed. */
1419:../sd_card/fatfs/ff.c **** 			dir = dj->dir;					/* There is next segment. Follow the sub directory */
1420:../sd_card/fatfs/ff.c **** 			if (!(dir[DIR_Attr] & AM_DIR)) { /* Cannot follow because it is a file */
1421:../sd_card/fatfs/ff.c **** 				res = FR_NO_PATH; break;
1422:../sd_card/fatfs/ff.c **** 			}
1423:../sd_card/fatfs/ff.c **** 			dj->sclust = ((DWORD)LD_WORD(dir+DIR_FstClusHI) << 16) | LD_WORD(dir+DIR_FstClusLO);
1424:../sd_card/fatfs/ff.c **** 		}
1425:../sd_card/fatfs/ff.c **** 	}
1426:../sd_card/fatfs/ff.c **** 
1427:../sd_card/fatfs/ff.c **** 	return res;
1428:../sd_card/fatfs/ff.c **** }
1429:../sd_card/fatfs/ff.c **** 
1430:../sd_card/fatfs/ff.c **** 
1431:../sd_card/fatfs/ff.c **** 
1432:../sd_card/fatfs/ff.c **** 
1433:../sd_card/fatfs/ff.c **** /*-----------------------------------------------------------------------*/
1434:../sd_card/fatfs/ff.c **** /* Load boot record and check if it is an FAT boot record                */
1435:../sd_card/fatfs/ff.c **** /*-----------------------------------------------------------------------*/
1436:../sd_card/fatfs/ff.c **** 
1437:../sd_card/fatfs/ff.c **** static
1438:../sd_card/fatfs/ff.c **** BYTE check_fs (	/* 0:The FAT boot record, 1:Valid boot record but not an FAT, 2:Not a boot record, 
1439:../sd_card/fatfs/ff.c **** 	FATFS *fs,	/* File system object */
1440:../sd_card/fatfs/ff.c **** 	DWORD sect	/* Sector# (lba) to check if it is an FAT boot record or not */
1441:../sd_card/fatfs/ff.c **** )
1442:../sd_card/fatfs/ff.c **** {
1443:../sd_card/fatfs/ff.c **** 	if (disk_read(fs->drive, fs->win, sect, 1) != RES_OK)	/* Load boot record */
1444:../sd_card/fatfs/ff.c **** 		return 3;
1445:../sd_card/fatfs/ff.c **** 	if (LD_WORD(&fs->win[BS_55AA]) != 0xAA55)		/* Check record signature (always placed at offset 510 
1446:../sd_card/fatfs/ff.c **** 		return 2;
1447:../sd_card/fatfs/ff.c **** 
1448:../sd_card/fatfs/ff.c **** 	if ((LD_DWORD(&fs->win[BS_FilSysType]) & 0xFFFFFF) == 0x544146)	/* Check "FAT" string */
1449:../sd_card/fatfs/ff.c **** 		return 0;
1450:../sd_card/fatfs/ff.c **** 	if ((LD_DWORD(&fs->win[BS_FilSysType32]) & 0xFFFFFF) == 0x544146)
1451:../sd_card/fatfs/ff.c **** 		return 0;
1452:../sd_card/fatfs/ff.c **** 
1453:../sd_card/fatfs/ff.c **** 	return 1;
1454:../sd_card/fatfs/ff.c **** }
1455:../sd_card/fatfs/ff.c **** 
1456:../sd_card/fatfs/ff.c **** 
1457:../sd_card/fatfs/ff.c **** 
1458:../sd_card/fatfs/ff.c **** 
1459:../sd_card/fatfs/ff.c **** /*-----------------------------------------------------------------------*/
1460:../sd_card/fatfs/ff.c **** /* Make sure that the file system is valid                               */
1461:../sd_card/fatfs/ff.c **** /*-----------------------------------------------------------------------*/
1462:../sd_card/fatfs/ff.c **** 
1463:../sd_card/fatfs/ff.c **** 
1464:../sd_card/fatfs/ff.c **** FRESULT chk_mounted (	/* FR_OK(0): successful, !=0: any error occurred */
1465:../sd_card/fatfs/ff.c **** 	const XCHAR **path,	/* Pointer to pointer to the path name (drive number) */
1466:../sd_card/fatfs/ff.c **** 	FATFS **rfs,		/* Pointer to pointer to the found file system object */
1467:../sd_card/fatfs/ff.c **** 	BYTE chk_wp			/* !=0: Check media write protection for write access */
1468:../sd_card/fatfs/ff.c **** )
1469:../sd_card/fatfs/ff.c **** {
1470:../sd_card/fatfs/ff.c **** 	BYTE fmt, *tbl;
1471:../sd_card/fatfs/ff.c **** 	UINT vol;
1472:../sd_card/fatfs/ff.c **** 	DSTATUS stat;
1473:../sd_card/fatfs/ff.c **** 	DWORD bsect, fsize, tsect, mclst;
1474:../sd_card/fatfs/ff.c **** 	const XCHAR *p = *path;
1475:../sd_card/fatfs/ff.c **** 	FATFS *fs;
1476:../sd_card/fatfs/ff.c **** 
1477:../sd_card/fatfs/ff.c **** 	/* Get logical drive number from the path name */
1478:../sd_card/fatfs/ff.c **** 	vol = p[0] - '0';				/* Is there a drive number? */
1479:../sd_card/fatfs/ff.c **** 	if (vol <= 9 && p[1] == ':') {	/* Found a drive number, get and strip it */
1480:../sd_card/fatfs/ff.c **** 		p += 2; *path = p;			/* Return pointer to the path name */
1481:../sd_card/fatfs/ff.c **** 	} else {						/* No drive number is given */
1482:../sd_card/fatfs/ff.c **** #if _FS_RPATH
1483:../sd_card/fatfs/ff.c **** 		vol = Drive;				/* Use current drive */
1484:../sd_card/fatfs/ff.c **** #else
1485:../sd_card/fatfs/ff.c **** 		vol = 0;					/* Use drive 0 */
1486:../sd_card/fatfs/ff.c **** #endif
1487:../sd_card/fatfs/ff.c **** 	}
1488:../sd_card/fatfs/ff.c **** 
1489:../sd_card/fatfs/ff.c **** 	/* Check if the logical drive is valid or not */
1490:../sd_card/fatfs/ff.c **** 	if (vol >= _DRIVES) 			/* Is the drive number valid? */
1491:../sd_card/fatfs/ff.c **** 		return FR_INVALID_DRIVE;
1492:../sd_card/fatfs/ff.c **** 	*rfs = fs = FatFs[vol];			/* Return pointer to the corresponding file system object */
1493:../sd_card/fatfs/ff.c **** 	if (!fs) return FR_NOT_ENABLED;	/* Is the file system object available? */
1494:../sd_card/fatfs/ff.c **** 
1495:../sd_card/fatfs/ff.c **** 	ENTER_FF(fs);					/* Lock file system */
1496:../sd_card/fatfs/ff.c **** 
1497:../sd_card/fatfs/ff.c **** 	if (fs->fs_type) {				/* If the logical drive has been mounted */
1498:../sd_card/fatfs/ff.c **** 		stat = disk_status(fs->drive);
1499:../sd_card/fatfs/ff.c **** 		if (!(stat & STA_NOINIT)) {	/* and the physical drive is kept initialized (has not been changed),
1500:../sd_card/fatfs/ff.c **** #if !_FS_READONLY
1501:../sd_card/fatfs/ff.c **** 			if (chk_wp && (stat & STA_PROTECT))	/* Check write protection if needed */
1502:../sd_card/fatfs/ff.c **** 				return FR_WRITE_PROTECTED;
1503:../sd_card/fatfs/ff.c **** #endif
1504:../sd_card/fatfs/ff.c **** 			return FR_OK;			/* The file system object is valid */
1505:../sd_card/fatfs/ff.c **** 		}
1506:../sd_card/fatfs/ff.c **** 	}
1507:../sd_card/fatfs/ff.c **** 
1508:../sd_card/fatfs/ff.c **** 	/* The logical drive must be mounted. Following code attempts to mount the volume */
1509:../sd_card/fatfs/ff.c **** 
1510:../sd_card/fatfs/ff.c **** 	fs->fs_type = 0;					/* Clear the file system object */
1511:../sd_card/fatfs/ff.c **** 	fs->drive = (BYTE)LD2PD(vol);		/* Bind the logical drive and a physical drive */
1512:../sd_card/fatfs/ff.c **** 	stat = disk_initialize(fs->drive);	/* Initialize low level disk I/O layer */
1513:../sd_card/fatfs/ff.c **** 	if (stat & STA_NOINIT)				/* Check if the drive is ready */
1514:../sd_card/fatfs/ff.c **** 		return FR_NOT_READY;
1515:../sd_card/fatfs/ff.c **** #if _MAX_SS != 512						/* Get disk sector size if needed */
1516:../sd_card/fatfs/ff.c **** 	if (disk_ioctl(fs->drive, GET_SECTOR_SIZE, &SS(fs)) != RES_OK || SS(fs) > _MAX_SS)
1517:../sd_card/fatfs/ff.c **** 		return FR_NO_FILESYSTEM;
1518:../sd_card/fatfs/ff.c **** #endif
1519:../sd_card/fatfs/ff.c **** #if !_FS_READONLY
1520:../sd_card/fatfs/ff.c **** 	if (chk_wp && (stat & STA_PROTECT))	/* Check disk write protection if needed */
1521:../sd_card/fatfs/ff.c **** 		return FR_WRITE_PROTECTED;
1522:../sd_card/fatfs/ff.c **** #endif
1523:../sd_card/fatfs/ff.c **** 	/* Search FAT partition on the drive */
1524:../sd_card/fatfs/ff.c **** 	fmt = check_fs(fs, bsect = 0);		/* Check sector 0 as an SFD format */
1525:../sd_card/fatfs/ff.c **** 	if (fmt == 1) {						/* Not an FAT boot record, it may be partitioned */
1526:../sd_card/fatfs/ff.c **** 		/* Check a partition listed in top of the partition table */
1527:../sd_card/fatfs/ff.c **** 		tbl = &fs->win[MBR_Table + LD2PT(vol) * 16];	/* Partition table */
1528:../sd_card/fatfs/ff.c **** 		if (tbl[4]) {									/* Is the partition existing? */
1529:../sd_card/fatfs/ff.c **** 			bsect = LD_DWORD(&tbl[8]);					/* Partition offset in LBA */
1530:../sd_card/fatfs/ff.c **** 			fmt = check_fs(fs, bsect);					/* Check the partition */
1531:../sd_card/fatfs/ff.c **** 		}
1532:../sd_card/fatfs/ff.c **** 	}
1533:../sd_card/fatfs/ff.c **** 	if (fmt == 3) return FR_DISK_ERR;
1534:../sd_card/fatfs/ff.c **** 	if (fmt || LD_WORD(fs->win+BPB_BytsPerSec) != SS(fs))	/* No valid FAT partition is found */
1535:../sd_card/fatfs/ff.c **** 		return FR_NO_FILESYSTEM;
1536:../sd_card/fatfs/ff.c **** 
1537:../sd_card/fatfs/ff.c **** 	/* Initialize the file system object */
1538:../sd_card/fatfs/ff.c **** 	fsize = LD_WORD(fs->win+BPB_FATSz16);				/* Number of sectors per FAT */
1539:../sd_card/fatfs/ff.c **** 	if (!fsize) fsize = LD_DWORD(fs->win+BPB_FATSz32);
1540:../sd_card/fatfs/ff.c **** 	fs->sects_fat = fsize;
1541:../sd_card/fatfs/ff.c **** 	fs->n_fats = fs->win[BPB_NumFATs];					/* Number of FAT copies */
1542:../sd_card/fatfs/ff.c **** 	fsize *= fs->n_fats;								/* (Number of sectors in FAT area) */
1543:../sd_card/fatfs/ff.c **** 	fs->fatbase = bsect + LD_WORD(fs->win+BPB_RsvdSecCnt); /* FAT start sector (lba) */
1544:../sd_card/fatfs/ff.c **** 	fs->csize = fs->win[BPB_SecPerClus];				/* Number of sectors per cluster */
1545:../sd_card/fatfs/ff.c **** 	fs->n_rootdir = LD_WORD(fs->win+BPB_RootEntCnt);	/* Number of root directory entries */
1546:../sd_card/fatfs/ff.c **** 	tsect = LD_WORD(fs->win+BPB_TotSec16);				/* Number of sectors on the volume */
1547:../sd_card/fatfs/ff.c **** 	if (!tsect) tsect = LD_DWORD(fs->win+BPB_TotSec32);
1548:../sd_card/fatfs/ff.c **** 	fs->max_clust = mclst = (tsect						/* Last cluster# + 1 (Number of clusters + 2) */
1549:../sd_card/fatfs/ff.c **** 		- LD_WORD(fs->win+BPB_RsvdSecCnt) - fsize - fs->n_rootdir / (SS(fs)/32)
1550:../sd_card/fatfs/ff.c **** 		) / fs->csize + 2;
1551:../sd_card/fatfs/ff.c **** 
1552:../sd_card/fatfs/ff.c **** 	fmt = FS_FAT12;										/* Determine the FAT sub type */
1553:../sd_card/fatfs/ff.c **** 	if (mclst >= 0xFF7) fmt = FS_FAT16;					/* Number of clusters >= 0xFF5 */
1554:../sd_card/fatfs/ff.c **** 	if (mclst >= 0xFFF7) fmt = FS_FAT32;				/* Number of clusters >= 0xFFF5 */
1555:../sd_card/fatfs/ff.c **** 
1556:../sd_card/fatfs/ff.c **** 	if (fmt == FS_FAT32)
1557:../sd_card/fatfs/ff.c **** 		fs->dirbase = LD_DWORD(fs->win+BPB_RootClus);	/* Root directory start cluster */
1558:../sd_card/fatfs/ff.c **** 	else
1559:../sd_card/fatfs/ff.c **** 		fs->dirbase = fs->fatbase + fsize;				/* Root directory start sector (lba) */
1560:../sd_card/fatfs/ff.c **** 	fs->database = fs->fatbase + fsize + fs->n_rootdir / (SS(fs)/32);	/* Data start sector (lba) */
1561:../sd_card/fatfs/ff.c **** 
1562:../sd_card/fatfs/ff.c **** #if !_FS_READONLY
1563:../sd_card/fatfs/ff.c **** 	/* Initialize allocation information */
1564:../sd_card/fatfs/ff.c **** 	fs->free_clust = 0xFFFFFFFF;
1565:../sd_card/fatfs/ff.c **** 	fs->wflag = 0;
1566:../sd_card/fatfs/ff.c **** 	/* Get fsinfo if needed */
1567:../sd_card/fatfs/ff.c **** 	if (fmt == FS_FAT32) {
1568:../sd_card/fatfs/ff.c **** 	 	fs->fsi_flag = 0;
1569:../sd_card/fatfs/ff.c **** 		fs->fsi_sector = bsect + LD_WORD(fs->win+BPB_FSInfo);
1570:../sd_card/fatfs/ff.c **** 		if (disk_read(fs->drive, fs->win, fs->fsi_sector, 1) == RES_OK &&
1571:../sd_card/fatfs/ff.c **** 			LD_WORD(fs->win+BS_55AA) == 0xAA55 &&
1572:../sd_card/fatfs/ff.c **** 			LD_DWORD(fs->win+FSI_LeadSig) == 0x41615252 &&
1573:../sd_card/fatfs/ff.c **** 			LD_DWORD(fs->win+FSI_StrucSig) == 0x61417272) {
1574:../sd_card/fatfs/ff.c **** 			fs->last_clust = LD_DWORD(fs->win+FSI_Nxt_Free);
1575:../sd_card/fatfs/ff.c **** 			fs->free_clust = LD_DWORD(fs->win+FSI_Free_Count);
1576:../sd_card/fatfs/ff.c **** 		}
1577:../sd_card/fatfs/ff.c **** 	}
1578:../sd_card/fatfs/ff.c **** #endif
1579:../sd_card/fatfs/ff.c **** 	fs->fs_type = fmt;		/* FAT sub-type */
1580:../sd_card/fatfs/ff.c **** 	fs->winsect = 0;		/* Invalidate sector cache */
1581:../sd_card/fatfs/ff.c **** #if _FS_RPATH
1582:../sd_card/fatfs/ff.c **** 	fs->cdir = 0;			/* Current directory (root dir) */
1583:../sd_card/fatfs/ff.c **** #endif
1584:../sd_card/fatfs/ff.c **** 	fs->id = ++Fsid;		/* File system mount ID */
1585:../sd_card/fatfs/ff.c **** 
1586:../sd_card/fatfs/ff.c **** 	return FR_OK;
1587:../sd_card/fatfs/ff.c **** }
1588:../sd_card/fatfs/ff.c **** 
1589:../sd_card/fatfs/ff.c **** 
1590:../sd_card/fatfs/ff.c **** 
1591:../sd_card/fatfs/ff.c **** 
1592:../sd_card/fatfs/ff.c **** /*-----------------------------------------------------------------------*/
1593:../sd_card/fatfs/ff.c **** /* Check if the file/dir object is valid or not                          */
1594:../sd_card/fatfs/ff.c **** /*-----------------------------------------------------------------------*/
1595:../sd_card/fatfs/ff.c **** 
1596:../sd_card/fatfs/ff.c **** static
1597:../sd_card/fatfs/ff.c **** FRESULT validate (	/* FR_OK(0): The object is valid, !=0: Invalid */
1598:../sd_card/fatfs/ff.c **** 	FATFS *fs,		/* Pointer to the file system object */
1599:../sd_card/fatfs/ff.c **** 	WORD id			/* Member id of the target object to be checked */
1600:../sd_card/fatfs/ff.c **** )
1601:../sd_card/fatfs/ff.c **** {
1602:../sd_card/fatfs/ff.c **** 	if (!fs || !fs->fs_type || fs->id != id)
1603:../sd_card/fatfs/ff.c **** 		return FR_INVALID_OBJECT;
1604:../sd_card/fatfs/ff.c **** 
1605:../sd_card/fatfs/ff.c **** 	ENTER_FF(fs);		/* Lock file system */
1606:../sd_card/fatfs/ff.c **** 
1607:../sd_card/fatfs/ff.c **** 	if (disk_status(fs->drive) & STA_NOINIT)
1608:../sd_card/fatfs/ff.c **** 		return FR_NOT_READY;
1609:../sd_card/fatfs/ff.c **** 
1610:../sd_card/fatfs/ff.c **** 	return FR_OK;
1611:../sd_card/fatfs/ff.c **** }
1612:../sd_card/fatfs/ff.c **** 
1613:../sd_card/fatfs/ff.c **** 
1614:../sd_card/fatfs/ff.c **** 
1615:../sd_card/fatfs/ff.c **** 
1616:../sd_card/fatfs/ff.c **** /*--------------------------------------------------------------------------
1617:../sd_card/fatfs/ff.c **** 
1618:../sd_card/fatfs/ff.c ****    Public Functions
1619:../sd_card/fatfs/ff.c **** 
1620:../sd_card/fatfs/ff.c **** --------------------------------------------------------------------------*/
1621:../sd_card/fatfs/ff.c **** 
1622:../sd_card/fatfs/ff.c **** 
1623:../sd_card/fatfs/ff.c **** 
1624:../sd_card/fatfs/ff.c **** /*-----------------------------------------------------------------------*/
1625:../sd_card/fatfs/ff.c **** /* Mount/Unmount a Logical Drive                                         */
1626:../sd_card/fatfs/ff.c **** /*-----------------------------------------------------------------------*/
1627:../sd_card/fatfs/ff.c **** 
1628:../sd_card/fatfs/ff.c **** FRESULT f_mount (
1629:../sd_card/fatfs/ff.c **** 	BYTE vol,		/* Logical drive number to be mounted/unmounted */
1630:../sd_card/fatfs/ff.c **** 	FATFS *fs		/* Pointer to new file system object (NULL for unmount)*/
1631:../sd_card/fatfs/ff.c **** )
1632:../sd_card/fatfs/ff.c **** {
 18893              		.loc 1 1632 0
 18894              		.cfi_startproc
 18895              		@ args = 0, pretend = 0, frame = 0
 18896              		@ frame_needed = 0, uses_anonymous_args = 0
 18897              		@ link register save eliminated.
 18898              	.LVL11:
1633:../sd_card/fatfs/ff.c **** 	FATFS *rfs;
1634:../sd_card/fatfs/ff.c **** 
1635:../sd_card/fatfs/ff.c **** 
1636:../sd_card/fatfs/ff.c **** 	if (vol >= _DRIVES)				/* Check if the drive number is valid */
 18899              		.loc 1 1636 0
 18900 0000 10B1     		cbz	r0, .L16
 18901 0002 4FF00B00 		mov	r0, #11
 18902              	.LVL12:
 18903 0006 7047     		bx	lr
 18904              	.LVL13:
 18905              	.L16:
1637:../sd_card/fatfs/ff.c **** 		return FR_INVALID_DRIVE;
1638:../sd_card/fatfs/ff.c **** 	rfs = FatFs[vol];				/* Get current fs object */
 18906              		.loc 1 1638 0
 18907 0008 40F20003 		movw	r3, #:lower16:.LANCHOR0
 18908 000c C0F20003 		movt	r3, #:upper16:.LANCHOR0
 18909 0010 1B68     		ldr	r3, [r3, #0]
 18910              	.LVL14:
1639:../sd_card/fatfs/ff.c **** 
1640:../sd_card/fatfs/ff.c **** 	if (rfs) {
 18911              		.loc 1 1640 0
 18912 0012 13B1     		cbz	r3, .L18
1641:../sd_card/fatfs/ff.c **** #if _FS_REENTRANT					/* Discard sync object of the current volume */
1642:../sd_card/fatfs/ff.c **** 		if (!ff_del_syncobj(rfs->sobj)) return FR_INT_ERR;
1643:../sd_card/fatfs/ff.c **** #endif
1644:../sd_card/fatfs/ff.c **** 		rfs->fs_type = 0;			/* Clear old fs object */
 18913              		.loc 1 1644 0
 18914 0014 4FF00002 		mov	r2, #0
 18915 0018 1A70     		strb	r2, [r3, #0]
 18916              	.L18:
1645:../sd_card/fatfs/ff.c **** 	}
1646:../sd_card/fatfs/ff.c **** 
1647:../sd_card/fatfs/ff.c **** 	if (fs) {
 18917              		.loc 1 1647 0
 18918 001a 11B1     		cbz	r1, .L19
1648:../sd_card/fatfs/ff.c **** 		fs->fs_type = 0;			/* Clear new fs object */
 18919              		.loc 1 1648 0
 18920 001c 4FF00003 		mov	r3, #0
 18921              	.LVL15:
 18922 0020 0B70     		strb	r3, [r1, #0]
 18923              	.LVL16:
 18924              	.L19:
1649:../sd_card/fatfs/ff.c **** #if _FS_REENTRANT					/* Create sync object for the new volume */
1650:../sd_card/fatfs/ff.c **** 		if (!ff_cre_syncobj(vol, &fs->sobj)) return FR_INT_ERR;
1651:../sd_card/fatfs/ff.c **** #endif
1652:../sd_card/fatfs/ff.c **** 	}
1653:../sd_card/fatfs/ff.c **** 	FatFs[vol] = fs;				/* Register new fs object */
 18925              		.loc 1 1653 0
 18926 0022 40F20003 		movw	r3, #:lower16:.LANCHOR0
 18927              	.LVL17:
 18928 0026 C0F20003 		movt	r3, #:upper16:.LANCHOR0
 18929 002a 1960     		str	r1, [r3, #0]
 18930 002c 4FF00000 		mov	r0, #0
 18931              	.LVL18:
1654:../sd_card/fatfs/ff.c **** 
1655:../sd_card/fatfs/ff.c **** 	return FR_OK;
1656:../sd_card/fatfs/ff.c **** }
 18932              		.loc 1 1656 0
 18933 0030 7047     		bx	lr
 18934              		.cfi_endproc
 18935              	.LFE51:
 18937 0032 00BF     		.section	.text.f_mkfs,"ax",%progbits
 18938              		.align	2
 18939              		.global	f_mkfs
 18940              		.thumb
 18941              		.thumb_func
 18943              	f_mkfs:
 18944              	.LFB60:
1657:../sd_card/fatfs/ff.c **** 
1658:../sd_card/fatfs/ff.c **** 
1659:../sd_card/fatfs/ff.c **** 
1660:../sd_card/fatfs/ff.c **** 
1661:../sd_card/fatfs/ff.c **** /*-----------------------------------------------------------------------*/
1662:../sd_card/fatfs/ff.c **** /* Open or Create a File                                                 */
1663:../sd_card/fatfs/ff.c **** /*-----------------------------------------------------------------------*/
1664:../sd_card/fatfs/ff.c **** 
1665:../sd_card/fatfs/ff.c **** FRESULT f_open (
1666:../sd_card/fatfs/ff.c **** 	FIL *fp,			/* Pointer to the blank file object */
1667:../sd_card/fatfs/ff.c **** 	const XCHAR *path,	/* Pointer to the file name */
1668:../sd_card/fatfs/ff.c **** 	BYTE mode			/* Access mode and file open mode flags */
1669:../sd_card/fatfs/ff.c **** )
1670:../sd_card/fatfs/ff.c **** {
1671:../sd_card/fatfs/ff.c **** 	FRESULT res;
1672:../sd_card/fatfs/ff.c **** 	DIR dj;
1673:../sd_card/fatfs/ff.c **** 	NAMEBUF(sfn, lfn);
1674:../sd_card/fatfs/ff.c **** 	BYTE *dir;
1675:../sd_card/fatfs/ff.c **** 
1676:../sd_card/fatfs/ff.c **** 
1677:../sd_card/fatfs/ff.c **** 	fp->fs = NULL;		/* Clear file object */
1678:../sd_card/fatfs/ff.c **** #if !_FS_READONLY
1679:../sd_card/fatfs/ff.c **** 	mode &= (FA_READ | FA_WRITE | FA_CREATE_ALWAYS | FA_OPEN_ALWAYS | FA_CREATE_NEW);
1680:../sd_card/fatfs/ff.c **** 	res = chk_mounted(&path, &dj.fs, (BYTE)(mode & (FA_WRITE | FA_CREATE_ALWAYS | FA_OPEN_ALWAYS | FA_
1681:../sd_card/fatfs/ff.c **** #else
1682:../sd_card/fatfs/ff.c **** 	mode &= FA_READ;
1683:../sd_card/fatfs/ff.c **** 	res = chk_mounted(&path, &dj.fs, 0);
1684:../sd_card/fatfs/ff.c **** #endif
1685:../sd_card/fatfs/ff.c **** 	if (res != FR_OK) LEAVE_FF(dj.fs, res);
1686:../sd_card/fatfs/ff.c **** 	INITBUF(dj, sfn, lfn);
1687:../sd_card/fatfs/ff.c **** 	res = follow_path(&dj, path);	/* Follow the file path */
1688:../sd_card/fatfs/ff.c **** 
1689:../sd_card/fatfs/ff.c **** #if !_FS_READONLY
1690:../sd_card/fatfs/ff.c **** 	/* Create or Open a file */
1691:../sd_card/fatfs/ff.c **** 	if (mode & (FA_CREATE_ALWAYS | FA_OPEN_ALWAYS | FA_CREATE_NEW)) {
1692:../sd_card/fatfs/ff.c **** 		DWORD ps, cl;
1693:../sd_card/fatfs/ff.c **** 
1694:../sd_card/fatfs/ff.c **** 		if (res != FR_OK) {			/* No file, create new */
1695:../sd_card/fatfs/ff.c **** 			if (res == FR_NO_FILE)	/* There is no file to open, create a new entry */
1696:../sd_card/fatfs/ff.c **** 				res = dir_register(&dj);
1697:../sd_card/fatfs/ff.c **** 			if (res != FR_OK) LEAVE_FF(dj.fs, res);
1698:../sd_card/fatfs/ff.c **** 			mode |= FA_CREATE_ALWAYS;
1699:../sd_card/fatfs/ff.c **** 			dir = dj.dir;			/* Created entry (SFN entry) */
1700:../sd_card/fatfs/ff.c **** 		}
1701:../sd_card/fatfs/ff.c **** 		else {						/* Any object is already existing */
1702:../sd_card/fatfs/ff.c **** 			if (mode & FA_CREATE_NEW)			/* Cannot create new */
1703:../sd_card/fatfs/ff.c **** 				LEAVE_FF(dj.fs, FR_EXIST);
1704:../sd_card/fatfs/ff.c **** 			dir = dj.dir;
1705:../sd_card/fatfs/ff.c **** 			if (!dir || (dir[DIR_Attr] & (AM_RDO | AM_DIR)))	/* Cannot overwrite it (R/O or DIR) */
1706:../sd_card/fatfs/ff.c **** 				LEAVE_FF(dj.fs, FR_DENIED);
1707:../sd_card/fatfs/ff.c **** 			if (mode & FA_CREATE_ALWAYS) {		/* Resize it to zero on over write mode */
1708:../sd_card/fatfs/ff.c **** 				cl = ((DWORD)LD_WORD(dir+DIR_FstClusHI) << 16) | LD_WORD(dir+DIR_FstClusLO);	/* Get start clust
1709:../sd_card/fatfs/ff.c **** 				ST_WORD(dir+DIR_FstClusHI, 0);	/* cluster = 0 */
1710:../sd_card/fatfs/ff.c **** 				ST_WORD(dir+DIR_FstClusLO, 0);
1711:../sd_card/fatfs/ff.c **** 				ST_DWORD(dir+DIR_FileSize, 0);	/* size = 0 */
1712:../sd_card/fatfs/ff.c **** 				dj.fs->wflag = 1;
1713:../sd_card/fatfs/ff.c **** 				ps = dj.fs->winsect;			/* Remove the cluster chain */
1714:../sd_card/fatfs/ff.c **** 				if (cl) {
1715:../sd_card/fatfs/ff.c **** 					res = remove_chain(dj.fs, cl);
1716:../sd_card/fatfs/ff.c **** 					if (res) LEAVE_FF(dj.fs, res);
1717:../sd_card/fatfs/ff.c **** 					dj.fs->last_clust = cl - 1;	/* Reuse the cluster hole */
1718:../sd_card/fatfs/ff.c **** 				}
1719:../sd_card/fatfs/ff.c **** 				res = move_window(dj.fs, ps);
1720:../sd_card/fatfs/ff.c **** 				if (res != FR_OK) LEAVE_FF(dj.fs, res);
1721:../sd_card/fatfs/ff.c **** 			}
1722:../sd_card/fatfs/ff.c **** 		}
1723:../sd_card/fatfs/ff.c **** 		if (mode & FA_CREATE_ALWAYS) {
1724:../sd_card/fatfs/ff.c **** 			dir[DIR_Attr] = 0;					/* Reset attribute */
1725:../sd_card/fatfs/ff.c **** 			ps = get_fattime();
1726:../sd_card/fatfs/ff.c **** 			ST_DWORD(dir+DIR_CrtTime, ps);		/* Created time */
1727:../sd_card/fatfs/ff.c **** 			dj.fs->wflag = 1;
1728:../sd_card/fatfs/ff.c **** 			mode |= FA__WRITTEN;				/* Set file changed flag */
1729:../sd_card/fatfs/ff.c **** 		}
1730:../sd_card/fatfs/ff.c **** 	}
1731:../sd_card/fatfs/ff.c **** 	/* Open an existing file */
1732:../sd_card/fatfs/ff.c **** 	else {
1733:../sd_card/fatfs/ff.c **** #endif /* !_FS_READONLY */
1734:../sd_card/fatfs/ff.c **** 		if (res != FR_OK) LEAVE_FF(dj.fs, res);	/* Follow failed */
1735:../sd_card/fatfs/ff.c **** 		dir = dj.dir;
1736:../sd_card/fatfs/ff.c **** 		if (!dir || (dir[DIR_Attr] & AM_DIR))	/* It is a directory */
1737:../sd_card/fatfs/ff.c **** 			LEAVE_FF(dj.fs, FR_NO_FILE);
1738:../sd_card/fatfs/ff.c **** #if !_FS_READONLY
1739:../sd_card/fatfs/ff.c **** 		if ((mode & FA_WRITE) && (dir[DIR_Attr] & AM_RDO)) /* R/O violation */
1740:../sd_card/fatfs/ff.c **** 			LEAVE_FF(dj.fs, FR_DENIED);
1741:../sd_card/fatfs/ff.c **** 	}
1742:../sd_card/fatfs/ff.c **** 	fp->dir_sect = dj.fs->winsect;		/* Pointer to the directory entry */
1743:../sd_card/fatfs/ff.c **** 	fp->dir_ptr = dj.dir;
1744:../sd_card/fatfs/ff.c **** #endif
1745:../sd_card/fatfs/ff.c **** 	fp->flag = mode;					/* File access mode */
1746:../sd_card/fatfs/ff.c **** 	fp->org_clust =						/* File start cluster */
1747:../sd_card/fatfs/ff.c **** 		((DWORD)LD_WORD(dir+DIR_FstClusHI) << 16) | LD_WORD(dir+DIR_FstClusLO);
1748:../sd_card/fatfs/ff.c **** 	fp->fsize = LD_DWORD(dir+DIR_FileSize);	/* File size */
1749:../sd_card/fatfs/ff.c **** 	fp->fptr = 0; fp->csect = 255;		/* File pointer */
1750:../sd_card/fatfs/ff.c **** 	fp->dsect = 0;
1751:../sd_card/fatfs/ff.c **** 	fp->fs = dj.fs; fp->id = dj.fs->id;	/* Owner file system object of the file */
1752:../sd_card/fatfs/ff.c **** 
1753:../sd_card/fatfs/ff.c **** 	LEAVE_FF(dj.fs, FR_OK);
1754:../sd_card/fatfs/ff.c **** }
1755:../sd_card/fatfs/ff.c **** 
1756:../sd_card/fatfs/ff.c **** 
1757:../sd_card/fatfs/ff.c **** 
1758:../sd_card/fatfs/ff.c **** 
1759:../sd_card/fatfs/ff.c **** /*-----------------------------------------------------------------------*/
1760:../sd_card/fatfs/ff.c **** /* Read File                                                             */
1761:../sd_card/fatfs/ff.c **** /*-----------------------------------------------------------------------*/
1762:../sd_card/fatfs/ff.c **** 
1763:../sd_card/fatfs/ff.c **** FRESULT f_read (
1764:../sd_card/fatfs/ff.c **** 	FIL *fp, 		/* Pointer to the file object */
1765:../sd_card/fatfs/ff.c **** 	void *buff,		/* Pointer to data buffer */
1766:../sd_card/fatfs/ff.c **** 	UINT btr,		/* Number of bytes to read */
1767:../sd_card/fatfs/ff.c **** 	UINT *br		/* Pointer to number of bytes read */
1768:../sd_card/fatfs/ff.c **** )
1769:../sd_card/fatfs/ff.c **** {
1770:../sd_card/fatfs/ff.c **** 	FRESULT res;
1771:../sd_card/fatfs/ff.c **** 	DWORD clst, sect, remain;
1772:../sd_card/fatfs/ff.c **** 	UINT rcnt, cc;
1773:../sd_card/fatfs/ff.c **** 	BYTE *rbuff = buff;
1774:../sd_card/fatfs/ff.c **** 
1775:../sd_card/fatfs/ff.c **** 
1776:../sd_card/fatfs/ff.c **** 	*br = 0;	/* Initialize bytes read */
1777:../sd_card/fatfs/ff.c **** 
1778:../sd_card/fatfs/ff.c **** 	res = validate(fp->fs, fp->id);					/* Check validity of the object */
1779:../sd_card/fatfs/ff.c **** 	if (res != FR_OK) LEAVE_FF(fp->fs, res);
1780:../sd_card/fatfs/ff.c **** 	if (fp->flag & FA__ERROR)						/* Check abort flag */
1781:../sd_card/fatfs/ff.c **** 		LEAVE_FF(fp->fs, FR_INT_ERR);
1782:../sd_card/fatfs/ff.c **** 	if (!(fp->flag & FA_READ)) 						/* Check access mode */
1783:../sd_card/fatfs/ff.c **** 		LEAVE_FF(fp->fs, FR_DENIED);
1784:../sd_card/fatfs/ff.c **** 	remain = fp->fsize - fp->fptr;
1785:../sd_card/fatfs/ff.c **** 	if (btr > remain) btr = (UINT)remain;			/* Truncate btr by remaining bytes */
1786:../sd_card/fatfs/ff.c **** 
1787:../sd_card/fatfs/ff.c **** 	for ( ;  btr;									/* Repeat until all data transferred */
1788:../sd_card/fatfs/ff.c **** 		rbuff += rcnt, fp->fptr += rcnt, *br += rcnt, btr -= rcnt) {
1789:../sd_card/fatfs/ff.c **** 		if ((fp->fptr % SS(fp->fs)) == 0) {			/* On the sector boundary? */
1790:../sd_card/fatfs/ff.c **** 			if (fp->csect >= fp->fs->csize) {		/* On the cluster boundary? */
1791:../sd_card/fatfs/ff.c **** 				clst = (fp->fptr == 0) ?			/* On the top of the file? */
1792:../sd_card/fatfs/ff.c **** 					fp->org_clust : get_fat(fp->fs, fp->curr_clust);
1793:../sd_card/fatfs/ff.c **** 				if (clst <= 1) ABORT(fp->fs, FR_INT_ERR);
1794:../sd_card/fatfs/ff.c **** 				if (clst == 0xFFFFFFFF) ABORT(fp->fs, FR_DISK_ERR);
1795:../sd_card/fatfs/ff.c **** 				fp->curr_clust = clst;				/* Update current cluster */
1796:../sd_card/fatfs/ff.c **** 				fp->csect = 0;						/* Reset sector offset in the cluster */
1797:../sd_card/fatfs/ff.c **** 			}
1798:../sd_card/fatfs/ff.c **** 			sect = clust2sect(fp->fs, fp->curr_clust);	/* Get current sector */
1799:../sd_card/fatfs/ff.c **** 			if (!sect) ABORT(fp->fs, FR_INT_ERR);
1800:../sd_card/fatfs/ff.c **** 			sect += fp->csect;
1801:../sd_card/fatfs/ff.c **** 			cc = btr / SS(fp->fs);					/* When remaining bytes >= sector size, */
1802:../sd_card/fatfs/ff.c **** 			if (cc) {								/* Read maximum contiguous sectors directly */
1803:../sd_card/fatfs/ff.c **** 				if (fp->csect + cc > fp->fs->csize)	/* Clip at cluster boundary */
1804:../sd_card/fatfs/ff.c **** 					cc = fp->fs->csize - fp->csect;
1805:../sd_card/fatfs/ff.c **** 				if (disk_read(fp->fs->drive, rbuff, sect, (BYTE)cc) != RES_OK)
1806:../sd_card/fatfs/ff.c **** 					ABORT(fp->fs, FR_DISK_ERR);
1807:../sd_card/fatfs/ff.c **** #if !_FS_READONLY && _FS_MINIMIZE <= 2
1808:../sd_card/fatfs/ff.c **** #if _FS_TINY
1809:../sd_card/fatfs/ff.c **** 				if (fp->fs->wflag && fp->fs->winsect - sect < cc)		/* Replace one of the read sectors with cach
1810:../sd_card/fatfs/ff.c **** 					mem_cpy(rbuff + ((fp->fs->winsect - sect) * SS(fp->fs)), fp->fs->win, SS(fp->fs));
1811:../sd_card/fatfs/ff.c **** #else
1812:../sd_card/fatfs/ff.c **** 				if ((fp->flag & FA__DIRTY) && fp->dsect - sect < cc)	/* Replace one of the read sectors with ca
1813:../sd_card/fatfs/ff.c **** 					mem_cpy(rbuff + ((fp->dsect - sect) * SS(fp->fs)), fp->buf, SS(fp->fs));
1814:../sd_card/fatfs/ff.c **** #endif
1815:../sd_card/fatfs/ff.c **** #endif
1816:../sd_card/fatfs/ff.c **** 				fp->csect += (BYTE)cc;				/* Next sector address in the cluster */
1817:../sd_card/fatfs/ff.c **** 				rcnt = SS(fp->fs) * cc;				/* Number of bytes transferred */
1818:../sd_card/fatfs/ff.c **** 				continue;
1819:../sd_card/fatfs/ff.c **** 			}
1820:../sd_card/fatfs/ff.c **** #if !_FS_TINY
1821:../sd_card/fatfs/ff.c **** #if !_FS_READONLY
1822:../sd_card/fatfs/ff.c **** 			if (fp->flag & FA__DIRTY) {			/* Write sector I/O buffer if needed */
1823:../sd_card/fatfs/ff.c **** 				if (disk_write(fp->fs->drive, fp->buf, fp->dsect, 1) != RES_OK)
1824:../sd_card/fatfs/ff.c **** 					ABORT(fp->fs, FR_DISK_ERR);
1825:../sd_card/fatfs/ff.c **** 				fp->flag &= ~FA__DIRTY;
1826:../sd_card/fatfs/ff.c **** 			}
1827:../sd_card/fatfs/ff.c **** #endif
1828:../sd_card/fatfs/ff.c **** 			if (fp->dsect != sect) {			/* Fill sector buffer with file data */
1829:../sd_card/fatfs/ff.c **** 				if (disk_read(fp->fs->drive, fp->buf, sect, 1) != RES_OK)
1830:../sd_card/fatfs/ff.c **** 					ABORT(fp->fs, FR_DISK_ERR);
1831:../sd_card/fatfs/ff.c **** 			}
1832:../sd_card/fatfs/ff.c **** #endif
1833:../sd_card/fatfs/ff.c **** 			fp->dsect = sect;
1834:../sd_card/fatfs/ff.c **** 			fp->csect++;							/* Next sector address in the cluster */
1835:../sd_card/fatfs/ff.c **** 		}
1836:../sd_card/fatfs/ff.c **** 		rcnt = SS(fp->fs) - (fp->fptr % SS(fp->fs));	/* Get partial sector data from sector buffer */
1837:../sd_card/fatfs/ff.c **** 		if (rcnt > btr) rcnt = btr;
1838:../sd_card/fatfs/ff.c **** #if _FS_TINY
1839:../sd_card/fatfs/ff.c **** 		if (move_window(fp->fs, fp->dsect))			/* Move sector window */
1840:../sd_card/fatfs/ff.c **** 			ABORT(fp->fs, FR_DISK_ERR);
1841:../sd_card/fatfs/ff.c **** 		mem_cpy(rbuff, &fp->fs->win[fp->fptr % SS(fp->fs)], rcnt);	/* Pick partial sector */
1842:../sd_card/fatfs/ff.c **** #else
1843:../sd_card/fatfs/ff.c **** 		mem_cpy(rbuff, &fp->buf[fp->fptr % SS(fp->fs)], rcnt);	/* Pick partial sector */
1844:../sd_card/fatfs/ff.c **** #endif
1845:../sd_card/fatfs/ff.c **** 	}
1846:../sd_card/fatfs/ff.c **** 
1847:../sd_card/fatfs/ff.c **** 	LEAVE_FF(fp->fs, FR_OK);
1848:../sd_card/fatfs/ff.c **** }
1849:../sd_card/fatfs/ff.c **** 
1850:../sd_card/fatfs/ff.c **** 
1851:../sd_card/fatfs/ff.c **** 
1852:../sd_card/fatfs/ff.c **** 
1853:../sd_card/fatfs/ff.c **** #if !_FS_READONLY
1854:../sd_card/fatfs/ff.c **** /*-----------------------------------------------------------------------*/
1855:../sd_card/fatfs/ff.c **** /* Write File                                                            */
1856:../sd_card/fatfs/ff.c **** /*-----------------------------------------------------------------------*/
1857:../sd_card/fatfs/ff.c **** 
1858:../sd_card/fatfs/ff.c **** FRESULT f_write (
1859:../sd_card/fatfs/ff.c **** 	FIL *fp,			/* Pointer to the file object */
1860:../sd_card/fatfs/ff.c **** 	const void *buff,	/* Pointer to the data to be written */
1861:../sd_card/fatfs/ff.c **** 	UINT btw,			/* Number of bytes to write */
1862:../sd_card/fatfs/ff.c **** 	UINT *bw			/* Pointer to number of bytes written */
1863:../sd_card/fatfs/ff.c **** )
1864:../sd_card/fatfs/ff.c **** {
1865:../sd_card/fatfs/ff.c **** 	FRESULT res;
1866:../sd_card/fatfs/ff.c **** 	DWORD clst, sect;
1867:../sd_card/fatfs/ff.c **** 	UINT wcnt, cc;
1868:../sd_card/fatfs/ff.c **** 	const BYTE *wbuff = buff;
1869:../sd_card/fatfs/ff.c **** 
1870:../sd_card/fatfs/ff.c **** 
1871:../sd_card/fatfs/ff.c **** 	*bw = 0;	/* Initialize bytes written */
1872:../sd_card/fatfs/ff.c **** 
1873:../sd_card/fatfs/ff.c **** 	res = validate(fp->fs, fp->id);					/* Check validity of the object */
1874:../sd_card/fatfs/ff.c **** 	if (res != FR_OK) LEAVE_FF(fp->fs, res);
1875:../sd_card/fatfs/ff.c **** 	if (fp->flag & FA__ERROR)						/* Check abort flag */
1876:../sd_card/fatfs/ff.c **** 		LEAVE_FF(fp->fs, FR_INT_ERR);
1877:../sd_card/fatfs/ff.c **** 	if (!(fp->flag & FA_WRITE))						/* Check access mode */
1878:../sd_card/fatfs/ff.c **** 		LEAVE_FF(fp->fs, FR_DENIED);
1879:../sd_card/fatfs/ff.c **** 	if (fp->fsize + btw < fp->fsize) btw = 0;		/* File size cannot reach 4GB */
1880:../sd_card/fatfs/ff.c **** 
1881:../sd_card/fatfs/ff.c **** 	for ( ;  btw;									/* Repeat until all data transferred */
1882:../sd_card/fatfs/ff.c **** 		wbuff += wcnt, fp->fptr += wcnt, *bw += wcnt, btw -= wcnt) {
1883:../sd_card/fatfs/ff.c **** 		if ((fp->fptr % SS(fp->fs)) == 0) {			/* On the sector boundary? */
1884:../sd_card/fatfs/ff.c **** 			if (fp->csect >= fp->fs->csize) {		/* On the cluster boundary? */
1885:../sd_card/fatfs/ff.c **** 				if (fp->fptr == 0) {				/* On the top of the file? */
1886:../sd_card/fatfs/ff.c **** 					clst = fp->org_clust;			/* Follow from the origin */
1887:../sd_card/fatfs/ff.c **** 					if (clst == 0)					/* When there is no cluster chain, */
1888:../sd_card/fatfs/ff.c **** 						fp->org_clust = clst = create_chain(fp->fs, 0);	/* Create a new cluster chain */
1889:../sd_card/fatfs/ff.c **** 				} else {							/* Middle or end of the file */
1890:../sd_card/fatfs/ff.c **** 					clst = create_chain(fp->fs, fp->curr_clust);			/* Follow or stretch cluster chain */
1891:../sd_card/fatfs/ff.c **** 				}
1892:../sd_card/fatfs/ff.c **** 				if (clst == 0) break;				/* Could not allocate a new cluster (disk full) */
1893:../sd_card/fatfs/ff.c **** 				if (clst == 1) ABORT(fp->fs, FR_INT_ERR);
1894:../sd_card/fatfs/ff.c **** 				if (clst == 0xFFFFFFFF) ABORT(fp->fs, FR_DISK_ERR);
1895:../sd_card/fatfs/ff.c **** 				fp->curr_clust = clst;				/* Update current cluster */
1896:../sd_card/fatfs/ff.c **** 				fp->csect = 0;						/* Reset sector address in the cluster */
1897:../sd_card/fatfs/ff.c **** 			}
1898:../sd_card/fatfs/ff.c **** #if _FS_TINY
1899:../sd_card/fatfs/ff.c **** 			if (fp->fs->winsect == fp->dsect && move_window(fp->fs, 0))	/* Write back data buffer prior to f
1900:../sd_card/fatfs/ff.c **** 				ABORT(fp->fs, FR_DISK_ERR);
1901:../sd_card/fatfs/ff.c **** #else
1902:../sd_card/fatfs/ff.c **** 			if (fp->flag & FA__DIRTY) {		/* Write back data buffer prior to following direct transfer */
1903:../sd_card/fatfs/ff.c **** 				if (disk_write(fp->fs->drive, fp->buf, fp->dsect, 1) != RES_OK)
1904:../sd_card/fatfs/ff.c **** 					ABORT(fp->fs, FR_DISK_ERR);
1905:../sd_card/fatfs/ff.c **** 				fp->flag &= ~FA__DIRTY;
1906:../sd_card/fatfs/ff.c **** 			}
1907:../sd_card/fatfs/ff.c **** #endif
1908:../sd_card/fatfs/ff.c **** 			sect = clust2sect(fp->fs, fp->curr_clust);	/* Get current sector */
1909:../sd_card/fatfs/ff.c **** 			if (!sect) ABORT(fp->fs, FR_INT_ERR);
1910:../sd_card/fatfs/ff.c **** 			sect += fp->csect;
1911:../sd_card/fatfs/ff.c **** 			cc = btw / SS(fp->fs);					/* When remaining bytes >= sector size, */
1912:../sd_card/fatfs/ff.c **** 			if (cc) {								/* Write maximum contiguous sectors directly */
1913:../sd_card/fatfs/ff.c **** 				if (fp->csect + cc > fp->fs->csize)	/* Clip at cluster boundary */
1914:../sd_card/fatfs/ff.c **** 					cc = fp->fs->csize - fp->csect;
1915:../sd_card/fatfs/ff.c **** 				if (disk_write(fp->fs->drive, wbuff, sect, (BYTE)cc) != RES_OK)
1916:../sd_card/fatfs/ff.c **** 					ABORT(fp->fs, FR_DISK_ERR);
1917:../sd_card/fatfs/ff.c **** #if _FS_TINY
1918:../sd_card/fatfs/ff.c **** 				if (fp->fs->winsect - sect < cc) {	/* Refill sector cache if it gets dirty by the direct write 
1919:../sd_card/fatfs/ff.c **** 					mem_cpy(fp->fs->win, wbuff + ((fp->fs->winsect - sect) * SS(fp->fs)), SS(fp->fs));
1920:../sd_card/fatfs/ff.c **** 					fp->fs->wflag = 0;
1921:../sd_card/fatfs/ff.c **** 				}
1922:../sd_card/fatfs/ff.c **** #else
1923:../sd_card/fatfs/ff.c **** 				if (fp->dsect - sect < cc) {		/* Refill sector cache if it gets dirty by the direct write */
1924:../sd_card/fatfs/ff.c **** 					mem_cpy(fp->buf, wbuff + ((fp->dsect - sect) * SS(fp->fs)), SS(fp->fs));
1925:../sd_card/fatfs/ff.c **** 					fp->flag &= ~FA__DIRTY;
1926:../sd_card/fatfs/ff.c **** 				}
1927:../sd_card/fatfs/ff.c **** #endif
1928:../sd_card/fatfs/ff.c **** 				fp->csect += (BYTE)cc;				/* Next sector address in the cluster */
1929:../sd_card/fatfs/ff.c **** 				wcnt = SS(fp->fs) * cc;				/* Number of bytes transferred */
1930:../sd_card/fatfs/ff.c **** 				continue;
1931:../sd_card/fatfs/ff.c **** 			}
1932:../sd_card/fatfs/ff.c **** #if _FS_TINY
1933:../sd_card/fatfs/ff.c **** 			if (fp->fptr >= fp->fsize) {			/* Avoid silly buffer filling at growing edge */
1934:../sd_card/fatfs/ff.c **** 				if (move_window(fp->fs, 0)) ABORT(fp->fs, FR_DISK_ERR);
1935:../sd_card/fatfs/ff.c **** 				fp->fs->winsect = sect;
1936:../sd_card/fatfs/ff.c **** 			}
1937:../sd_card/fatfs/ff.c **** #else
1938:../sd_card/fatfs/ff.c **** 			if (fp->dsect != sect) {				/* Fill sector buffer with file data */
1939:../sd_card/fatfs/ff.c **** 				if (fp->fptr < fp->fsize &&
1940:../sd_card/fatfs/ff.c **** 					disk_read(fp->fs->drive, fp->buf, sect, 1) != RES_OK)
1941:../sd_card/fatfs/ff.c **** 						ABORT(fp->fs, FR_DISK_ERR);
1942:../sd_card/fatfs/ff.c **** 			}
1943:../sd_card/fatfs/ff.c **** #endif
1944:../sd_card/fatfs/ff.c **** 			fp->dsect = sect;
1945:../sd_card/fatfs/ff.c **** 			fp->csect++;							/* Next sector address in the cluster */
1946:../sd_card/fatfs/ff.c **** 		}
1947:../sd_card/fatfs/ff.c **** 		wcnt = SS(fp->fs) - (fp->fptr % SS(fp->fs));	/* Put partial sector into file I/O buffer */
1948:../sd_card/fatfs/ff.c **** 		if (wcnt > btw) wcnt = btw;
1949:../sd_card/fatfs/ff.c **** #if _FS_TINY
1950:../sd_card/fatfs/ff.c **** 		if (move_window(fp->fs, fp->dsect))			/* Move sector window */
1951:../sd_card/fatfs/ff.c **** 			ABORT(fp->fs, FR_DISK_ERR);
1952:../sd_card/fatfs/ff.c **** 		mem_cpy(&fp->fs->win[fp->fptr % SS(fp->fs)], wbuff, wcnt);	/* Fit partial sector */
1953:../sd_card/fatfs/ff.c **** 		fp->fs->wflag = 1;
1954:../sd_card/fatfs/ff.c **** #else
1955:../sd_card/fatfs/ff.c **** 		mem_cpy(&fp->buf[fp->fptr % SS(fp->fs)], wbuff, wcnt);	/* Fit partial sector */
1956:../sd_card/fatfs/ff.c **** 		fp->flag |= FA__DIRTY;
1957:../sd_card/fatfs/ff.c **** #endif
1958:../sd_card/fatfs/ff.c **** 	}
1959:../sd_card/fatfs/ff.c **** 
1960:../sd_card/fatfs/ff.c **** 	if (fp->fptr > fp->fsize) fp->fsize = fp->fptr;	/* Update file size if needed */
1961:../sd_card/fatfs/ff.c **** 	fp->flag |= FA__WRITTEN;						/* Set file changed flag */
1962:../sd_card/fatfs/ff.c **** 
1963:../sd_card/fatfs/ff.c **** 	LEAVE_FF(fp->fs, FR_OK);
1964:../sd_card/fatfs/ff.c **** }
1965:../sd_card/fatfs/ff.c **** 
1966:../sd_card/fatfs/ff.c **** 
1967:../sd_card/fatfs/ff.c **** 
1968:../sd_card/fatfs/ff.c **** 
1969:../sd_card/fatfs/ff.c **** /*-----------------------------------------------------------------------*/
1970:../sd_card/fatfs/ff.c **** /* Synchronize the File Object                                           */
1971:../sd_card/fatfs/ff.c **** /*-----------------------------------------------------------------------*/
1972:../sd_card/fatfs/ff.c **** 
1973:../sd_card/fatfs/ff.c **** FRESULT f_sync (
1974:../sd_card/fatfs/ff.c **** 	FIL *fp		/* Pointer to the file object */
1975:../sd_card/fatfs/ff.c **** )
1976:../sd_card/fatfs/ff.c **** {
1977:../sd_card/fatfs/ff.c **** 	FRESULT res;
1978:../sd_card/fatfs/ff.c **** 	DWORD tim;
1979:../sd_card/fatfs/ff.c **** 	BYTE *dir;
1980:../sd_card/fatfs/ff.c **** 
1981:../sd_card/fatfs/ff.c **** 
1982:../sd_card/fatfs/ff.c **** 	res = validate(fp->fs, fp->id);		/* Check validity of the object */
1983:../sd_card/fatfs/ff.c **** 	if (res == FR_OK) {
1984:../sd_card/fatfs/ff.c **** 		if (fp->flag & FA__WRITTEN) {	/* Has the file been written? */
1985:../sd_card/fatfs/ff.c **** #if !_FS_TINY	/* Write-back dirty buffer */
1986:../sd_card/fatfs/ff.c **** 			if (fp->flag & FA__DIRTY) {
1987:../sd_card/fatfs/ff.c **** 				if (disk_write(fp->fs->drive, fp->buf, fp->dsect, 1) != RES_OK)
1988:../sd_card/fatfs/ff.c **** 					LEAVE_FF(fp->fs, FR_DISK_ERR);
1989:../sd_card/fatfs/ff.c **** 				fp->flag &= ~FA__DIRTY;
1990:../sd_card/fatfs/ff.c **** 			}
1991:../sd_card/fatfs/ff.c **** #endif
1992:../sd_card/fatfs/ff.c **** 			/* Update the directory entry */
1993:../sd_card/fatfs/ff.c **** 			res = move_window(fp->fs, fp->dir_sect);
1994:../sd_card/fatfs/ff.c **** 			if (res == FR_OK) {
1995:../sd_card/fatfs/ff.c **** 				dir = fp->dir_ptr;
1996:../sd_card/fatfs/ff.c **** 				dir[DIR_Attr] |= AM_ARC;					/* Set archive bit */
1997:../sd_card/fatfs/ff.c **** 				ST_DWORD(dir+DIR_FileSize, fp->fsize);		/* Update file size */
1998:../sd_card/fatfs/ff.c **** 				ST_WORD(dir+DIR_FstClusLO, fp->org_clust);	/* Update start cluster */
1999:../sd_card/fatfs/ff.c **** 				ST_WORD(dir+DIR_FstClusHI, fp->org_clust >> 16);
2000:../sd_card/fatfs/ff.c **** 				tim = get_fattime();			/* Updated time */
2001:../sd_card/fatfs/ff.c **** 				ST_DWORD(dir+DIR_WrtTime, tim);
2002:../sd_card/fatfs/ff.c **** 				fp->flag &= ~FA__WRITTEN;
2003:../sd_card/fatfs/ff.c **** 				fp->fs->wflag = 1;
2004:../sd_card/fatfs/ff.c **** 				res = sync(fp->fs);
2005:../sd_card/fatfs/ff.c **** 			}
2006:../sd_card/fatfs/ff.c **** 		}
2007:../sd_card/fatfs/ff.c **** 	}
2008:../sd_card/fatfs/ff.c **** 
2009:../sd_card/fatfs/ff.c **** 	LEAVE_FF(fp->fs, res);
2010:../sd_card/fatfs/ff.c **** }
2011:../sd_card/fatfs/ff.c **** 
2012:../sd_card/fatfs/ff.c **** #endif /* !_FS_READONLY */
2013:../sd_card/fatfs/ff.c **** 
2014:../sd_card/fatfs/ff.c **** 
2015:../sd_card/fatfs/ff.c **** 
2016:../sd_card/fatfs/ff.c **** 
2017:../sd_card/fatfs/ff.c **** /*-----------------------------------------------------------------------*/
2018:../sd_card/fatfs/ff.c **** /* Close File                                                            */
2019:../sd_card/fatfs/ff.c **** /*-----------------------------------------------------------------------*/
2020:../sd_card/fatfs/ff.c **** 
2021:../sd_card/fatfs/ff.c **** FRESULT f_close (
2022:../sd_card/fatfs/ff.c **** 	FIL *fp		/* Pointer to the file object to be closed */
2023:../sd_card/fatfs/ff.c **** )
2024:../sd_card/fatfs/ff.c **** {
2025:../sd_card/fatfs/ff.c **** 	FRESULT res;
2026:../sd_card/fatfs/ff.c **** 
2027:../sd_card/fatfs/ff.c **** 
2028:../sd_card/fatfs/ff.c **** #if _FS_READONLY
2029:../sd_card/fatfs/ff.c ****     FATFS *fs = fp->fs; /* Patch for FatFs R0.07e Jan 15, 2010 */
2030:../sd_card/fatfs/ff.c **** 	res = validate(fp->fs, fp->id);
2031:../sd_card/fatfs/ff.c **** 	if (res == FR_OK) fp->fs = NULL;
2032:../sd_card/fatfs/ff.c **** 	/* Patch(ed out): LEAVE_FF(fp->fs, res); */
2033:../sd_card/fatfs/ff.c **** 	LEAVE_FF(fs, res); /* Patch for FatFs R0.07e Jan 15, 2010 */
2034:../sd_card/fatfs/ff.c **** #else
2035:../sd_card/fatfs/ff.c **** 	res = f_sync(fp);
2036:../sd_card/fatfs/ff.c **** 	if (res == FR_OK) fp->fs = NULL;
2037:../sd_card/fatfs/ff.c **** 	return res;
2038:../sd_card/fatfs/ff.c **** #endif
2039:../sd_card/fatfs/ff.c **** }
2040:../sd_card/fatfs/ff.c **** 
2041:../sd_card/fatfs/ff.c **** 
2042:../sd_card/fatfs/ff.c **** 
2043:../sd_card/fatfs/ff.c **** 
2044:../sd_card/fatfs/ff.c **** /*-----------------------------------------------------------------------*/
2045:../sd_card/fatfs/ff.c **** /* Change Current Drive/Directory                                        */
2046:../sd_card/fatfs/ff.c **** /*-----------------------------------------------------------------------*/
2047:../sd_card/fatfs/ff.c **** 
2048:../sd_card/fatfs/ff.c **** #if _FS_RPATH
2049:../sd_card/fatfs/ff.c **** 
2050:../sd_card/fatfs/ff.c **** FRESULT f_chdrive (
2051:../sd_card/fatfs/ff.c **** 	BYTE drv		/* Drive number */
2052:../sd_card/fatfs/ff.c **** )
2053:../sd_card/fatfs/ff.c **** {
2054:../sd_card/fatfs/ff.c **** 	if (drv >= _DRIVES) return FR_INVALID_DRIVE;
2055:../sd_card/fatfs/ff.c **** 
2056:../sd_card/fatfs/ff.c **** 	Drive = drv;
2057:../sd_card/fatfs/ff.c **** 
2058:../sd_card/fatfs/ff.c **** 	return FR_OK;
2059:../sd_card/fatfs/ff.c **** }
2060:../sd_card/fatfs/ff.c **** 
2061:../sd_card/fatfs/ff.c **** 
2062:../sd_card/fatfs/ff.c **** 
2063:../sd_card/fatfs/ff.c **** 
2064:../sd_card/fatfs/ff.c **** FRESULT f_chdir (
2065:../sd_card/fatfs/ff.c **** 	const XCHAR *path	/* Pointer to the directory path */
2066:../sd_card/fatfs/ff.c **** )
2067:../sd_card/fatfs/ff.c **** {
2068:../sd_card/fatfs/ff.c **** 	FRESULT res;
2069:../sd_card/fatfs/ff.c **** 	DIR dj;
2070:../sd_card/fatfs/ff.c **** 	NAMEBUF(sfn, lfn);
2071:../sd_card/fatfs/ff.c **** 	BYTE *dir;
2072:../sd_card/fatfs/ff.c **** 
2073:../sd_card/fatfs/ff.c **** 
2074:../sd_card/fatfs/ff.c **** 	res = chk_mounted(&path, &dj.fs, 0);
2075:../sd_card/fatfs/ff.c **** 	if (res == FR_OK) {
2076:../sd_card/fatfs/ff.c **** 		INITBUF(dj, sfn, lfn);
2077:../sd_card/fatfs/ff.c **** 		res = follow_path(&dj, path);		/* Follow the file path */
2078:../sd_card/fatfs/ff.c **** 		if (res == FR_OK) {					/* Follow completed */
2079:../sd_card/fatfs/ff.c **** 			dir = dj.dir;					/* Pointer to the entry */
2080:../sd_card/fatfs/ff.c **** 			if (!dir) {
2081:../sd_card/fatfs/ff.c **** 				dj.fs->cdir = 0;			/* No entry (root dir) */
2082:../sd_card/fatfs/ff.c **** 			} else {
2083:../sd_card/fatfs/ff.c **** 				if (dir[DIR_Attr] & AM_DIR)	/* Reached to the dir */
2084:../sd_card/fatfs/ff.c **** 					dj.fs->cdir = ((DWORD)LD_WORD(dir+DIR_FstClusHI) << 16) | LD_WORD(dir+DIR_FstClusLO);
2085:../sd_card/fatfs/ff.c **** 				else
2086:../sd_card/fatfs/ff.c **** 					res = FR_NO_PATH;		/* Could not reach the dir (it is a file) */
2087:../sd_card/fatfs/ff.c **** 			}
2088:../sd_card/fatfs/ff.c **** 		}
2089:../sd_card/fatfs/ff.c **** 		if (res == FR_NO_FILE) res = FR_NO_PATH;
2090:../sd_card/fatfs/ff.c **** 	}
2091:../sd_card/fatfs/ff.c **** 
2092:../sd_card/fatfs/ff.c **** 	LEAVE_FF(dj.fs, res);
2093:../sd_card/fatfs/ff.c **** }
2094:../sd_card/fatfs/ff.c **** 
2095:../sd_card/fatfs/ff.c **** #endif
2096:../sd_card/fatfs/ff.c **** 
2097:../sd_card/fatfs/ff.c **** 
2098:../sd_card/fatfs/ff.c **** 
2099:../sd_card/fatfs/ff.c **** #if _FS_MINIMIZE <= 2
2100:../sd_card/fatfs/ff.c **** /*-----------------------------------------------------------------------*/
2101:../sd_card/fatfs/ff.c **** /* Seek File R/W Pointer                                                 */
2102:../sd_card/fatfs/ff.c **** /*-----------------------------------------------------------------------*/
2103:../sd_card/fatfs/ff.c **** 
2104:../sd_card/fatfs/ff.c **** FRESULT f_lseek (
2105:../sd_card/fatfs/ff.c **** 	FIL *fp,		/* Pointer to the file object */
2106:../sd_card/fatfs/ff.c **** 	DWORD ofs		/* File pointer from top of file */
2107:../sd_card/fatfs/ff.c **** )
2108:../sd_card/fatfs/ff.c **** {
2109:../sd_card/fatfs/ff.c **** 	FRESULT res;
2110:../sd_card/fatfs/ff.c **** 	DWORD clst, bcs, nsect, ifptr;
2111:../sd_card/fatfs/ff.c **** 
2112:../sd_card/fatfs/ff.c **** 
2113:../sd_card/fatfs/ff.c **** 	res = validate(fp->fs, fp->id);		/* Check validity of the object */
2114:../sd_card/fatfs/ff.c **** 	if (res != FR_OK) LEAVE_FF(fp->fs, res);
2115:../sd_card/fatfs/ff.c **** 	if (fp->flag & FA__ERROR)			/* Check abort flag */
2116:../sd_card/fatfs/ff.c **** 		LEAVE_FF(fp->fs, FR_INT_ERR);
2117:../sd_card/fatfs/ff.c **** 	if (ofs > fp->fsize					/* In read-only mode, clip offset with the file size */
2118:../sd_card/fatfs/ff.c **** #if !_FS_READONLY
2119:../sd_card/fatfs/ff.c **** 		 && !(fp->flag & FA_WRITE)
2120:../sd_card/fatfs/ff.c **** #endif
2121:../sd_card/fatfs/ff.c **** 		) ofs = fp->fsize;
2122:../sd_card/fatfs/ff.c **** 
2123:../sd_card/fatfs/ff.c **** 	ifptr = fp->fptr;
2124:../sd_card/fatfs/ff.c **** 	fp->fptr = nsect = 0; fp->csect = 255;
2125:../sd_card/fatfs/ff.c **** 	if (ofs > 0) {
2126:../sd_card/fatfs/ff.c **** 		bcs = (DWORD)fp->fs->csize * SS(fp->fs);	/* Cluster size (byte) */
2127:../sd_card/fatfs/ff.c **** 		if (ifptr > 0 &&
2128:../sd_card/fatfs/ff.c **** 			(ofs - 1) / bcs >= (ifptr - 1) / bcs) {	/* When seek to same or following cluster, */
2129:../sd_card/fatfs/ff.c **** 			fp->fptr = (ifptr - 1) & ~(bcs - 1);	/* start from the current cluster */
2130:../sd_card/fatfs/ff.c **** 			ofs -= fp->fptr;
2131:../sd_card/fatfs/ff.c **** 			clst = fp->curr_clust;
2132:../sd_card/fatfs/ff.c **** 		} else {									/* When seek to back cluster, */
2133:../sd_card/fatfs/ff.c **** 			clst = fp->org_clust;					/* start from the first cluster */
2134:../sd_card/fatfs/ff.c **** #if !_FS_READONLY
2135:../sd_card/fatfs/ff.c **** 			if (clst == 0) {						/* If no cluster chain, create a new chain */
2136:../sd_card/fatfs/ff.c **** 				clst = create_chain(fp->fs, 0);
2137:../sd_card/fatfs/ff.c **** 				if (clst == 1) ABORT(fp->fs, FR_INT_ERR);
2138:../sd_card/fatfs/ff.c **** 				if (clst == 0xFFFFFFFF) ABORT(fp->fs, FR_DISK_ERR);
2139:../sd_card/fatfs/ff.c **** 				fp->org_clust = clst;
2140:../sd_card/fatfs/ff.c **** 			}
2141:../sd_card/fatfs/ff.c **** #endif
2142:../sd_card/fatfs/ff.c **** 			fp->curr_clust = clst;
2143:../sd_card/fatfs/ff.c **** 		}
2144:../sd_card/fatfs/ff.c **** 		if (clst != 0) {
2145:../sd_card/fatfs/ff.c **** 			while (ofs > bcs) {						/* Cluster following loop */
2146:../sd_card/fatfs/ff.c **** #if !_FS_READONLY
2147:../sd_card/fatfs/ff.c **** 				if (fp->flag & FA_WRITE) {			/* Check if in write mode or not */
2148:../sd_card/fatfs/ff.c **** 					clst = create_chain(fp->fs, clst);	/* Force stretch if in write mode */
2149:../sd_card/fatfs/ff.c **** 					if (clst == 0) {				/* When disk gets full, clip file size */
2150:../sd_card/fatfs/ff.c **** 						ofs = bcs; break;
2151:../sd_card/fatfs/ff.c **** 					}
2152:../sd_card/fatfs/ff.c **** 				} else
2153:../sd_card/fatfs/ff.c **** #endif
2154:../sd_card/fatfs/ff.c **** 					clst = get_fat(fp->fs, clst);	/* Follow cluster chain if not in write mode */
2155:../sd_card/fatfs/ff.c **** 				if (clst == 0xFFFFFFFF) ABORT(fp->fs, FR_DISK_ERR);
2156:../sd_card/fatfs/ff.c **** 				if (clst <= 1 || clst >= fp->fs->max_clust) ABORT(fp->fs, FR_INT_ERR);
2157:../sd_card/fatfs/ff.c **** 				fp->curr_clust = clst;
2158:../sd_card/fatfs/ff.c **** 				fp->fptr += bcs;
2159:../sd_card/fatfs/ff.c **** 				ofs -= bcs;
2160:../sd_card/fatfs/ff.c **** 			}
2161:../sd_card/fatfs/ff.c **** 			fp->fptr += ofs;
2162:../sd_card/fatfs/ff.c **** 			fp->csect = (BYTE)(ofs / SS(fp->fs));	/* Sector offset in the cluster */
2163:../sd_card/fatfs/ff.c **** 			if (ofs % SS(fp->fs)) {
2164:../sd_card/fatfs/ff.c **** 				nsect = clust2sect(fp->fs, clst);	/* Current sector */
2165:../sd_card/fatfs/ff.c **** 				if (!nsect) ABORT(fp->fs, FR_INT_ERR);
2166:../sd_card/fatfs/ff.c **** 				nsect += fp->csect;
2167:../sd_card/fatfs/ff.c **** 				fp->csect++;
2168:../sd_card/fatfs/ff.c **** 			}
2169:../sd_card/fatfs/ff.c **** 		}
2170:../sd_card/fatfs/ff.c **** 	}
2171:../sd_card/fatfs/ff.c **** 	if (fp->fptr % SS(fp->fs) && nsect != fp->dsect) {
2172:../sd_card/fatfs/ff.c **** #if !_FS_TINY
2173:../sd_card/fatfs/ff.c **** #if !_FS_READONLY
2174:../sd_card/fatfs/ff.c **** 		if (fp->flag & FA__DIRTY) {			/* Write-back dirty buffer if needed */
2175:../sd_card/fatfs/ff.c **** 			if (disk_write(fp->fs->drive, fp->buf, fp->dsect, 1) != RES_OK)
2176:../sd_card/fatfs/ff.c **** 				ABORT(fp->fs, FR_DISK_ERR);
2177:../sd_card/fatfs/ff.c **** 			fp->flag &= ~FA__DIRTY;
2178:../sd_card/fatfs/ff.c **** 		}
2179:../sd_card/fatfs/ff.c **** #endif
2180:../sd_card/fatfs/ff.c **** 		if (disk_read(fp->fs->drive, fp->buf, nsect, 1) != RES_OK)
2181:../sd_card/fatfs/ff.c **** 			ABORT(fp->fs, FR_DISK_ERR);
2182:../sd_card/fatfs/ff.c **** #endif
2183:../sd_card/fatfs/ff.c **** 		fp->dsect = nsect;
2184:../sd_card/fatfs/ff.c **** 	}
2185:../sd_card/fatfs/ff.c **** #if !_FS_READONLY
2186:../sd_card/fatfs/ff.c **** 	if (fp->fptr > fp->fsize) {			/* Set changed flag if the file size is extended */
2187:../sd_card/fatfs/ff.c **** 		fp->fsize = fp->fptr;
2188:../sd_card/fatfs/ff.c **** 		fp->flag |= FA__WRITTEN;
2189:../sd_card/fatfs/ff.c **** 	}
2190:../sd_card/fatfs/ff.c **** #endif
2191:../sd_card/fatfs/ff.c **** 
2192:../sd_card/fatfs/ff.c **** 	LEAVE_FF(fp->fs, res);
2193:../sd_card/fatfs/ff.c **** }
2194:../sd_card/fatfs/ff.c **** 
2195:../sd_card/fatfs/ff.c **** 
2196:../sd_card/fatfs/ff.c **** 
2197:../sd_card/fatfs/ff.c **** 
2198:../sd_card/fatfs/ff.c **** #if _FS_MINIMIZE <= 1
2199:../sd_card/fatfs/ff.c **** /*-----------------------------------------------------------------------*/
2200:../sd_card/fatfs/ff.c **** /* Create a Directroy Object                                             */
2201:../sd_card/fatfs/ff.c **** /*-----------------------------------------------------------------------*/
2202:../sd_card/fatfs/ff.c **** 
2203:../sd_card/fatfs/ff.c **** FRESULT f_opendir (
2204:../sd_card/fatfs/ff.c **** 	DIR *dj,			/* Pointer to directory object to create */
2205:../sd_card/fatfs/ff.c **** 	const XCHAR *path	/* Pointer to the directory path */
2206:../sd_card/fatfs/ff.c **** )
2207:../sd_card/fatfs/ff.c **** {
2208:../sd_card/fatfs/ff.c **** 	FRESULT res;
2209:../sd_card/fatfs/ff.c **** 	NAMEBUF(sfn, lfn);
2210:../sd_card/fatfs/ff.c **** 	BYTE *dir;
2211:../sd_card/fatfs/ff.c **** 
2212:../sd_card/fatfs/ff.c **** 
2213:../sd_card/fatfs/ff.c **** 	res = chk_mounted(&path, &dj->fs, 0);
2214:../sd_card/fatfs/ff.c **** 	if (res == FR_OK) {
2215:../sd_card/fatfs/ff.c **** 		INITBUF((*dj), sfn, lfn);
2216:../sd_card/fatfs/ff.c **** 		res = follow_path(dj, path);			/* Follow the path to the directory */
2217:../sd_card/fatfs/ff.c **** 		if (res == FR_OK) {						/* Follow completed */
2218:../sd_card/fatfs/ff.c **** 			dir = dj->dir;
2219:../sd_card/fatfs/ff.c **** 			if (dir) {							/* It is not the root dir */
2220:../sd_card/fatfs/ff.c **** 				if (dir[DIR_Attr] & AM_DIR) {	/* The object is a directory */
2221:../sd_card/fatfs/ff.c **** 					dj->sclust = ((DWORD)LD_WORD(dir+DIR_FstClusHI) << 16) | LD_WORD(dir+DIR_FstClusLO);
2222:../sd_card/fatfs/ff.c **** 				} else {						/* The object is not a directory */
2223:../sd_card/fatfs/ff.c **** 					res = FR_NO_PATH;
2224:../sd_card/fatfs/ff.c **** 				}
2225:../sd_card/fatfs/ff.c **** 			}
2226:../sd_card/fatfs/ff.c **** 			if (res == FR_OK) {
2227:../sd_card/fatfs/ff.c **** 				dj->id = dj->fs->id;
2228:../sd_card/fatfs/ff.c **** 				res = dir_seek(dj, 0);			/* Rewind dir */
2229:../sd_card/fatfs/ff.c **** 			}
2230:../sd_card/fatfs/ff.c **** 		}
2231:../sd_card/fatfs/ff.c **** 		if (res == FR_NO_FILE) res = FR_NO_PATH;
2232:../sd_card/fatfs/ff.c **** 	}
2233:../sd_card/fatfs/ff.c **** 
2234:../sd_card/fatfs/ff.c **** 	LEAVE_FF(dj->fs, res);
2235:../sd_card/fatfs/ff.c **** }
2236:../sd_card/fatfs/ff.c **** 
2237:../sd_card/fatfs/ff.c **** 
2238:../sd_card/fatfs/ff.c **** 
2239:../sd_card/fatfs/ff.c **** 
2240:../sd_card/fatfs/ff.c **** /*-----------------------------------------------------------------------*/
2241:../sd_card/fatfs/ff.c **** /* Read Directory Entry in Sequense                                      */
2242:../sd_card/fatfs/ff.c **** /*-----------------------------------------------------------------------*/
2243:../sd_card/fatfs/ff.c **** 
2244:../sd_card/fatfs/ff.c **** FRESULT f_readdir (
2245:../sd_card/fatfs/ff.c **** 	DIR *dj,			/* Pointer to the open directory object */
2246:../sd_card/fatfs/ff.c **** 	FILINFO *fno		/* Pointer to file information to return */
2247:../sd_card/fatfs/ff.c **** )
2248:../sd_card/fatfs/ff.c **** {
2249:../sd_card/fatfs/ff.c **** 	FRESULT res;
2250:../sd_card/fatfs/ff.c **** 	NAMEBUF(sfn, lfn);
2251:../sd_card/fatfs/ff.c **** 
2252:../sd_card/fatfs/ff.c **** 
2253:../sd_card/fatfs/ff.c **** 	res = validate(dj->fs, dj->id);			/* Check validity of the object */
2254:../sd_card/fatfs/ff.c **** 	if (res == FR_OK) {
2255:../sd_card/fatfs/ff.c **** 		INITBUF((*dj), sfn, lfn);
2256:../sd_card/fatfs/ff.c **** 		if (!fno) {
2257:../sd_card/fatfs/ff.c **** 			res = dir_seek(dj, 0);
2258:../sd_card/fatfs/ff.c **** 		} else {
2259:../sd_card/fatfs/ff.c **** 			res = dir_read(dj);
2260:../sd_card/fatfs/ff.c **** 			if (res == FR_NO_FILE) {
2261:../sd_card/fatfs/ff.c **** 				dj->sect = 0;
2262:../sd_card/fatfs/ff.c **** 				res = FR_OK;
2263:../sd_card/fatfs/ff.c **** 			}
2264:../sd_card/fatfs/ff.c **** 			if (res == FR_OK) {				/* A valid entry is found */
2265:../sd_card/fatfs/ff.c **** 				get_fileinfo(dj, fno);		/* Get the object information */
2266:../sd_card/fatfs/ff.c **** 				res = dir_next(dj, FALSE);	/* Increment index for next */
2267:../sd_card/fatfs/ff.c **** 				if (res == FR_NO_FILE) {
2268:../sd_card/fatfs/ff.c **** 					dj->sect = 0;
2269:../sd_card/fatfs/ff.c **** 					res = FR_OK;
2270:../sd_card/fatfs/ff.c **** 				}
2271:../sd_card/fatfs/ff.c **** 			}
2272:../sd_card/fatfs/ff.c **** 		}
2273:../sd_card/fatfs/ff.c **** 	}
2274:../sd_card/fatfs/ff.c **** 
2275:../sd_card/fatfs/ff.c **** 	LEAVE_FF(dj->fs, res);
2276:../sd_card/fatfs/ff.c **** }
2277:../sd_card/fatfs/ff.c **** 
2278:../sd_card/fatfs/ff.c **** 
2279:../sd_card/fatfs/ff.c **** 
2280:../sd_card/fatfs/ff.c **** #if _FS_MINIMIZE == 0
2281:../sd_card/fatfs/ff.c **** /*-----------------------------------------------------------------------*/
2282:../sd_card/fatfs/ff.c **** /* Get File Status                                                       */
2283:../sd_card/fatfs/ff.c **** /*-----------------------------------------------------------------------*/
2284:../sd_card/fatfs/ff.c **** 
2285:../sd_card/fatfs/ff.c **** FRESULT f_stat (
2286:../sd_card/fatfs/ff.c **** 	const XCHAR *path,	/* Pointer to the file path */
2287:../sd_card/fatfs/ff.c **** 	FILINFO *fno		/* Pointer to file information to return */
2288:../sd_card/fatfs/ff.c **** )
2289:../sd_card/fatfs/ff.c **** {
2290:../sd_card/fatfs/ff.c **** 	FRESULT res;
2291:../sd_card/fatfs/ff.c **** 	DIR dj;
2292:../sd_card/fatfs/ff.c **** 	NAMEBUF(sfn, lfn);
2293:../sd_card/fatfs/ff.c **** 
2294:../sd_card/fatfs/ff.c **** 
2295:../sd_card/fatfs/ff.c **** 	res = chk_mounted(&path, &dj.fs, 0);
2296:../sd_card/fatfs/ff.c **** 	if (res == FR_OK) {
2297:../sd_card/fatfs/ff.c **** 		INITBUF(dj, sfn, lfn);
2298:../sd_card/fatfs/ff.c **** 		res = follow_path(&dj, path);	/* Follow the file path */
2299:../sd_card/fatfs/ff.c **** 		if (res == FR_OK) {				/* Follow completed */
2300:../sd_card/fatfs/ff.c **** 			if (dj.dir)	/* Found an object */
2301:../sd_card/fatfs/ff.c **** 				get_fileinfo(&dj, fno);
2302:../sd_card/fatfs/ff.c **** 			else		/* It is root dir */
2303:../sd_card/fatfs/ff.c **** 				res = FR_INVALID_NAME;
2304:../sd_card/fatfs/ff.c **** 		}
2305:../sd_card/fatfs/ff.c **** 	}
2306:../sd_card/fatfs/ff.c **** 
2307:../sd_card/fatfs/ff.c **** 	LEAVE_FF(dj.fs, res);
2308:../sd_card/fatfs/ff.c **** }
2309:../sd_card/fatfs/ff.c **** 
2310:../sd_card/fatfs/ff.c **** 
2311:../sd_card/fatfs/ff.c **** 
2312:../sd_card/fatfs/ff.c **** #if !_FS_READONLY
2313:../sd_card/fatfs/ff.c **** /*-----------------------------------------------------------------------*/
2314:../sd_card/fatfs/ff.c **** /* Get Number of Free Clusters                                           */
2315:../sd_card/fatfs/ff.c **** /*-----------------------------------------------------------------------*/
2316:../sd_card/fatfs/ff.c **** 
2317:../sd_card/fatfs/ff.c **** FRESULT f_getfree (
2318:../sd_card/fatfs/ff.c **** 	const XCHAR *path,	/* Pointer to the logical drive number (root dir) */
2319:../sd_card/fatfs/ff.c **** 	DWORD *nclst,		/* Pointer to the variable to return number of free clusters */
2320:../sd_card/fatfs/ff.c **** 	FATFS **fatfs		/* Pointer to pointer to corresponding file system object to return */
2321:../sd_card/fatfs/ff.c **** )
2322:../sd_card/fatfs/ff.c **** {
2323:../sd_card/fatfs/ff.c **** 	FRESULT res;
2324:../sd_card/fatfs/ff.c **** 	DWORD n, clst, sect, stat;
2325:../sd_card/fatfs/ff.c **** 	UINT i;
2326:../sd_card/fatfs/ff.c **** 	BYTE fat, *p;
2327:../sd_card/fatfs/ff.c **** 
2328:../sd_card/fatfs/ff.c **** 
2329:../sd_card/fatfs/ff.c **** 	/* Get drive number */
2330:../sd_card/fatfs/ff.c **** 	res = chk_mounted(&path, fatfs, 0);
2331:../sd_card/fatfs/ff.c **** 	if (res != FR_OK) LEAVE_FF(*fatfs, res);
2332:../sd_card/fatfs/ff.c **** 
2333:../sd_card/fatfs/ff.c **** 	/* If number of free cluster is valid, return it without cluster scan. */
2334:../sd_card/fatfs/ff.c **** 	if ((*fatfs)->free_clust <= (*fatfs)->max_clust - 2) {
2335:../sd_card/fatfs/ff.c **** 		*nclst = (*fatfs)->free_clust;
2336:../sd_card/fatfs/ff.c **** 		LEAVE_FF(*fatfs, FR_OK);
2337:../sd_card/fatfs/ff.c **** 	}
2338:../sd_card/fatfs/ff.c **** 
2339:../sd_card/fatfs/ff.c **** 	/* Get number of free clusters */
2340:../sd_card/fatfs/ff.c **** 	fat = (*fatfs)->fs_type;
2341:../sd_card/fatfs/ff.c **** 	n = 0;
2342:../sd_card/fatfs/ff.c **** 	if (fat == FS_FAT12) {
2343:../sd_card/fatfs/ff.c **** 		clst = 2;
2344:../sd_card/fatfs/ff.c **** 		do {
2345:../sd_card/fatfs/ff.c **** 			stat = get_fat(*fatfs, clst);
2346:../sd_card/fatfs/ff.c **** 			if (stat == 0xFFFFFFFF) LEAVE_FF(*fatfs, FR_DISK_ERR);
2347:../sd_card/fatfs/ff.c **** 			if (stat == 1) LEAVE_FF(*fatfs, FR_INT_ERR);
2348:../sd_card/fatfs/ff.c **** 			if (stat == 0) n++;
2349:../sd_card/fatfs/ff.c **** 		} while (++clst < (*fatfs)->max_clust);
2350:../sd_card/fatfs/ff.c **** 	} else {
2351:../sd_card/fatfs/ff.c **** 		clst = (*fatfs)->max_clust;
2352:../sd_card/fatfs/ff.c **** 		sect = (*fatfs)->fatbase;
2353:../sd_card/fatfs/ff.c **** 		i = 0; p = 0;
2354:../sd_card/fatfs/ff.c **** 		do {
2355:../sd_card/fatfs/ff.c **** 			if (!i) {
2356:../sd_card/fatfs/ff.c **** 				res = move_window(*fatfs, sect++);
2357:../sd_card/fatfs/ff.c **** 				if (res != FR_OK)
2358:../sd_card/fatfs/ff.c **** 					LEAVE_FF(*fatfs, res);
2359:../sd_card/fatfs/ff.c **** 				p = (*fatfs)->win;
2360:../sd_card/fatfs/ff.c **** 				i = SS(*fatfs);
2361:../sd_card/fatfs/ff.c **** 			}
2362:../sd_card/fatfs/ff.c **** 			if (fat == FS_FAT16) {
2363:../sd_card/fatfs/ff.c **** 				if (LD_WORD(p) == 0) n++;
2364:../sd_card/fatfs/ff.c **** 				p += 2; i -= 2;
2365:../sd_card/fatfs/ff.c **** 			} else {
2366:../sd_card/fatfs/ff.c **** 				if ((LD_DWORD(p) & 0x0FFFFFFF) == 0) n++;
2367:../sd_card/fatfs/ff.c **** 				p += 4; i -= 4;
2368:../sd_card/fatfs/ff.c **** 			}
2369:../sd_card/fatfs/ff.c **** 		} while (--clst);
2370:../sd_card/fatfs/ff.c **** 	}
2371:../sd_card/fatfs/ff.c **** 	(*fatfs)->free_clust = n;
2372:../sd_card/fatfs/ff.c **** 	if (fat == FS_FAT32) (*fatfs)->fsi_flag = 1;
2373:../sd_card/fatfs/ff.c **** 	*nclst = n;
2374:../sd_card/fatfs/ff.c **** 
2375:../sd_card/fatfs/ff.c **** 	LEAVE_FF(*fatfs, FR_OK);
2376:../sd_card/fatfs/ff.c **** }
2377:../sd_card/fatfs/ff.c **** 
2378:../sd_card/fatfs/ff.c **** 
2379:../sd_card/fatfs/ff.c **** 
2380:../sd_card/fatfs/ff.c **** 
2381:../sd_card/fatfs/ff.c **** /*-----------------------------------------------------------------------*/
2382:../sd_card/fatfs/ff.c **** /* Truncate File                                                         */
2383:../sd_card/fatfs/ff.c **** /*-----------------------------------------------------------------------*/
2384:../sd_card/fatfs/ff.c **** 
2385:../sd_card/fatfs/ff.c **** FRESULT f_truncate (
2386:../sd_card/fatfs/ff.c **** 	FIL *fp		/* Pointer to the file object */
2387:../sd_card/fatfs/ff.c **** )
2388:../sd_card/fatfs/ff.c **** {
2389:../sd_card/fatfs/ff.c **** 	FRESULT res;
2390:../sd_card/fatfs/ff.c **** 	DWORD ncl;
2391:../sd_card/fatfs/ff.c **** 
2392:../sd_card/fatfs/ff.c **** 
2393:../sd_card/fatfs/ff.c **** 	res = validate(fp->fs, fp->id);		/* Check validity of the object */
2394:../sd_card/fatfs/ff.c **** 	if (res != FR_OK) LEAVE_FF(fp->fs, res);
2395:../sd_card/fatfs/ff.c **** 	if (fp->flag & FA__ERROR)			/* Check abort flag */
2396:../sd_card/fatfs/ff.c **** 		LEAVE_FF(fp->fs, FR_INT_ERR);
2397:../sd_card/fatfs/ff.c **** 	if (!(fp->flag & FA_WRITE))			/* Check access mode */
2398:../sd_card/fatfs/ff.c **** 		LEAVE_FF(fp->fs, FR_DENIED);
2399:../sd_card/fatfs/ff.c **** 
2400:../sd_card/fatfs/ff.c **** 	if (fp->fsize > fp->fptr) {
2401:../sd_card/fatfs/ff.c **** 		fp->fsize = fp->fptr;	/* Set file size to current R/W point */
2402:../sd_card/fatfs/ff.c **** 		fp->flag |= FA__WRITTEN;
2403:../sd_card/fatfs/ff.c **** 		if (fp->fptr == 0) {	/* When set file size to zero, remove entire cluster chain */
2404:../sd_card/fatfs/ff.c **** 			res = remove_chain(fp->fs, fp->org_clust);
2405:../sd_card/fatfs/ff.c **** 			fp->org_clust = 0;
2406:../sd_card/fatfs/ff.c **** 		} else {				/* When truncate a part of the file, remove remaining clusters */
2407:../sd_card/fatfs/ff.c **** 			ncl = get_fat(fp->fs, fp->curr_clust);
2408:../sd_card/fatfs/ff.c **** 			res = FR_OK;
2409:../sd_card/fatfs/ff.c **** 			if (ncl == 0xFFFFFFFF) res = FR_DISK_ERR;
2410:../sd_card/fatfs/ff.c **** 			if (ncl == 1) res = FR_INT_ERR;
2411:../sd_card/fatfs/ff.c **** 			if (res == FR_OK && ncl < fp->fs->max_clust) {
2412:../sd_card/fatfs/ff.c **** 				res = put_fat(fp->fs, fp->curr_clust, 0x0FFFFFFF);
2413:../sd_card/fatfs/ff.c **** 				if (res == FR_OK) res = remove_chain(fp->fs, ncl);
2414:../sd_card/fatfs/ff.c **** 			}
2415:../sd_card/fatfs/ff.c **** 		}
2416:../sd_card/fatfs/ff.c **** 	}
2417:../sd_card/fatfs/ff.c **** 	if (res != FR_OK) fp->flag |= FA__ERROR;
2418:../sd_card/fatfs/ff.c **** 
2419:../sd_card/fatfs/ff.c **** 	LEAVE_FF(fp->fs, res);
2420:../sd_card/fatfs/ff.c **** }
2421:../sd_card/fatfs/ff.c **** 
2422:../sd_card/fatfs/ff.c **** 
2423:../sd_card/fatfs/ff.c **** 
2424:../sd_card/fatfs/ff.c **** 
2425:../sd_card/fatfs/ff.c **** /*-----------------------------------------------------------------------*/
2426:../sd_card/fatfs/ff.c **** /* Delete a File or Directory                                            */
2427:../sd_card/fatfs/ff.c **** /*-----------------------------------------------------------------------*/
2428:../sd_card/fatfs/ff.c **** 
2429:../sd_card/fatfs/ff.c **** FRESULT f_unlink (
2430:../sd_card/fatfs/ff.c **** 	const XCHAR *path		/* Pointer to the file or directory path */
2431:../sd_card/fatfs/ff.c **** )
2432:../sd_card/fatfs/ff.c **** {
2433:../sd_card/fatfs/ff.c **** 	FRESULT res;
2434:../sd_card/fatfs/ff.c **** 	DIR dj, sdj;
2435:../sd_card/fatfs/ff.c **** 	NAMEBUF(sfn, lfn);
2436:../sd_card/fatfs/ff.c **** 	BYTE *dir;
2437:../sd_card/fatfs/ff.c **** 	DWORD dclst;
2438:../sd_card/fatfs/ff.c **** 
2439:../sd_card/fatfs/ff.c **** 
2440:../sd_card/fatfs/ff.c **** 	res = chk_mounted(&path, &dj.fs, 1);
2441:../sd_card/fatfs/ff.c **** 	if (res != FR_OK) LEAVE_FF(dj.fs, res);
2442:../sd_card/fatfs/ff.c **** 
2443:../sd_card/fatfs/ff.c **** 	INITBUF(dj, sfn, lfn);
2444:../sd_card/fatfs/ff.c **** 	res = follow_path(&dj, path);			/* Follow the file path */
2445:../sd_card/fatfs/ff.c **** 	if (_FS_RPATH && res == FR_OK && (dj.fn[NS] & NS_DOT))
2446:../sd_card/fatfs/ff.c **** 		res = FR_INVALID_NAME;
2447:../sd_card/fatfs/ff.c **** 	if (res != FR_OK) LEAVE_FF(dj.fs, res); /* Follow failed */
2448:../sd_card/fatfs/ff.c **** 
2449:../sd_card/fatfs/ff.c **** 	dir = dj.dir;
2450:../sd_card/fatfs/ff.c **** 	if (!dir)								/* Is it the root directory? */
2451:../sd_card/fatfs/ff.c **** 		LEAVE_FF(dj.fs, FR_INVALID_NAME);
2452:../sd_card/fatfs/ff.c **** 	if (dir[DIR_Attr] & AM_RDO)				/* Is it a R/O object? */
2453:../sd_card/fatfs/ff.c **** 		LEAVE_FF(dj.fs, FR_DENIED);
2454:../sd_card/fatfs/ff.c **** 	dclst = ((DWORD)LD_WORD(dir+DIR_FstClusHI) << 16) | LD_WORD(dir+DIR_FstClusLO);
2455:../sd_card/fatfs/ff.c **** 
2456:../sd_card/fatfs/ff.c **** 	if (dir[DIR_Attr] & AM_DIR) {			/* It is a sub-directory */
2457:../sd_card/fatfs/ff.c **** 		if (dclst < 2) LEAVE_FF(dj.fs, FR_INT_ERR);
2458:../sd_card/fatfs/ff.c **** 		mem_cpy(&sdj, &dj, sizeof(DIR));	/* Check if the sub-dir is empty or not */
2459:../sd_card/fatfs/ff.c **** 		sdj.sclust = dclst;
2460:../sd_card/fatfs/ff.c **** 		res = dir_seek(&sdj, 2);
2461:../sd_card/fatfs/ff.c **** 		if (res != FR_OK) LEAVE_FF(dj.fs, res);
2462:../sd_card/fatfs/ff.c **** 		res = dir_read(&sdj);
2463:../sd_card/fatfs/ff.c **** 		if (res == FR_OK) res = FR_DENIED;	/* Not empty sub-dir */
2464:../sd_card/fatfs/ff.c **** 		if (res != FR_NO_FILE) LEAVE_FF(dj.fs, res);
2465:../sd_card/fatfs/ff.c **** 	}
2466:../sd_card/fatfs/ff.c **** 
2467:../sd_card/fatfs/ff.c **** 	res = dir_remove(&dj);					/* Remove directory entry */
2468:../sd_card/fatfs/ff.c **** 	if (res == FR_OK) {
2469:../sd_card/fatfs/ff.c **** 		if (dclst)
2470:../sd_card/fatfs/ff.c **** 			res = remove_chain(dj.fs, dclst);	/* Remove the cluster chain */
2471:../sd_card/fatfs/ff.c **** 		if (res == FR_OK) res = sync(dj.fs);
2472:../sd_card/fatfs/ff.c **** 	}
2473:../sd_card/fatfs/ff.c **** 
2474:../sd_card/fatfs/ff.c **** 	LEAVE_FF(dj.fs, res);
2475:../sd_card/fatfs/ff.c **** }
2476:../sd_card/fatfs/ff.c **** 
2477:../sd_card/fatfs/ff.c **** 
2478:../sd_card/fatfs/ff.c **** 
2479:../sd_card/fatfs/ff.c **** 
2480:../sd_card/fatfs/ff.c **** /*-----------------------------------------------------------------------*/
2481:../sd_card/fatfs/ff.c **** /* Create a Directory                                                    */
2482:../sd_card/fatfs/ff.c **** /*-----------------------------------------------------------------------*/
2483:../sd_card/fatfs/ff.c **** 
2484:../sd_card/fatfs/ff.c **** FRESULT f_mkdir (
2485:../sd_card/fatfs/ff.c **** 	const XCHAR *path		/* Pointer to the directory path */
2486:../sd_card/fatfs/ff.c **** )
2487:../sd_card/fatfs/ff.c **** {
2488:../sd_card/fatfs/ff.c **** 	FRESULT res;
2489:../sd_card/fatfs/ff.c **** 	DIR dj;
2490:../sd_card/fatfs/ff.c **** 	NAMEBUF(sfn, lfn);
2491:../sd_card/fatfs/ff.c **** 	BYTE *dir, n;
2492:../sd_card/fatfs/ff.c **** 	DWORD dsect, dclst, pclst, tim;
2493:../sd_card/fatfs/ff.c **** 
2494:../sd_card/fatfs/ff.c **** 
2495:../sd_card/fatfs/ff.c **** 	res = chk_mounted(&path, &dj.fs, 1);
2496:../sd_card/fatfs/ff.c **** 	if (res != FR_OK) LEAVE_FF(dj.fs, res);
2497:../sd_card/fatfs/ff.c **** 
2498:../sd_card/fatfs/ff.c **** 	INITBUF(dj, sfn, lfn);
2499:../sd_card/fatfs/ff.c **** 	res = follow_path(&dj, path);			/* Follow the file path */
2500:../sd_card/fatfs/ff.c **** 	if (res == FR_OK) res = FR_EXIST;		/* Any file or directory is already existing */
2501:../sd_card/fatfs/ff.c **** 	if (_FS_RPATH && res == FR_NO_FILE && (dj.fn[NS] & NS_DOT))
2502:../sd_card/fatfs/ff.c **** 		res = FR_INVALID_NAME;
2503:../sd_card/fatfs/ff.c **** 	if (res != FR_NO_FILE)					/* Any error occurred */
2504:../sd_card/fatfs/ff.c **** 		LEAVE_FF(dj.fs, res);
2505:../sd_card/fatfs/ff.c **** 
2506:../sd_card/fatfs/ff.c **** 	dclst = create_chain(dj.fs, 0);			/* Allocate a new cluster for new directory table */
2507:../sd_card/fatfs/ff.c **** 	res = FR_OK;
2508:../sd_card/fatfs/ff.c **** 	if (dclst == 0) res = FR_DENIED;
2509:../sd_card/fatfs/ff.c **** 	if (dclst == 1) res = FR_INT_ERR;
2510:../sd_card/fatfs/ff.c **** 	if (dclst == 0xFFFFFFFF) res = FR_DISK_ERR;
2511:../sd_card/fatfs/ff.c **** 	if (res == FR_OK)
2512:../sd_card/fatfs/ff.c **** 		res = move_window(dj.fs, 0);
2513:../sd_card/fatfs/ff.c **** 	if (res != FR_OK) LEAVE_FF(dj.fs, res);
2514:../sd_card/fatfs/ff.c **** 	dsect = clust2sect(dj.fs, dclst);
2515:../sd_card/fatfs/ff.c **** 
2516:../sd_card/fatfs/ff.c **** 	dir = dj.fs->win;						/* Initialize the new directory table */
2517:../sd_card/fatfs/ff.c **** 	mem_set(dir, 0, SS(dj.fs));
2518:../sd_card/fatfs/ff.c **** 	mem_set(dir+DIR_Name, ' ', 8+3);		/* Create "." entry */
2519:../sd_card/fatfs/ff.c **** 	dir[DIR_Name] = '.';
2520:../sd_card/fatfs/ff.c **** 	dir[DIR_Attr] = AM_DIR;
2521:../sd_card/fatfs/ff.c **** 	tim = get_fattime();
2522:../sd_card/fatfs/ff.c **** 	ST_DWORD(dir+DIR_WrtTime, tim);
2523:../sd_card/fatfs/ff.c **** 	ST_WORD(dir+DIR_FstClusLO, dclst);
2524:../sd_card/fatfs/ff.c **** 	ST_WORD(dir+DIR_FstClusHI, dclst >> 16);
2525:../sd_card/fatfs/ff.c **** 	mem_cpy(dir+32, dir, 32); 			/* Create ".." entry */
2526:../sd_card/fatfs/ff.c **** 	dir[33] = '.';
2527:../sd_card/fatfs/ff.c **** 	pclst = dj.sclust;
2528:../sd_card/fatfs/ff.c **** 	if (dj.fs->fs_type == FS_FAT32 && pclst == dj.fs->dirbase)
2529:../sd_card/fatfs/ff.c **** 		pclst = 0;
2530:../sd_card/fatfs/ff.c **** 	ST_WORD(dir+32+DIR_FstClusLO, pclst);
2531:../sd_card/fatfs/ff.c **** 	ST_WORD(dir+32+DIR_FstClusHI, pclst >> 16);
2532:../sd_card/fatfs/ff.c **** 	for (n = 0; n < dj.fs->csize; n++) {	/* Write dot entries and clear left sectors */
2533:../sd_card/fatfs/ff.c **** 		dj.fs->winsect = dsect++;
2534:../sd_card/fatfs/ff.c **** 		dj.fs->wflag = 1;
2535:../sd_card/fatfs/ff.c **** 		res = move_window(dj.fs, 0);
2536:../sd_card/fatfs/ff.c **** 		if (res) LEAVE_FF(dj.fs, res);
2537:../sd_card/fatfs/ff.c **** 		mem_set(dir, 0, SS(dj.fs));
2538:../sd_card/fatfs/ff.c **** 	}
2539:../sd_card/fatfs/ff.c **** 
2540:../sd_card/fatfs/ff.c **** 	res = dir_register(&dj);
2541:../sd_card/fatfs/ff.c **** 	if (res != FR_OK) {
2542:../sd_card/fatfs/ff.c **** 		remove_chain(dj.fs, dclst);
2543:../sd_card/fatfs/ff.c **** 	} else {
2544:../sd_card/fatfs/ff.c **** 		dir = dj.dir;
2545:../sd_card/fatfs/ff.c **** 		dir[DIR_Attr] = AM_DIR;					/* Attribute */
2546:../sd_card/fatfs/ff.c **** 		ST_DWORD(dir+DIR_WrtTime, tim);			/* Create time */
2547:../sd_card/fatfs/ff.c **** 		ST_WORD(dir+DIR_FstClusLO, dclst);		/* Table start cluster */
2548:../sd_card/fatfs/ff.c **** 		ST_WORD(dir+DIR_FstClusHI, dclst >> 16);
2549:../sd_card/fatfs/ff.c **** 		dj.fs->wflag = 1;
2550:../sd_card/fatfs/ff.c **** 		res = sync(dj.fs);
2551:../sd_card/fatfs/ff.c **** 	}
2552:../sd_card/fatfs/ff.c **** 
2553:../sd_card/fatfs/ff.c **** 	LEAVE_FF(dj.fs, res);
2554:../sd_card/fatfs/ff.c **** }
2555:../sd_card/fatfs/ff.c **** 
2556:../sd_card/fatfs/ff.c **** 
2557:../sd_card/fatfs/ff.c **** 
2558:../sd_card/fatfs/ff.c **** 
2559:../sd_card/fatfs/ff.c **** /*-----------------------------------------------------------------------*/
2560:../sd_card/fatfs/ff.c **** /* Change File Attribute                                                 */
2561:../sd_card/fatfs/ff.c **** /*-----------------------------------------------------------------------*/
2562:../sd_card/fatfs/ff.c **** 
2563:../sd_card/fatfs/ff.c **** FRESULT f_chmod (
2564:../sd_card/fatfs/ff.c **** 	const XCHAR *path,	/* Pointer to the file path */
2565:../sd_card/fatfs/ff.c **** 	BYTE value,			/* Attribute bits */
2566:../sd_card/fatfs/ff.c **** 	BYTE mask			/* Attribute mask to change */
2567:../sd_card/fatfs/ff.c **** )
2568:../sd_card/fatfs/ff.c **** {
2569:../sd_card/fatfs/ff.c **** 	FRESULT res;
2570:../sd_card/fatfs/ff.c **** 	DIR dj;
2571:../sd_card/fatfs/ff.c **** 	NAMEBUF(sfn, lfn);
2572:../sd_card/fatfs/ff.c **** 	BYTE *dir;
2573:../sd_card/fatfs/ff.c **** 
2574:../sd_card/fatfs/ff.c **** 
2575:../sd_card/fatfs/ff.c **** 	res = chk_mounted(&path, &dj.fs, 1);
2576:../sd_card/fatfs/ff.c **** 	if (res == FR_OK) {
2577:../sd_card/fatfs/ff.c **** 		INITBUF(dj, sfn, lfn);
2578:../sd_card/fatfs/ff.c **** 		res = follow_path(&dj, path);		/* Follow the file path */
2579:../sd_card/fatfs/ff.c **** 		if (_FS_RPATH && res == FR_OK && (dj.fn[NS] & NS_DOT))
2580:../sd_card/fatfs/ff.c **** 			res = FR_INVALID_NAME;
2581:../sd_card/fatfs/ff.c **** 		if (res == FR_OK) {
2582:../sd_card/fatfs/ff.c **** 			dir = dj.dir;
2583:../sd_card/fatfs/ff.c **** 			if (!dir) {						/* Is it a root directory? */
2584:../sd_card/fatfs/ff.c **** 				res = FR_INVALID_NAME;
2585:../sd_card/fatfs/ff.c **** 			} else {						/* File or sub directory */
2586:../sd_card/fatfs/ff.c **** 				mask &= AM_RDO|AM_HID|AM_SYS|AM_ARC;	/* Valid attribute mask */
2587:../sd_card/fatfs/ff.c **** 				dir[DIR_Attr] = (value & mask) | (dir[DIR_Attr] & (BYTE)~mask);	/* Apply attribute change */
2588:../sd_card/fatfs/ff.c **** 				dj.fs->wflag = 1;
2589:../sd_card/fatfs/ff.c **** 				res = sync(dj.fs);
2590:../sd_card/fatfs/ff.c **** 			}
2591:../sd_card/fatfs/ff.c **** 		}
2592:../sd_card/fatfs/ff.c **** 	}
2593:../sd_card/fatfs/ff.c **** 
2594:../sd_card/fatfs/ff.c **** 	LEAVE_FF(dj.fs, res);
2595:../sd_card/fatfs/ff.c **** }
2596:../sd_card/fatfs/ff.c **** 
2597:../sd_card/fatfs/ff.c **** 
2598:../sd_card/fatfs/ff.c **** 
2599:../sd_card/fatfs/ff.c **** 
2600:../sd_card/fatfs/ff.c **** /*-----------------------------------------------------------------------*/
2601:../sd_card/fatfs/ff.c **** /* Change Timestamp                                                      */
2602:../sd_card/fatfs/ff.c **** /*-----------------------------------------------------------------------*/
2603:../sd_card/fatfs/ff.c **** 
2604:../sd_card/fatfs/ff.c **** FRESULT f_utime (
2605:../sd_card/fatfs/ff.c **** 	const XCHAR *path,	/* Pointer to the file/directory name */
2606:../sd_card/fatfs/ff.c **** 	const FILINFO *fno	/* Pointer to the time-stamp to be set */
2607:../sd_card/fatfs/ff.c **** )
2608:../sd_card/fatfs/ff.c **** {
2609:../sd_card/fatfs/ff.c **** 	FRESULT res;
2610:../sd_card/fatfs/ff.c **** 	DIR dj;
2611:../sd_card/fatfs/ff.c **** 	NAMEBUF(sfn, lfn);
2612:../sd_card/fatfs/ff.c **** 	BYTE *dir;
2613:../sd_card/fatfs/ff.c **** 
2614:../sd_card/fatfs/ff.c **** 
2615:../sd_card/fatfs/ff.c **** 	res = chk_mounted(&path, &dj.fs, 1);
2616:../sd_card/fatfs/ff.c **** 	if (res == FR_OK) {
2617:../sd_card/fatfs/ff.c **** 		INITBUF(dj, sfn, lfn);
2618:../sd_card/fatfs/ff.c **** 		res = follow_path(&dj, path);	/* Follow the file path */
2619:../sd_card/fatfs/ff.c **** 		if (_FS_RPATH && res == FR_OK && (dj.fn[NS] & NS_DOT))
2620:../sd_card/fatfs/ff.c **** 			res = FR_INVALID_NAME;
2621:../sd_card/fatfs/ff.c **** 		if (res == FR_OK) {
2622:../sd_card/fatfs/ff.c **** 			dir = dj.dir;
2623:../sd_card/fatfs/ff.c **** 			if (!dir) {				/* Root directory */
2624:../sd_card/fatfs/ff.c **** 				res = FR_INVALID_NAME;
2625:../sd_card/fatfs/ff.c **** 			} else {				/* File or sub-directory */
2626:../sd_card/fatfs/ff.c **** 				ST_WORD(dir+DIR_WrtTime, fno->ftime);
2627:../sd_card/fatfs/ff.c **** 				ST_WORD(dir+DIR_WrtDate, fno->fdate);
2628:../sd_card/fatfs/ff.c **** 				dj.fs->wflag = 1;
2629:../sd_card/fatfs/ff.c **** 				res = sync(dj.fs);
2630:../sd_card/fatfs/ff.c **** 			}
2631:../sd_card/fatfs/ff.c **** 		}
2632:../sd_card/fatfs/ff.c **** 	}
2633:../sd_card/fatfs/ff.c **** 
2634:../sd_card/fatfs/ff.c **** 	LEAVE_FF(dj.fs, res);
2635:../sd_card/fatfs/ff.c **** }
2636:../sd_card/fatfs/ff.c **** 
2637:../sd_card/fatfs/ff.c **** 
2638:../sd_card/fatfs/ff.c **** 
2639:../sd_card/fatfs/ff.c **** 
2640:../sd_card/fatfs/ff.c **** /*-----------------------------------------------------------------------*/
2641:../sd_card/fatfs/ff.c **** /* Rename File/Directory                                                 */
2642:../sd_card/fatfs/ff.c **** /*-----------------------------------------------------------------------*/
2643:../sd_card/fatfs/ff.c **** 
2644:../sd_card/fatfs/ff.c **** FRESULT f_rename (
2645:../sd_card/fatfs/ff.c **** 	const XCHAR *path_old,	/* Pointer to the old name */
2646:../sd_card/fatfs/ff.c **** 	const XCHAR *path_new	/* Pointer to the new name */
2647:../sd_card/fatfs/ff.c **** )
2648:../sd_card/fatfs/ff.c **** {
2649:../sd_card/fatfs/ff.c **** 	FRESULT res;
2650:../sd_card/fatfs/ff.c **** 	DIR dj_old, dj_new;
2651:../sd_card/fatfs/ff.c **** 	NAMEBUF(sfn, lfn);
2652:../sd_card/fatfs/ff.c **** 	BYTE buf[21], *dir;
2653:../sd_card/fatfs/ff.c **** 	DWORD dw;
2654:../sd_card/fatfs/ff.c **** 
2655:../sd_card/fatfs/ff.c **** 
2656:../sd_card/fatfs/ff.c **** 	INITBUF(dj_old, sfn, lfn);
2657:../sd_card/fatfs/ff.c **** 	res = chk_mounted(&path_old, &dj_old.fs, 1);
2658:../sd_card/fatfs/ff.c **** 	if (res == FR_OK) {
2659:../sd_card/fatfs/ff.c **** 		dj_new.fs = dj_old.fs;
2660:../sd_card/fatfs/ff.c **** 		res = follow_path(&dj_old, path_old);	/* Check old object */
2661:../sd_card/fatfs/ff.c **** 		if (_FS_RPATH && res == FR_OK && (dj_old.fn[NS] & NS_DOT))
2662:../sd_card/fatfs/ff.c **** 			res = FR_INVALID_NAME;
2663:../sd_card/fatfs/ff.c **** 	}
2664:../sd_card/fatfs/ff.c **** 	if (res != FR_OK) LEAVE_FF(dj_old.fs, res);	/* The old object is not found */
2665:../sd_card/fatfs/ff.c **** 
2666:../sd_card/fatfs/ff.c **** 	if (!dj_old.dir) LEAVE_FF(dj_old.fs, FR_NO_FILE);	/* Is root dir? */
2667:../sd_card/fatfs/ff.c **** 	mem_cpy(buf, dj_old.dir+DIR_Attr, 21);		/* Save the object information */
2668:../sd_card/fatfs/ff.c **** 
2669:../sd_card/fatfs/ff.c **** 	mem_cpy(&dj_new, &dj_old, sizeof(DIR));
2670:../sd_card/fatfs/ff.c **** 	res = follow_path(&dj_new, path_new);		/* Check new object */
2671:../sd_card/fatfs/ff.c **** 	if (res == FR_OK) res = FR_EXIST;			/* The new object name is already existing */
2672:../sd_card/fatfs/ff.c **** 	if (res == FR_NO_FILE) { 					/* Is it a valid path and no name collision? */
2673:../sd_card/fatfs/ff.c **** 		res = dir_register(&dj_new);			/* Register the new object */
2674:../sd_card/fatfs/ff.c **** 		if (res == FR_OK) {
2675:../sd_card/fatfs/ff.c **** 			dir = dj_new.dir;					/* Copy object information into new entry */
2676:../sd_card/fatfs/ff.c **** 			mem_cpy(dir+13, buf+2, 19);
2677:../sd_card/fatfs/ff.c **** 			dir[DIR_Attr] = buf[0] | AM_ARC;
2678:../sd_card/fatfs/ff.c **** 			dj_old.fs->wflag = 1;
2679:../sd_card/fatfs/ff.c **** 			if (dir[DIR_Attr] & AM_DIR) {		/* Update .. entry in the directory if needed */
2680:../sd_card/fatfs/ff.c **** 				dw = clust2sect(dj_new.fs, (DWORD)LD_WORD(dir+DIR_FstClusHI) | LD_WORD(dir+DIR_FstClusLO));
2681:../sd_card/fatfs/ff.c **** 				if (!dw) {
2682:../sd_card/fatfs/ff.c **** 					res = FR_INT_ERR;
2683:../sd_card/fatfs/ff.c **** 				} else {
2684:../sd_card/fatfs/ff.c **** 					res = move_window(dj_new.fs, dw);
2685:../sd_card/fatfs/ff.c **** 					dir = dj_new.fs->win+32;
2686:../sd_card/fatfs/ff.c **** 					if (res == FR_OK && dir[1] == '.') {
2687:../sd_card/fatfs/ff.c **** 						dw = (dj_new.fs->fs_type == FS_FAT32 && dj_new.sclust == dj_new.fs->dirbase) ? 0 : dj_new.scl
2688:../sd_card/fatfs/ff.c **** 						ST_WORD(dir+DIR_FstClusLO, dw);
2689:../sd_card/fatfs/ff.c **** 						ST_WORD(dir+DIR_FstClusHI, dw >> 16);
2690:../sd_card/fatfs/ff.c **** 						dj_new.fs->wflag = 1;
2691:../sd_card/fatfs/ff.c **** 					}
2692:../sd_card/fatfs/ff.c **** 				}
2693:../sd_card/fatfs/ff.c **** 			}
2694:../sd_card/fatfs/ff.c **** 			if (res == FR_OK) {
2695:../sd_card/fatfs/ff.c **** 				res = dir_remove(&dj_old);			/* Remove old entry */
2696:../sd_card/fatfs/ff.c **** 				if (res == FR_OK)
2697:../sd_card/fatfs/ff.c **** 					res = sync(dj_old.fs);
2698:../sd_card/fatfs/ff.c **** 			}
2699:../sd_card/fatfs/ff.c **** 		}
2700:../sd_card/fatfs/ff.c **** 	}
2701:../sd_card/fatfs/ff.c **** 
2702:../sd_card/fatfs/ff.c **** 	LEAVE_FF(dj_old.fs, res);
2703:../sd_card/fatfs/ff.c **** }
2704:../sd_card/fatfs/ff.c **** 
2705:../sd_card/fatfs/ff.c **** #endif /* !_FS_READONLY */
2706:../sd_card/fatfs/ff.c **** #endif /* _FS_MINIMIZE == 0 */
2707:../sd_card/fatfs/ff.c **** #endif /* _FS_MINIMIZE <= 1 */
2708:../sd_card/fatfs/ff.c **** #endif /* _FS_MINIMIZE <= 2 */
2709:../sd_card/fatfs/ff.c **** 
2710:../sd_card/fatfs/ff.c **** 
2711:../sd_card/fatfs/ff.c **** 
2712:../sd_card/fatfs/ff.c **** /*-----------------------------------------------------------------------*/
2713:../sd_card/fatfs/ff.c **** /* Forward data to the stream directly (Available on only _FS_TINY cfg)  */
2714:../sd_card/fatfs/ff.c **** /*-----------------------------------------------------------------------*/
2715:../sd_card/fatfs/ff.c **** #if _USE_FORWARD && _FS_TINY
2716:../sd_card/fatfs/ff.c **** 
2717:../sd_card/fatfs/ff.c **** FRESULT f_forward (
2718:../sd_card/fatfs/ff.c **** 	FIL *fp, 						/* Pointer to the file object */
2719:../sd_card/fatfs/ff.c **** 	UINT (*func)(const BYTE*,UINT),	/* Pointer to the streaming function */
2720:../sd_card/fatfs/ff.c **** 	UINT btr,						/* Number of bytes to forward */
2721:../sd_card/fatfs/ff.c **** 	UINT *bf						/* Pointer to number of bytes forwarded */
2722:../sd_card/fatfs/ff.c **** )
2723:../sd_card/fatfs/ff.c **** {
2724:../sd_card/fatfs/ff.c **** 	FRESULT res;
2725:../sd_card/fatfs/ff.c **** 	DWORD remain, clst, sect;
2726:../sd_card/fatfs/ff.c **** 	UINT rcnt;
2727:../sd_card/fatfs/ff.c **** 
2728:../sd_card/fatfs/ff.c **** 
2729:../sd_card/fatfs/ff.c **** 	*bf = 0;
2730:../sd_card/fatfs/ff.c **** 
2731:../sd_card/fatfs/ff.c **** 	res = validate(fp->fs, fp->id);					/* Check validity of the object */
2732:../sd_card/fatfs/ff.c **** 	if (res != FR_OK) LEAVE_FF(fp->fs, res);
2733:../sd_card/fatfs/ff.c **** 	if (fp->flag & FA__ERROR)						/* Check error flag */
2734:../sd_card/fatfs/ff.c **** 		LEAVE_FF(fp->fs, FR_INT_ERR);
2735:../sd_card/fatfs/ff.c **** 	if (!(fp->flag & FA_READ))						/* Check access mode */
2736:../sd_card/fatfs/ff.c **** 		LEAVE_FF(fp->fs, FR_DENIED);
2737:../sd_card/fatfs/ff.c **** 
2738:../sd_card/fatfs/ff.c **** 	remain = fp->fsize - fp->fptr;
2739:../sd_card/fatfs/ff.c **** 	if (btr > remain) btr = (UINT)remain;			/* Truncate btr by remaining bytes */
2740:../sd_card/fatfs/ff.c **** 
2741:../sd_card/fatfs/ff.c **** 	for ( ;  btr && (*func)(NULL, 0);				/* Repeat until all data transferred or stream becomes busy *
2742:../sd_card/fatfs/ff.c **** 		fp->fptr += rcnt, *bf += rcnt, btr -= rcnt) {
2743:../sd_card/fatfs/ff.c **** 		if ((fp->fptr % SS(fp->fs)) == 0) {			/* On the sector boundary? */
2744:../sd_card/fatfs/ff.c **** 			if (fp->csect >= fp->fs->csize) {		/* On the cluster boundary? */
2745:../sd_card/fatfs/ff.c **** 				clst = (fp->fptr == 0) ?			/* On the top of the file? */
2746:../sd_card/fatfs/ff.c **** 					fp->org_clust : get_fat(fp->fs, fp->curr_clust);
2747:../sd_card/fatfs/ff.c **** 				if (clst <= 1) ABORT(fp->fs, FR_INT_ERR);
2748:../sd_card/fatfs/ff.c **** 				if (clst == 0xFFFFFFFF) ABORT(fp->fs, FR_DISK_ERR);
2749:../sd_card/fatfs/ff.c **** 				fp->curr_clust = clst;				/* Update current cluster */
2750:../sd_card/fatfs/ff.c **** 				fp->csect = 0;						/* Reset sector address in the cluster */
2751:../sd_card/fatfs/ff.c **** 			}
2752:../sd_card/fatfs/ff.c **** 			fp->csect++;							/* Next sector address in the cluster */
2753:../sd_card/fatfs/ff.c **** 		}
2754:../sd_card/fatfs/ff.c **** 		sect = clust2sect(fp->fs, fp->curr_clust);	/* Get current data sector */
2755:../sd_card/fatfs/ff.c **** 		if (!sect) ABORT(fp->fs, FR_INT_ERR);
2756:../sd_card/fatfs/ff.c **** 		sect += fp->csect - 1;
2757:../sd_card/fatfs/ff.c **** 		if (move_window(fp->fs, sect))				/* Move sector window */
2758:../sd_card/fatfs/ff.c **** 			ABORT(fp->fs, FR_DISK_ERR);
2759:../sd_card/fatfs/ff.c **** 		fp->dsect = sect;
2760:../sd_card/fatfs/ff.c **** 		rcnt = SS(fp->fs) - (WORD)(fp->fptr % SS(fp->fs));	/* Forward data from sector window */
2761:../sd_card/fatfs/ff.c **** 		if (rcnt > btr) rcnt = btr;
2762:../sd_card/fatfs/ff.c **** 		rcnt = (*func)(&fp->fs->win[(WORD)fp->fptr % SS(fp->fs)], rcnt);
2763:../sd_card/fatfs/ff.c **** 		if (!rcnt) ABORT(fp->fs, FR_INT_ERR);
2764:../sd_card/fatfs/ff.c **** 	}
2765:../sd_card/fatfs/ff.c **** 
2766:../sd_card/fatfs/ff.c **** 	LEAVE_FF(fp->fs, FR_OK);
2767:../sd_card/fatfs/ff.c **** }
2768:../sd_card/fatfs/ff.c **** #endif /* _USE_FORWARD */
2769:../sd_card/fatfs/ff.c **** 
2770:../sd_card/fatfs/ff.c **** 
2771:../sd_card/fatfs/ff.c **** 
2772:../sd_card/fatfs/ff.c **** #if _USE_MKFS && !_FS_READONLY
2773:../sd_card/fatfs/ff.c **** /*-----------------------------------------------------------------------*/
2774:../sd_card/fatfs/ff.c **** /* Create File System on the Drive                                       */
2775:../sd_card/fatfs/ff.c **** /*-----------------------------------------------------------------------*/
2776:../sd_card/fatfs/ff.c **** #define N_ROOTDIR	512			/* Multiple of 32 and <= 2048 */
2777:../sd_card/fatfs/ff.c **** #define N_FATS		1			/* 1 or 2 */
2778:../sd_card/fatfs/ff.c **** #define MAX_SECTOR	131072000UL	/* Maximum partition size */
2779:../sd_card/fatfs/ff.c **** #define MIN_SECTOR	2000UL		/* Minimum partition size */
2780:../sd_card/fatfs/ff.c **** 
2781:../sd_card/fatfs/ff.c **** 
2782:../sd_card/fatfs/ff.c **** FRESULT f_mkfs (
2783:../sd_card/fatfs/ff.c **** 	BYTE drv,			/* Logical drive number */
2784:../sd_card/fatfs/ff.c **** 	BYTE partition,		/* Partitioning rule 0:FDISK, 1:SFD */
2785:../sd_card/fatfs/ff.c **** 	WORD allocsize		/* Allocation unit size [bytes] */
2786:../sd_card/fatfs/ff.c **** )
2787:../sd_card/fatfs/ff.c **** {
 18945              		.loc 1 2787 0
 18946              		.cfi_startproc
 18947              		@ args = 0, pretend = 0, frame = 56
 18948              		@ frame_needed = 0, uses_anonymous_args = 0
 18949              	.LVL19:
 18950 0000 2DE9F04F 		push	{r4, r5, r6, r7, r8, r9, sl, fp, lr}
 18951              	.LCFI0:
 18952              		.cfi_def_cfa_offset 36
 18953 0004 8FB0     		sub	sp, sp, #60
 18954              	.LCFI1:
 18955              		.cfi_def_cfa_offset 96
 18956 0006 0C46     		mov	r4, r1
 18957              		.cfi_offset 14, -4
 18958              		.cfi_offset 11, -8
 18959              		.cfi_offset 10, -12
 18960              		.cfi_offset 9, -16
 18961              		.cfi_offset 8, -20
 18962              		.cfi_offset 7, -24
 18963              		.cfi_offset 6, -28
 18964              		.cfi_offset 5, -32
 18965              		.cfi_offset 4, -36
 18966 0008 1546     		mov	r5, r2
2788:../sd_card/fatfs/ff.c **** 	static const DWORD sstbl[] = { 2048000, 1024000, 512000, 256000, 128000, 64000, 32000, 16000, 8000
2789:../sd_card/fatfs/ff.c **** 	static const WORD cstbl[] =  {   32768,   16384,   8192,   4096,   2048, 16384,  8192,  4096, 2048
2790:../sd_card/fatfs/ff.c **** 	BYTE fmt, m, *tbl;
2791:../sd_card/fatfs/ff.c **** 	DWORD b_part, b_fat, b_dir, b_data;		/* Area offset (LBA) */
2792:../sd_card/fatfs/ff.c **** 	DWORD n_part, n_rsv, n_fat, n_dir;		/* Area size */
2793:../sd_card/fatfs/ff.c **** 	DWORD n_clst, d, n;
2794:../sd_card/fatfs/ff.c **** 	WORD as;
2795:../sd_card/fatfs/ff.c **** 	FATFS *fs;
2796:../sd_card/fatfs/ff.c **** 	DSTATUS stat;
2797:../sd_card/fatfs/ff.c **** 
2798:../sd_card/fatfs/ff.c **** 
2799:../sd_card/fatfs/ff.c **** 	/* Check validity of the parameters */
2800:../sd_card/fatfs/ff.c **** 	if (drv >= _DRIVES) return FR_INVALID_DRIVE;
 18967              		.loc 1 2800 0
 18968 000a 10B1     		cbz	r0, .L22
 18969              	.LVL20:
 18970 000c 4FF00B00 		mov	r0, #11
 18971              	.LVL21:
 18972 0010 55E3     		b	.L23
 18973              	.LVL22:
 18974              	.L22:
2801:../sd_card/fatfs/ff.c **** 	if (partition >= 2) return FR_MKFS_ABORTED;
 18975              		.loc 1 2801 0
 18976 0012 0129     		cmp	r1, #1
 18977 0014 00F24E83 		bhi	.L24
 18978              	.LVL23:
2802:../sd_card/fatfs/ff.c **** 
2803:../sd_card/fatfs/ff.c **** 	/* Check mounted drive and clear work area */
2804:../sd_card/fatfs/ff.c **** 	fs = FatFs[drv];
 18979              		.loc 1 2804 0
 18980 0018 40F20003 		movw	r3, #:lower16:.LANCHOR0
 18981 001c C0F20003 		movt	r3, #:upper16:.LANCHOR0
 18982 0020 1E68     		ldr	r6, [r3, #0]
 18983              	.LVL24:
2805:../sd_card/fatfs/ff.c **** 	if (!fs) return FR_NOT_ENABLED;
 18984              		.loc 1 2805 0
 18985 0022 16B9     		cbnz	r6, .L25
 18986 0024 4FF00C00 		mov	r0, #12
 18987              	.LVL25:
 18988 0028 49E3     		b	.L23
 18989              	.LVL26:
 18990              	.L25:
2806:../sd_card/fatfs/ff.c **** 	fs->fs_type = 0;
 18991              		.loc 1 2806 0
 18992 002a 4FF00000 		mov	r0, #0
 18993              	.LVL27:
 18994 002e 3070     		strb	r0, [r6, #0]
2807:../sd_card/fatfs/ff.c **** 	drv = LD2PD(drv);
2808:../sd_card/fatfs/ff.c **** 
2809:../sd_card/fatfs/ff.c **** 	/* Get disk statics */
2810:../sd_card/fatfs/ff.c **** 	stat = disk_initialize(drv);
 18995              		.loc 1 2810 0
 18996 0030 FFF7FEFF 		bl	disk_initialize
 18997              	.LVL28:
2811:../sd_card/fatfs/ff.c **** 	if (stat & STA_NOINIT) return FR_NOT_READY;
 18998              		.loc 1 2811 0
 18999 0034 10F0010F 		tst	r0, #1
 19000 0038 18BF     		it	ne
 19001 003a 0320     		movne	r0, #3
 19002 003c 40F03F83 		bne	.L23
2812:../sd_card/fatfs/ff.c **** 	if (stat & STA_PROTECT) return FR_WRITE_PROTECTED;
 19003              		.loc 1 2812 0
 19004 0040 10F0040F 		tst	r0, #4
 19005 0044 18BF     		it	ne
 19006 0046 0A20     		movne	r0, #10
 19007 0048 40F03983 		bne	.L23
2813:../sd_card/fatfs/ff.c **** #if _MAX_SS != 512						/* Get disk sector size */
2814:../sd_card/fatfs/ff.c **** 	if (disk_ioctl(drv, GET_SECTOR_SIZE, &SS(fs)) != RES_OK
2815:../sd_card/fatfs/ff.c **** 		|| SS(fs) > _MAX_SS)
2816:../sd_card/fatfs/ff.c **** 		return FR_MKFS_ABORTED;
2817:../sd_card/fatfs/ff.c **** #endif
2818:../sd_card/fatfs/ff.c **** 	if (disk_ioctl(drv, GET_SECTOR_COUNT, &n_part) != RES_OK || n_part < MIN_SECTOR)
 19008              		.loc 1 2818 0
 19009 004c 4FF00000 		mov	r0, #0
 19010 0050 4FF00101 		mov	r1, #1
 19011 0054 0DAA     		add	r2, sp, #52
 19012 0056 FFF7FEFF 		bl	disk_ioctl
 19013 005a 0028     		cmp	r0, #0
 19014 005c 40F02A83 		bne	.L24
 19015 0060 0D9B     		ldr	r3, [sp, #52]
 19016              	.LVL29:
 19017 0062 B3F5FA6F 		cmp	r3, #2000
 19018 0066 C0F02583 		bcc	.L24
2819:../sd_card/fatfs/ff.c **** 		return FR_MKFS_ABORTED;
2820:../sd_card/fatfs/ff.c **** 	if (n_part > MAX_SECTOR) n_part = MAX_SECTOR;
 19019              		.loc 1 2820 0
 19020 006a B3F1FA6F 		cmp	r3, #131072000
 19021 006e 84BF     		itt	hi
 19022 0070 4FF0FA63 		movhi	r3, #131072000
 19023 0074 0D93     		strhi	r3, [sp, #52]
 19024              	.LVL30:
2821:../sd_card/fatfs/ff.c **** 	b_part = (!partition) ? 63 : 0;		/* Boot sector */
 19025              		.loc 1 2821 0
 19026 0076 002C     		cmp	r4, #0
 19027 0078 0CBF     		ite	eq
 19028 007a 4FF03F0A 		moveq	sl, #63
 19029 007e 4FF0000A 		movne	sl, #0
 19030              	.LVL31:
2822:../sd_card/fatfs/ff.c **** 	n_part -= b_part;
 19031              		.loc 1 2822 0
 19032 0082 0D98     		ldr	r0, [sp, #52]
 19033 0084 CAEB0000 		rsb	r0, sl, r0
 19034              	.LVL32:
 19035 0088 0D90     		str	r0, [sp, #52]
2823:../sd_card/fatfs/ff.c **** 	for (d = 512; d <= 32768U && d != allocsize; d <<= 1) ;	/* Check validity of the allocation unit s
 19036              		.loc 1 2823 0
 19037 008a 2946     		mov	r1, r5
 19038 008c B5F5007F 		cmp	r5, #512
 19039 0090 1CBF     		itt	ne
 19040 0092 0022     		movne	r2, #0
 19041 0094 4FF48063 		movne	r3, #1024
 19042              	.LVL33:
 19043 0098 06D1     		bne	.L32
 19044              	.LVL34:
 19045 009a 0AE0     		b	.L31
 19046              	.L34:
 19047 009c 4FEA4303 		lsl	r3, r3, #1
 19048              	.LVL35:
 19049 00a0 02F10102 		add	r2, r2, #1
 19050 00a4 062A     		cmp	r2, #6
 19051 00a6 02D0     		beq	.L33
 19052              	.L32:
 19053 00a8 8B42     		cmp	r3, r1
 19054 00aa F7D1     		bne	.L34
 19055 00ac 01E0     		b	.L31
 19056              	.L33:
2824:../sd_card/fatfs/ff.c **** 	if (d != allocsize) allocsize = 0;
 19057              		.loc 1 2824 0
 19058 00ae 8B42     		cmp	r3, r1
 19059 00b0 00D1     		bne	.L35
 19060              	.L31:
2825:../sd_card/fatfs/ff.c **** 	if (!allocsize) {					/* Auto selection of cluster size */
 19061              		.loc 1 2825 0
 19062 00b2 D5B9     		cbnz	r5, .L36
 19063              	.L35:
2826:../sd_card/fatfs/ff.c **** 		d = n_part;
2827:../sd_card/fatfs/ff.c **** 		for (as = SS(fs); as > 512U; as >>= 1) d >>= 1;
2828:../sd_card/fatfs/ff.c **** 		for (n = 0; d < sstbl[n]; n++) ;
 19064              		.loc 1 2828 0
 19065 00b4 4FF00003 		mov	r3, #0
 19066              	.LVL36:
 19067 00b8 0C93     		str	r3, [sp, #48]
 19068              	.LVL37:
 19069 00ba B0F5FA1F 		cmp	r0, #2048000
 19070 00be 0ED2     		bcs	.L38
 19071              	.LVL38:
 19072 00c0 4FF00103 		mov	r3, #1
 19073 00c4 40F20005 		movw	r5, #:lower16:.LANCHOR1
 19074              	.LVL39:
 19075 00c8 C0F20005 		movt	r5, #:upper16:.LANCHOR1
 19076              	.L40:
 19077 00cc 03F10101 		add	r1, r3, #1
 19078 00d0 55F82320 		ldr	r2, [r5, r3, lsl #2]
 19079 00d4 9042     		cmp	r0, r2
 19080 00d6 01D2     		bcs	.L39
 19081 00d8 0B46     		mov	r3, r1
 19082 00da F7E7     		b	.L40
 19083              	.L39:
 19084 00dc 0C93     		str	r3, [sp, #48]
 19085              	.LVL40:
 19086              	.L38:
2829:../sd_card/fatfs/ff.c **** 		allocsize = cstbl[n];
 19087              		.loc 1 2829 0
 19088 00de 40F20002 		movw	r2, #:lower16:.LANCHOR2
 19089 00e2 C0F20002 		movt	r2, #:upper16:.LANCHOR2
 19090 00e6 32F81350 		ldrh	r5, [r2, r3, lsl #1]
 19091              	.LVL41:
 19092              	.L36:
2830:../sd_card/fatfs/ff.c **** 	}
2831:../sd_card/fatfs/ff.c **** 	if (allocsize < SS(fs)) allocsize = SS(fs);
 19093              		.loc 1 2831 0
 19094 00ea B5F5007F 		cmp	r5, #512
 19095 00ee 38BF     		it	cc
 19096 00f0 4FF40075 		movcc	r5, #512
 19097              	.LVL42:
2832:../sd_card/fatfs/ff.c **** 
2833:../sd_card/fatfs/ff.c **** 	allocsize /= SS(fs);		/* Number of sectors per cluster */
 19098              		.loc 1 2833 0
 19099 00f4 C5F34F28 		ubfx	r8, r5, #9, #16
 19100              	.LVL43:
2834:../sd_card/fatfs/ff.c **** 
2835:../sd_card/fatfs/ff.c **** 	/* Pre-compute number of clusters and FAT type */
2836:../sd_card/fatfs/ff.c **** 	n_clst = n_part / allocsize;
 19101              		.loc 1 2836 0
 19102 00f8 CDF80480 		str	r8, [sp, #4]
 19103 00fc 0D9B     		ldr	r3, [sp, #52]
 19104              	.LVL44:
 19105 00fe B3FBF8F3 		udiv	r3, r3, r8
 19106              	.LVL45:
2837:../sd_card/fatfs/ff.c **** 	fmt = FS_FAT12;
2838:../sd_card/fatfs/ff.c **** 	if (n_clst >= 0xFF5) fmt = FS_FAT16;
 19107              		.loc 1 2838 0
 19108 0102 40F6F475 		movw	r5, #4084
 19109 0106 AB42     		cmp	r3, r5
 19110 0108 94BF     		ite	ls
 19111 010a 0125     		movls	r5, #1
 19112 010c 0225     		movhi	r5, #2
 19113              	.LVL46:
2839:../sd_card/fatfs/ff.c **** 	if (n_clst >= 0xFFF5) fmt = FS_FAT32;
 19114              		.loc 1 2839 0
 19115 010e 4FF6F472 		movw	r2, #65524
 19116 0112 9342     		cmp	r3, r2
2840:../sd_card/fatfs/ff.c **** 
2841:../sd_card/fatfs/ff.c **** 	/* Determine offset and size of FAT structure */
2842:../sd_card/fatfs/ff.c **** 	switch (fmt) {
2843:../sd_card/fatfs/ff.c **** 	case FS_FAT12:
2844:../sd_card/fatfs/ff.c **** 		n_fat = ((n_clst * 3 + 1) / 2 + 3 + SS(fs) - 1) / SS(fs);
2845:../sd_card/fatfs/ff.c **** 		n_rsv = 1 + partition;
2846:../sd_card/fatfs/ff.c **** 		n_dir = N_ROOTDIR * 32 / SS(fs);
2847:../sd_card/fatfs/ff.c **** 		break;
2848:../sd_card/fatfs/ff.c **** 	case FS_FAT16:
2849:../sd_card/fatfs/ff.c **** 		n_fat = ((n_clst * 2) + 4 + SS(fs) - 1) / SS(fs);
2850:../sd_card/fatfs/ff.c **** 		n_rsv = 1 + partition;
2851:../sd_card/fatfs/ff.c **** 		n_dir = N_ROOTDIR * 32 / SS(fs);
2852:../sd_card/fatfs/ff.c **** 		break;
 19117              		.loc 1 2852 0
 19118 0114 88BF     		it	hi
 19119 0116 0325     		movhi	r5, #3
 19120              	.LVL47:
 19121              		.loc 1 2839 0
 19122 0118 22D8     		bhi	.L45
 19123              	.LVL48:
 19124              		.loc 1 2842 0
 19125 011a 012D     		cmp	r5, #1
 19126 011c 02D0     		beq	.L46
 19127 011e 022D     		cmp	r5, #2
 19128 0120 1ED1     		bne	.L45
 19129 0122 10E0     		b	.L76
 19130              	.L46:
 19131              		.loc 1 2844 0
 19132 0124 03EB4303 		add	r3, r3, r3, lsl #1
 19133              	.LVL49:
 19134 0128 03F10107 		add	r7, r3, #1
 19135 012c 4FEA5707 		lsr	r7, r7, #1
 19136 0130 07F50077 		add	r7, r7, #512
 19137 0134 07F10207 		add	r7, r7, #2
 19138 0138 4FEA5727 		lsr	r7, r7, #9
 19139              	.LVL50:
 19140              		.loc 1 2845 0
 19141 013c 04F10109 		add	r9, r4, #1
 19142              	.LVL51:
 19143 0140 4FF0200B 		mov	fp, #32
 19144              	.LVL52:
 19145              		.loc 1 2847 0
 19146 0144 18E0     		b	.L48
 19147              	.LVL53:
 19148              	.L76:
 19149              		.loc 1 2849 0
 19150 0146 4FEA4303 		lsl	r3, r3, #1
 19151              	.LVL54:
 19152 014a 03F50077 		add	r7, r3, #512
 19153 014e 07F10307 		add	r7, r7, #3
 19154 0152 4FEA5727 		lsr	r7, r7, #9
 19155              	.LVL55:
 19156              		.loc 1 2850 0
 19157 0156 04F10109 		add	r9, r4, #1
 19158              	.LVL56:
 19159 015a 4FF0200B 		mov	fp, #32
 19160              	.LVL57:
 19161              		.loc 1 2852 0
 19162 015e 0BE0     		b	.L48
 19163              	.LVL58:
 19164              	.L45:
2853:../sd_card/fatfs/ff.c **** 	default:
2854:../sd_card/fatfs/ff.c **** 		n_fat = ((n_clst * 4) + 8 + SS(fs) - 1) / SS(fs);
 19165              		.loc 1 2854 0
 19166 0160 4FEA8303 		lsl	r3, r3, #2
 19167              	.LVL59:
 19168 0164 03F50077 		add	r7, r3, #512
 19169 0168 07F10707 		add	r7, r7, #7
 19170 016c 4FEA5727 		lsr	r7, r7, #9
 19171              	.LVL60:
2855:../sd_card/fatfs/ff.c **** 		n_rsv = 33 - partition;
 19172              		.loc 1 2855 0
 19173 0170 C4F12109 		rsb	r9, r4, #33
 19174              	.LVL61:
 19175 0174 4FF0000B 		mov	fp, #0
 19176              	.LVL62:
 19177              	.L48:
2856:../sd_card/fatfs/ff.c **** 		n_dir = 0;
2857:../sd_card/fatfs/ff.c **** 	}
2858:../sd_card/fatfs/ff.c **** 	b_fat = b_part + n_rsv;			/* FATs start sector */
2859:../sd_card/fatfs/ff.c **** 	b_dir = b_fat + n_fat * N_FATS;	/* Directory start sector */
2860:../sd_card/fatfs/ff.c **** 	b_data = b_dir + n_dir;			/* Data start sector */
2861:../sd_card/fatfs/ff.c **** 
2862:../sd_card/fatfs/ff.c **** 	/* Align data start sector to erase block boundary (for flash memory media) */
2863:../sd_card/fatfs/ff.c **** 	if (disk_ioctl(drv, GET_BLOCK_SIZE, &n) != RES_OK) return FR_MKFS_ABORTED;
 19178              		.loc 1 2863 0
 19179 0178 4FF00000 		mov	r0, #0
 19180 017c 4FF00301 		mov	r1, #3
 19181 0180 0CAA     		add	r2, sp, #48
 19182 0182 FFF7FEFF 		bl	disk_ioctl
 19183 0186 0028     		cmp	r0, #0
 19184 0188 40F09482 		bne	.L24
 19185              		.loc 1 2858 0
 19186 018c 09EB0A00 		add	r0, r9, sl
 19187 0190 0290     		str	r0, [sp, #8]
 19188              		.loc 1 2860 0
 19189 0192 0BEB0703 		add	r3, fp, r7
 19190 0196 0344     		add	r3, r3, r0
 19191              	.LVL63:
2864:../sd_card/fatfs/ff.c **** 	n = (b_data + n - 1) & ~(n - 1);
 19192              		.loc 1 2864 0
 19193 0198 0C9A     		ldr	r2, [sp, #48]
 19194 019a 02F1FF31 		add	r1, r2, #-1
 19195 019e 1944     		add	r1, r1, r3
 19196 01a0 C2F10002 		rsb	r2, r2, #0
 19197 01a4 01EA0202 		and	r2, r1, r2
 19198              	.LVL64:
 19199 01a8 0C92     		str	r2, [sp, #48]
2865:../sd_card/fatfs/ff.c **** 	n_fat += (n - b_data) / N_FATS;
 19200              		.loc 1 2865 0
 19201 01aa C3EB0707 		rsb	r7, r3, r7
 19202              	.LVL65:
 19203 01ae 1744     		add	r7, r7, r2
 19204              	.LVL66:
2866:../sd_card/fatfs/ff.c **** 	/* b_dir and b_data are no longer used below */
2867:../sd_card/fatfs/ff.c **** 
2868:../sd_card/fatfs/ff.c **** 	/* Determine number of cluster and final check of validity of the FAT type */
2869:../sd_card/fatfs/ff.c **** 	n_clst = (n_part - n_rsv - n_fat * N_FATS - n_dir) / allocsize;
 19205              		.loc 1 2869 0
 19206 01b0 0D9B     		ldr	r3, [sp, #52]
 19207              	.LVL67:
 19208 01b2 C9EB0302 		rsb	r2, r9, r3
 19209              	.LVL68:
 19210 01b6 C7EB0202 		rsb	r2, r7, r2
 19211 01ba CBEB0202 		rsb	r2, fp, r2
 19212 01be 0199     		ldr	r1, [sp, #4]
 19213 01c0 B2FBF1F2 		udiv	r2, r2, r1
 19214 01c4 0192     		str	r2, [sp, #4]
2870:../sd_card/fatfs/ff.c **** 	if (   (fmt == FS_FAT16 && n_clst < 0xFF5)
 19215              		.loc 1 2870 0
 19216 01c6 40F6F472 		movw	r2, #4084
 19217 01ca 0198     		ldr	r0, [sp, #4]
 19218 01cc 9042     		cmp	r0, r2
 19219 01ce 8CBF     		ite	hi
 19220 01d0 0022     		movhi	r2, #0
 19221 01d2 0122     		movls	r2, #1
 19222 01d4 022D     		cmp	r5, #2
 19223 01d6 14BF     		ite	ne
 19224 01d8 0022     		movne	r2, #0
 19225 01da 02F00102 		andeq	r2, r2, #1
 19226 01de 002A     		cmp	r2, #0
 19227 01e0 40F06882 		bne	.L24
2871:../sd_card/fatfs/ff.c **** 		|| (fmt == FS_FAT32 && n_clst < 0xFFF5))
 19228              		.loc 1 2871 0
 19229 01e4 032D     		cmp	r5, #3
 19230 01e6 14BF     		ite	ne
 19231 01e8 0021     		movne	r1, #0
 19232 01ea 0121     		moveq	r1, #1
 19233 01ec 0391     		str	r1, [sp, #12]
 19234              		.loc 1 2870 0
 19235 01ee 4FF6F472 		movw	r2, #65524
 19236 01f2 9042     		cmp	r0, r2
 19237 01f4 8CBF     		ite	hi
 19238 01f6 0021     		movhi	r1, #0
 19239 01f8 01F00101 		andls	r1, r1, #1
 19240 01fc 0029     		cmp	r1, #0
 19241 01fe 40F05982 		bne	.L24
2872:../sd_card/fatfs/ff.c **** 		return FR_MKFS_ABORTED;
2873:../sd_card/fatfs/ff.c **** 
2874:../sd_card/fatfs/ff.c **** 	/* Create partition table if needed */
2875:../sd_card/fatfs/ff.c **** 	if (!partition) {
 19242              		.loc 1 2875 0
 19243 0202 1CB1     		cbz	r4, .L49
 19244 0204 4FF0F002 		mov	r2, #240
 19245 0208 0992     		str	r2, [sp, #36]
 19246 020a 6CE0     		b	.L50
 19247              	.L49:
 19248              	.LBB2:
2876:../sd_card/fatfs/ff.c **** 		DWORD n_disk = b_part + n_part;
 19249              		.loc 1 2876 0
 19250 020c 0AEB0304 		add	r4, sl, r3
 19251              	.LVL69:
2877:../sd_card/fatfs/ff.c **** 
2878:../sd_card/fatfs/ff.c **** 		mem_set(fs->win, 0, SS(fs));
 19252              		.loc 1 2878 0
 19253 0210 06F13000 		add	r0, r6, #48
 19254 0214 4FF00001 		mov	r1, #0
 19255 0218 4FF40072 		mov	r2, #512
 19256 021c FFF7FEFF 		bl	mem_set
2879:../sd_card/fatfs/ff.c **** 		tbl = fs->win+MBR_Table;
 19257              		.loc 1 2879 0
 19258 0220 06F5F773 		add	r3, r6, #494
 19259              	.LVL70:
2880:../sd_card/fatfs/ff.c **** 		ST_DWORD(tbl, 0x00010180);		/* Partition start in CHS */
 19260              		.loc 1 2880 0
 19261 0224 6FF07F02 		mvn	r2, #127
 19262 0228 86F8EE21 		strb	r2, [r6, #494]
 19263 022c 4FF00102 		mov	r2, #1
 19264 0230 5A70     		strb	r2, [r3, #1]
 19265 0232 9A70     		strb	r2, [r3, #2]
 19266 0234 4FF00002 		mov	r2, #0
 19267 0238 DA70     		strb	r2, [r3, #3]
2881:../sd_card/fatfs/ff.c **** 		if (n_disk < 63UL * 255 * 1024) {	/* Partition end in CHS */
 19268              		.loc 1 2881 0
 19269 023a 40F2FF32 		movw	r2, #:lower16:16450559
 19270 023e C0F2FB02 		movt	r2, #:upper16:16450559
 19271 0242 9442     		cmp	r4, r2
2882:../sd_card/fatfs/ff.c **** 			n_disk = n_disk / 63 / 255;
2883:../sd_card/fatfs/ff.c **** 			tbl[7] = (BYTE)n_disk;
2884:../sd_card/fatfs/ff.c **** 			tbl[6] = (BYTE)((n_disk >> 2) | 63);
2885:../sd_card/fatfs/ff.c **** 		} else {
2886:../sd_card/fatfs/ff.c **** 			ST_WORD(&tbl[6], 0xFFFF);
 19272              		.loc 1 2886 0
 19273 0244 82BF     		ittt	hi
 19274 0246 4FF0FF32 		movhi	r2, #-1
 19275 024a 9A71     		strbhi	r2, [r3, #6]
 19276 024c DA71     		strbhi	r2, [r3, #7]
 19277              		.loc 1 2881 0
 19278 024e 11D8     		bhi	.L52
 19279              		.loc 1 2882 0
 19280 0250 45F25B62 		movw	r2, #:lower16:85284443
 19281 0254 C0F21552 		movt	r2, #:upper16:85284443
 19282 0258 A2FB0402 		umull	r0, r2, r2, r4
 19283 025c C2EB0404 		rsb	r4, r2, r4
 19284              	.LVL71:
 19285 0260 02EB5402 		add	r2, r2, r4, lsr #1
 19286 0264 4FEA5231 		lsr	r1, r2, #13
 19287              	.LVL72:
 19288              		.loc 1 2883 0
 19289 0268 D971     		strb	r1, [r3, #7]
 19290              		.loc 1 2884 0
 19291 026a 4FEAD232 		lsr	r2, r2, #15
 19292 026e 42F03F02 		orr	r2, r2, #63
 19293 0272 9A71     		strb	r2, [r3, #6]
 19294              	.LVL73:
 19295              	.L52:
2887:../sd_card/fatfs/ff.c **** 		}
2888:../sd_card/fatfs/ff.c **** 		tbl[5] = 254;
 19296              		.loc 1 2888 0
 19297 0274 6FF00102 		mvn	r2, #1
 19298 0278 5A71     		strb	r2, [r3, #5]
2889:../sd_card/fatfs/ff.c **** 		if (fmt != FS_FAT32)			/* System ID */
 19299              		.loc 1 2889 0
 19300 027a 032D     		cmp	r5, #3
2890:../sd_card/fatfs/ff.c **** 			tbl[4] = (n_part < 0x10000) ? 0x04 : 0x06;
2891:../sd_card/fatfs/ff.c **** 		else
2892:../sd_card/fatfs/ff.c **** 			tbl[4] = 0x0c;
 19301              		.loc 1 2892 0
 19302 027c 04BF     		itt	eq
 19303 027e 0C22     		moveq	r2, #12
 19304 0280 1A71     		strbeq	r2, [r3, #4]
 19305              		.loc 1 2889 0
 19306 0282 06D0     		beq	.L56
 19307              		.loc 1 2890 0
 19308 0284 0D9A     		ldr	r2, [sp, #52]
 19309 0286 B2F5803F 		cmp	r2, #65536
 19310 028a 34BF     		ite	cc
 19311 028c 0422     		movcc	r2, #4
 19312 028e 0622     		movcs	r2, #6
 19313 0290 1A71     		strb	r2, [r3, #4]
 19314              	.L56:
2893:../sd_card/fatfs/ff.c **** 		ST_DWORD(tbl+8, 63);			/* Partition start in LBA */
 19315              		.loc 1 2893 0
 19316 0292 4FF03F02 		mov	r2, #63
 19317 0296 1A72     		strb	r2, [r3, #8]
 19318 0298 4FF00002 		mov	r2, #0
 19319 029c 5A72     		strb	r2, [r3, #9]
 19320 029e 9A72     		strb	r2, [r3, #10]
 19321 02a0 DA72     		strb	r2, [r3, #11]
2894:../sd_card/fatfs/ff.c **** 		ST_DWORD(tbl+12, n_part);		/* Partition size in LBA */
 19322              		.loc 1 2894 0
 19323 02a2 0D99     		ldr	r1, [sp, #52]
 19324 02a4 1973     		strb	r1, [r3, #12]
 19325 02a6 BDF83410 		ldrh	r1, [sp, #52]
 19326              	.LVL74:
 19327 02aa 4FEA1121 		lsr	r1, r1, #8
 19328              	.LVL75:
 19329 02ae 5973     		strb	r1, [r3, #13]
 19330 02b0 BDF83610 		ldrh	r1, [sp, #54]
 19331              	.LVL76:
 19332 02b4 9973     		strb	r1, [r3, #14]
 19333 02b6 9DF83710 		ldrb	r1, [sp, #55]	@ zero_extendqisi2
 19334              	.LVL77:
 19335 02ba D973     		strb	r1, [r3, #15]
2895:../sd_card/fatfs/ff.c **** 		ST_WORD(tbl+64, 0xAA55);		/* Signature */
 19336              		.loc 1 2895 0
 19337 02bc 4FF05501 		mov	r1, #85
 19338 02c0 83F84010 		strb	r1, [r3, #64]
 19339 02c4 6FF05501 		mvn	r1, #85
 19340 02c8 83F84110 		strb	r1, [r3, #65]
2896:../sd_card/fatfs/ff.c **** 		if (disk_write(drv, fs->win, 0, 1) != RES_OK)
 19341              		.loc 1 2896 0
 19342 02cc 1046     		mov	r0, r2
 19343 02ce 06F13001 		add	r1, r6, #48
 19344 02d2 4FF00103 		mov	r3, #1
 19345              	.LVL78:
 19346 02d6 FFF7FEFF 		bl	disk_write
 19347 02da 0028     		cmp	r0, #0
 19348 02dc 40F0ED81 		bne	.L57
 19349 02e0 4FF0F801 		mov	r1, #248
 19350 02e4 0991     		str	r1, [sp, #36]
 19351              	.LVL79:
 19352              	.L50:
 19353              	.LBE2:
2897:../sd_card/fatfs/ff.c **** 			return FR_DISK_ERR;
2898:../sd_card/fatfs/ff.c **** 		partition = 0xF8;
2899:../sd_card/fatfs/ff.c **** 	} else {
2900:../sd_card/fatfs/ff.c **** 		partition = 0xF0;
2901:../sd_card/fatfs/ff.c **** 	}
2902:../sd_card/fatfs/ff.c **** 
2903:../sd_card/fatfs/ff.c **** 	/* Create boot record */
2904:../sd_card/fatfs/ff.c **** 	tbl = fs->win;								/* Clear buffer */
 19354              		.loc 1 2904 0
 19355 02e6 06F13004 		add	r4, r6, #48
 19356              	.LVL80:
2905:../sd_card/fatfs/ff.c **** 	mem_set(tbl, 0, SS(fs));
 19357              		.loc 1 2905 0
 19358 02ea 2046     		mov	r0, r4
 19359 02ec 4FF00001 		mov	r1, #0
 19360 02f0 4FF40072 		mov	r2, #512
 19361 02f4 FFF7FEFF 		bl	mem_set
2906:../sd_card/fatfs/ff.c **** 	ST_DWORD(tbl+BS_jmpBoot, 0x90FEEB);			/* Boot code (jmp $, nop) */
 19362              		.loc 1 2906 0
 19363 02f8 6FF01403 		mvn	r3, #20
 19364 02fc 86F83030 		strb	r3, [r6, #48]
 19365 0300 6FF00103 		mvn	r3, #1
 19366 0304 3246     		mov	r2, r6
 19367 0306 02F8313F 		strb	r3, [r2, #49]!
 19368 030a 0692     		str	r2, [sp, #24]
 19369 030c 6FF06F03 		mvn	r3, #111
 19370 0310 3046     		mov	r0, r6
 19371 0312 00F8323F 		strb	r3, [r0, #50]!
 19372 0316 0590     		str	r0, [sp, #20]
 19373 0318 4FF00003 		mov	r3, #0
 19374 031c 3146     		mov	r1, r6
 19375 031e 01F8333F 		strb	r3, [r1, #51]!
 19376 0322 0491     		str	r1, [sp, #16]
2907:../sd_card/fatfs/ff.c **** 	ST_WORD(tbl+BPB_BytsPerSec, SS(fs));		/* Sector size */
 19377              		.loc 1 2907 0
 19378 0324 3246     		mov	r2, r6
 19379 0326 02F83B3F 		strb	r3, [r2, #59]!
 19380 032a 0792     		str	r2, [sp, #28]
 19381 032c 4FF00203 		mov	r3, #2
 19382 0330 2373     		strb	r3, [r4, #12]
2908:../sd_card/fatfs/ff.c **** 	tbl[BPB_SecPerClus] = (BYTE)allocsize;		/* Sectors per cluster */
 19383              		.loc 1 2908 0
 19384 0332 5FFA88F3 		uxtb	r3, r8
 19385 0336 0A93     		str	r3, [sp, #40]
 19386 0338 6373     		strb	r3, [r4, #13]
2909:../sd_card/fatfs/ff.c **** 	ST_WORD(tbl+BPB_RsvdSecCnt, n_rsv);			/* Reserved sectors */
 19387              		.loc 1 2909 0
 19388 033a 84F80E90 		strb	r9, [r4, #14]
 19389 033e C9F30729 		ubfx	r9, r9, #8, #8
 19390              	.LVL81:
 19391 0342 84F80F90 		strb	r9, [r4, #15]
2910:../sd_card/fatfs/ff.c **** 	tbl[BPB_NumFATs] = N_FATS;					/* Number of FATs */
 19392              		.loc 1 2910 0
 19393 0346 4FF00103 		mov	r3, #1
 19394 034a 2374     		strb	r3, [r4, #16]
2911:../sd_card/fatfs/ff.c **** 	ST_WORD(tbl+BPB_RootEntCnt, SS(fs) / 32 * n_dir); /* Number of rootdir entries */
 19395              		.loc 1 2911 0
 19396 034c 4FEA0B13 		lsl	r3, fp, #4
 19397 0350 6374     		strb	r3, [r4, #17]
 19398 0352 BBF1000F 		cmp	fp, #0
 19399 0356 14BF     		ite	ne
 19400 0358 0223     		movne	r3, #2
 19401 035a 0023     		moveq	r3, #0
 19402 035c A374     		strb	r3, [r4, #18]
2912:../sd_card/fatfs/ff.c **** 	if (n_part < 0x10000) {						/* Number of total sectors */
 19403              		.loc 1 2912 0
 19404 035e 0D9B     		ldr	r3, [sp, #52]
 19405 0360 B3F5803F 		cmp	r3, #65536
 19406 0364 06D2     		bcs	.L58
2913:../sd_card/fatfs/ff.c **** 		ST_WORD(tbl+BPB_TotSec16, n_part);
 19407              		.loc 1 2913 0
 19408 0366 E374     		strb	r3, [r4, #19]
 19409 0368 BDF83430 		ldrh	r3, [sp, #52]
 19410              	.LVL82:
 19411 036c 4FEA1323 		lsr	r3, r3, #8
 19412              	.LVL83:
 19413 0370 2375     		strb	r3, [r4, #20]
 19414 0372 0FE0     		b	.L59
 19415              	.LVL84:
 19416              	.L58:
2914:../sd_card/fatfs/ff.c **** 	} else {
2915:../sd_card/fatfs/ff.c **** 		ST_DWORD(tbl+BPB_TotSec32, n_part);
 19417              		.loc 1 2915 0
 19418 0374 84F82030 		strb	r3, [r4, #32]
 19419 0378 BDF83430 		ldrh	r3, [sp, #52]
 19420              	.LVL85:
 19421 037c 4FEA1323 		lsr	r3, r3, #8
 19422              	.LVL86:
 19423 0380 84F82130 		strb	r3, [r4, #33]
 19424 0384 BDF83630 		ldrh	r3, [sp, #54]
 19425 0388 84F82230 		strb	r3, [r4, #34]
 19426 038c 9DF83730 		ldrb	r3, [sp, #55]	@ zero_extendqisi2
 19427 0390 84F82330 		strb	r3, [r4, #35]
 19428              	.L59:
2916:../sd_card/fatfs/ff.c **** 	}
2917:../sd_card/fatfs/ff.c **** 	tbl[BPB_Media] = partition;					/* Media descriptor */
 19429              		.loc 1 2917 0
 19430 0394 0998     		ldr	r0, [sp, #36]
 19431 0396 6075     		strb	r0, [r4, #21]
2918:../sd_card/fatfs/ff.c **** 	ST_WORD(tbl+BPB_SecPerTrk, 63);				/* Number of sectors per track */
 19432              		.loc 1 2918 0
 19433 0398 4FF03F03 		mov	r3, #63
 19434 039c 2376     		strb	r3, [r4, #24]
 19435 039e 4FF00003 		mov	r3, #0
 19436 03a2 6376     		strb	r3, [r4, #25]
2919:../sd_card/fatfs/ff.c **** 	ST_WORD(tbl+BPB_NumHeads, 255);				/* Number of heads */
 19437              		.loc 1 2919 0
 19438 03a4 4FF0FF32 		mov	r2, #-1
 19439 03a8 A276     		strb	r2, [r4, #26]
 19440 03aa E376     		strb	r3, [r4, #27]
2920:../sd_card/fatfs/ff.c **** 	ST_DWORD(tbl+BPB_HiddSec, b_part);			/* Hidden sectors */
 19441              		.loc 1 2920 0
 19442 03ac 84F81CA0 		strb	sl, [r4, #28]
 19443 03b0 6377     		strb	r3, [r4, #29]
 19444 03b2 4FEA1A43 		lsr	r3, sl, #16
 19445 03b6 A377     		strb	r3, [r4, #30]
 19446 03b8 4FEA1A63 		lsr	r3, sl, #24
 19447 03bc E377     		strb	r3, [r4, #31]
2921:../sd_card/fatfs/ff.c **** 	n = get_fattime();							/* Use current time as a VSN */
 19448              		.loc 1 2921 0
 19449 03be FFF7FEFF 		bl	get_fattime
 19450 03c2 0C90     		str	r0, [sp, #48]
2922:../sd_card/fatfs/ff.c **** 	if (fmt != FS_FAT32) {
 19451              		.loc 1 2922 0
 19452 03c4 032D     		cmp	r5, #3
 19453 03c6 26D0     		beq	.L60
2923:../sd_card/fatfs/ff.c **** 		ST_DWORD(tbl+BS_VolID, n);				/* Volume serial number */
 19454              		.loc 1 2923 0
 19455 03c8 84F82700 		strb	r0, [r4, #39]
 19456 03cc BDF83030 		ldrh	r3, [sp, #48]
 19457              	.LVL87:
 19458 03d0 4FEA1323 		lsr	r3, r3, #8
 19459              	.LVL88:
 19460 03d4 84F82830 		strb	r3, [r4, #40]
 19461 03d8 BDF83230 		ldrh	r3, [sp, #50]
 19462              	.LVL89:
 19463 03dc 84F82930 		strb	r3, [r4, #41]
 19464 03e0 9DF83330 		ldrb	r3, [sp, #51]	@ zero_extendqisi2
 19465              	.LVL90:
 19466 03e4 84F82A30 		strb	r3, [r4, #42]
2924:../sd_card/fatfs/ff.c **** 		ST_WORD(tbl+BPB_FATSz16, n_fat);		/* Number of sectors per FAT */
 19467              		.loc 1 2924 0
 19468 03e8 A775     		strb	r7, [r4, #22]
 19469              	.LVL91:
 19470 03ea C7F30723 		ubfx	r3, r7, #8, #8
 19471              	.LVL92:
 19472 03ee E375     		strb	r3, [r4, #23]
2925:../sd_card/fatfs/ff.c **** 		tbl[BS_DrvNum] = 0x80;					/* Drive number */
 19473              		.loc 1 2925 0
 19474 03f0 6FF07F03 		mvn	r3, #127
 19475 03f4 84F82430 		strb	r3, [r4, #36]
2926:../sd_card/fatfs/ff.c **** 		tbl[BS_BootSig] = 0x29;					/* Extended boot signature */
 19476              		.loc 1 2926 0
 19477 03f8 4FF02903 		mov	r3, #41
 19478 03fc 84F82630 		strb	r3, [r4, #38]
2927:../sd_card/fatfs/ff.c **** 		mem_cpy(tbl+BS_VolLab, "NO NAME    FAT     ", 19);	/* Volume label, FAT signature */
 19479              		.loc 1 2927 0
 19480 0400 04F12B00 		add	r0, r4, #43
 19481 0404 40F20001 		movw	r1, #:lower16:.LC0
 19482 0408 C0F20001 		movt	r1, #:upper16:.LC0
 19483 040c 4FF01302 		mov	r2, #19
 19484 0410 FFF7FEFF 		bl	mem_cpy
 19485 0414 47E0     		b	.L61
 19486              	.LVL93:
 19487              	.L60:
2928:../sd_card/fatfs/ff.c **** 	} else {
2929:../sd_card/fatfs/ff.c **** 		ST_DWORD(tbl+BS_VolID32, n);			/* Volume serial number */
 19488              		.loc 1 2929 0
 19489 0416 84F84300 		strb	r0, [r4, #67]
 19490 041a BDF83030 		ldrh	r3, [sp, #48]
 19491              	.LVL94:
 19492 041e 4FEA1323 		lsr	r3, r3, #8
 19493              	.LVL95:
 19494 0422 84F84430 		strb	r3, [r4, #68]
 19495 0426 BDF83230 		ldrh	r3, [sp, #50]
 19496              	.LVL96:
 19497 042a 84F84530 		strb	r3, [r4, #69]
 19498 042e 9DF83330 		ldrb	r3, [sp, #51]	@ zero_extendqisi2
 19499              	.LVL97:
 19500 0432 84F84630 		strb	r3, [r4, #70]
2930:../sd_card/fatfs/ff.c **** 		ST_DWORD(tbl+BPB_FATSz32, n_fat);		/* Number of sectors per FAT */
 19501              		.loc 1 2930 0
 19502 0436 84F82470 		strb	r7, [r4, #36]
 19503              	.LVL98:
 19504 043a C7F30723 		ubfx	r3, r7, #8, #8
 19505              	.LVL99:
 19506 043e 84F82530 		strb	r3, [r4, #37]
 19507 0442 4FEA1743 		lsr	r3, r7, #16
 19508 0446 84F82630 		strb	r3, [r4, #38]
 19509 044a 4FEA1763 		lsr	r3, r7, #24
 19510 044e 84F82730 		strb	r3, [r4, #39]
2931:../sd_card/fatfs/ff.c **** 		ST_DWORD(tbl+BPB_RootClus, 2);			/* Root directory cluster (2) */
 19511              		.loc 1 2931 0
 19512 0452 4FF00203 		mov	r3, #2
 19513 0456 84F82C30 		strb	r3, [r4, #44]
 19514 045a 4FF00003 		mov	r3, #0
 19515 045e 84F82D30 		strb	r3, [r4, #45]
 19516 0462 84F82E30 		strb	r3, [r4, #46]
 19517 0466 84F82F30 		strb	r3, [r4, #47]
2932:../sd_card/fatfs/ff.c **** 		ST_WORD(tbl+BPB_FSInfo, 1);				/* FSInfo record offset (bs+1) */
 19518              		.loc 1 2932 0
 19519 046a 4FF00102 		mov	r2, #1
 19520 046e 84F83020 		strb	r2, [r4, #48]
 19521 0472 84F83130 		strb	r3, [r4, #49]
2933:../sd_card/fatfs/ff.c **** 		ST_WORD(tbl+BPB_BkBootSec, 6);			/* Backup boot record offset (bs+6) */
 19522              		.loc 1 2933 0
 19523 0476 4FF00602 		mov	r2, #6
 19524 047a 84F83220 		strb	r2, [r4, #50]
 19525 047e 84F83330 		strb	r3, [r4, #51]
2934:../sd_card/fatfs/ff.c **** 		tbl[BS_DrvNum32] = 0x80;				/* Drive number */
 19526              		.loc 1 2934 0
 19527 0482 6FF07F03 		mvn	r3, #127
 19528 0486 84F84030 		strb	r3, [r4, #64]
2935:../sd_card/fatfs/ff.c **** 		tbl[BS_BootSig32] = 0x29;				/* Extended boot signature */
 19529              		.loc 1 2935 0
 19530 048a 4FF02903 		mov	r3, #41
 19531 048e 84F84230 		strb	r3, [r4, #66]
2936:../sd_card/fatfs/ff.c **** 		mem_cpy(tbl+BS_VolLab32, "NO NAME    FAT32   ", 19);	/* Volume label, FAT signature */
 19532              		.loc 1 2936 0
 19533 0492 04F14700 		add	r0, r4, #71
 19534 0496 40F20001 		movw	r1, #:lower16:.LC1
 19535 049a C0F20001 		movt	r1, #:upper16:.LC1
 19536 049e 4FF01302 		mov	r2, #19
 19537 04a2 FFF7FEFF 		bl	mem_cpy
 19538              	.L61:
2937:../sd_card/fatfs/ff.c **** 	}
2938:../sd_card/fatfs/ff.c **** 	ST_WORD(tbl+BS_55AA, 0xAA55);				/* Signature */
 19539              		.loc 1 2938 0
 19540 04a6 04F5FF73 		add	r3, r4, #510
 19541 04aa 0B93     		str	r3, [sp, #44]
 19542 04ac 4FF05503 		mov	r3, #85
 19543 04b0 0B98     		ldr	r0, [sp, #44]
 19544 04b2 0370     		strb	r3, [r0, #0]
 19545 04b4 04F5FE71 		add	r1, r4, #508
 19546 04b8 6FF05503 		mvn	r3, #85
 19547 04bc 01F8033F 		strb	r3, [r1, #3]!
 19548 04c0 0891     		str	r1, [sp, #32]
2939:../sd_card/fatfs/ff.c **** 	if (SS(fs) > 512U) {
2940:../sd_card/fatfs/ff.c **** 		ST_WORD(tbl+SS(fs)-2, 0xAA55);
2941:../sd_card/fatfs/ff.c **** 	}
2942:../sd_card/fatfs/ff.c **** 	if (disk_write(drv, tbl, b_part+0, 1) != RES_OK)
 19549              		.loc 1 2942 0
 19550 04c2 4FF00000 		mov	r0, #0
 19551 04c6 2146     		mov	r1, r4
 19552 04c8 5246     		mov	r2, sl
 19553 04ca 4FF00103 		mov	r3, #1
 19554 04ce FFF7FEFF 		bl	disk_write
 19555 04d2 0028     		cmp	r0, #0
 19556 04d4 40F0F180 		bne	.L57
2943:../sd_card/fatfs/ff.c **** 		return FR_DISK_ERR;
2944:../sd_card/fatfs/ff.c **** 	if (fmt == FS_FAT32)
 19557              		.loc 1 2944 0
 19558 04d8 039A     		ldr	r2, [sp, #12]
 19559 04da 32B1     		cbz	r2, .L62
2945:../sd_card/fatfs/ff.c **** 		disk_write(drv, tbl, b_part+6, 1);
 19560              		.loc 1 2945 0
 19561 04dc 2146     		mov	r1, r4
 19562 04de 0AF10602 		add	r2, sl, #6
 19563 04e2 4FF00103 		mov	r3, #1
 19564 04e6 FFF7FEFF 		bl	disk_write
 19565              	.L62:
2946:../sd_card/fatfs/ff.c **** 
2947:../sd_card/fatfs/ff.c **** 	/* Initialize FAT area */
2948:../sd_card/fatfs/ff.c **** 	for (m = 0; m < N_FATS; m++) {
2949:../sd_card/fatfs/ff.c **** 		mem_set(tbl, 0, SS(fs));		/* 1st sector of the FAT  */
 19566              		.loc 1 2949 0
 19567 04ea 2046     		mov	r0, r4
 19568 04ec 4FF00001 		mov	r1, #0
 19569 04f0 4FF40072 		mov	r2, #512
 19570 04f4 FFF7FEFF 		bl	mem_set
2950:../sd_card/fatfs/ff.c **** 		if (fmt != FS_FAT32) {
 19571              		.loc 1 2950 0
 19572 04f8 032D     		cmp	r5, #3
 19573 04fa 1CD0     		beq	.L63
2951:../sd_card/fatfs/ff.c **** 			n = (fmt == FS_FAT12) ? 0x00FFFF00 : 0xFFFFFF00;
 19574              		.loc 1 2951 0
 19575 04fc 012D     		cmp	r5, #1
 19576 04fe 4FF60073 		movw	r3, #:lower16:16776960
 19577 0502 C0F2FF03 		movt	r3, #:upper16:16776960
 19578 0506 18BF     		it	ne
 19579 0508 6FF0FF03 		mvnne	r3, #255
 19580              	.LVL100:
2952:../sd_card/fatfs/ff.c **** 			n |= partition;
 19581              		.loc 1 2952 0
 19582 050c 0998     		ldr	r0, [sp, #36]
 19583 050e 43EA0003 		orr	r3, r3, r0
 19584              	.LVL101:
 19585 0512 0C93     		str	r3, [sp, #48]
2953:../sd_card/fatfs/ff.c **** 			ST_DWORD(tbl, n);				/* Reserve cluster #0-1 (FAT12/16) */
 19586              		.loc 1 2953 0
 19587 0514 86F83030 		strb	r3, [r6, #48]
 19588 0518 BDF83030 		ldrh	r3, [sp, #48]
 19589              	.LVL102:
 19590 051c 4FEA1323 		lsr	r3, r3, #8
 19591              	.LVL103:
 19592 0520 0699     		ldr	r1, [sp, #24]
 19593 0522 0B70     		strb	r3, [r1, #0]
 19594 0524 BDF83230 		ldrh	r3, [sp, #50]
 19595 0528 059A     		ldr	r2, [sp, #20]
 19596 052a 1370     		strb	r3, [r2, #0]
 19597 052c 9DF83330 		ldrb	r3, [sp, #51]	@ zero_extendqisi2
 19598 0530 0498     		ldr	r0, [sp, #16]
 19599 0532 0370     		strb	r3, [r0, #0]
 19600 0534 16E0     		b	.L66
 19601              	.L63:
2954:../sd_card/fatfs/ff.c **** 		} else {
2955:../sd_card/fatfs/ff.c **** 			ST_DWORD(tbl+0, 0xFFFFFFF8);	/* Reserve cluster #0-1 (FAT32) */
 19602              		.loc 1 2955 0
 19603 0536 6FF00703 		mvn	r3, #7
 19604 053a 86F83030 		strb	r3, [r6, #48]
 19605 053e 4FF0FF33 		mov	r3, #-1
 19606 0542 0699     		ldr	r1, [sp, #24]
 19607 0544 0B70     		strb	r3, [r1, #0]
 19608 0546 059A     		ldr	r2, [sp, #20]
 19609 0548 1370     		strb	r3, [r2, #0]
 19610 054a 0498     		ldr	r0, [sp, #16]
 19611 054c 0370     		strb	r3, [r0, #0]
2956:../sd_card/fatfs/ff.c **** 			ST_DWORD(tbl+4, 0xFFFFFFFF);
 19612              		.loc 1 2956 0
 19613 054e 2371     		strb	r3, [r4, #4]
 19614 0550 6371     		strb	r3, [r4, #5]
 19615 0552 A371     		strb	r3, [r4, #6]
 19616 0554 E371     		strb	r3, [r4, #7]
2957:../sd_card/fatfs/ff.c **** 			ST_DWORD(tbl+8, 0x0FFFFFFF);	/* Reserve cluster #2 for root dir */
 19617              		.loc 1 2957 0
 19618 0556 2372     		strb	r3, [r4, #8]
 19619 0558 6372     		strb	r3, [r4, #9]
 19620 055a A372     		strb	r3, [r4, #10]
 19621 055c 4FF00F03 		mov	r3, #15
 19622 0560 0799     		ldr	r1, [sp, #28]
 19623 0562 0B70     		strb	r3, [r1, #0]
 19624              	.L66:
2958:../sd_card/fatfs/ff.c **** 		}
2959:../sd_card/fatfs/ff.c **** 		if (disk_write(drv, tbl, b_fat++, 1) != RES_OK)
 19625              		.loc 1 2959 0
 19626 0564 4FF00000 		mov	r0, #0
 19627 0568 2146     		mov	r1, r4
 19628 056a 029A     		ldr	r2, [sp, #8]
 19629 056c 4FF00103 		mov	r3, #1
 19630 0570 FFF7FEFF 		bl	disk_write
 19631 0574 0028     		cmp	r0, #0
 19632 0576 40F0A080 		bne	.L57
 19633 057a 029A     		ldr	r2, [sp, #8]
 19634 057c 02F10105 		add	r5, r2, #1
 19635              	.LVL104:
2960:../sd_card/fatfs/ff.c **** 			return FR_DISK_ERR;
2961:../sd_card/fatfs/ff.c **** 		mem_set(tbl, 0, SS(fs));		/* Following FAT entries are filled by zero */
 19636              		.loc 1 2961 0
 19637 0580 2046     		mov	r0, r4
 19638 0582 4FF00001 		mov	r1, #0
 19639 0586 4FF40072 		mov	r2, #512
 19640 058a FFF7FEFF 		bl	mem_set
2962:../sd_card/fatfs/ff.c **** 		for (n = 1; n < n_fat; n++) {
 19641              		.loc 1 2962 0
 19642 058e 4FF00103 		mov	r3, #1
 19643 0592 0C93     		str	r3, [sp, #48]
 19644              	.LVL105:
 19645 0594 9F42     		cmp	r7, r3
 19646 0596 13D9     		bls	.L67
2963:../sd_card/fatfs/ff.c **** 			if (disk_write(drv, tbl, b_fat++, 1) != RES_OK)
 19647              		.loc 1 2963 0
 19648 0598 4FF00008 		mov	r8, #0
 19649              	.LVL106:
 19650 059c 9946     		mov	r9, r3
 19651              	.LVL107:
 19652              	.L73:
 19653 059e 4046     		mov	r0, r8
 19654 05a0 2146     		mov	r1, r4
 19655 05a2 2A46     		mov	r2, r5
 19656 05a4 4B46     		mov	r3, r9
 19657 05a6 FFF7FEFF 		bl	disk_write
 19658 05aa 0028     		cmp	r0, #0
 19659 05ac 40F08580 		bne	.L57
 19660 05b0 05F10105 		add	r5, r5, #1
 19661              	.LVL108:
 19662              		.loc 1 2962 0
 19663 05b4 0C9B     		ldr	r3, [sp, #48]
 19664 05b6 03F10103 		add	r3, r3, #1
 19665              	.LVL109:
 19666 05ba 0C93     		str	r3, [sp, #48]
 19667 05bc 9F42     		cmp	r7, r3
 19668 05be EED8     		bhi	.L73
 19669              	.LVL110:
 19670              	.L67:
2964:../sd_card/fatfs/ff.c **** 				return FR_DISK_ERR;
2965:../sd_card/fatfs/ff.c **** 		}
2966:../sd_card/fatfs/ff.c **** 	}
2967:../sd_card/fatfs/ff.c **** 
2968:../sd_card/fatfs/ff.c **** 	/* Initialize Root directory */
2969:../sd_card/fatfs/ff.c **** 	m = (BYTE)((fmt == FS_FAT32) ? allocsize : n_dir);
 19671              		.loc 1 2969 0
 19672 05c0 039B     		ldr	r3, [sp, #12]
 19673 05c2 13B9     		cbnz	r3, .L69
 19674 05c4 5FFA8BF0 		uxtb	r0, fp
 19675 05c8 0A90     		str	r0, [sp, #40]
 19676              	.L69:
2970:../sd_card/fatfs/ff.c **** 	do {
2971:../sd_card/fatfs/ff.c **** 		if (disk_write(drv, tbl, b_fat++, 1) != RES_OK)
 19677              		.loc 1 2971 0
 19678 05ca 4FF00009 		mov	r9, #0
 19679 05ce 4FF0010B 		mov	fp, #1
 19680              	.LVL111:
 19681 05d2 2A46     		mov	r2, r5
 19682 05d4 DDF82880 		ldr	r8, [sp, #40]
 19683              	.LVL112:
 19684              	.L75:
 19685 05d8 02F10107 		add	r7, r2, #1
 19686              	.LVL113:
 19687 05dc 4846     		mov	r0, r9
 19688 05de 2146     		mov	r1, r4
 19689 05e0 5B46     		mov	r3, fp
 19690 05e2 FFF7FEFF 		bl	disk_write
 19691 05e6 0028     		cmp	r0, #0
 19692 05e8 67D1     		bne	.L57
2972:../sd_card/fatfs/ff.c **** 			return FR_DISK_ERR;
2973:../sd_card/fatfs/ff.c **** 	} while (--m);
 19693              		.loc 1 2973 0
 19694 05ea 08F1FF38 		add	r8, r8, #-1
 19695              	.LVL114:
 19696 05ee 5FFA88F8 		uxtb	r8, r8
 19697              	.LVL115:
 19698 05f2 B8F1000F 		cmp	r8, #0
 19699 05f6 01D0     		beq	.L70
 19700 05f8 3A46     		mov	r2, r7
 19701 05fa EDE7     		b	.L75
 19702              	.LVL116:
 19703              	.L70:
2974:../sd_card/fatfs/ff.c **** 
2975:../sd_card/fatfs/ff.c **** 	/* Create FSInfo record if needed */
2976:../sd_card/fatfs/ff.c **** 	if (fmt == FS_FAT32) {
 19704              		.loc 1 2976 0
 19705 05fc 0399     		ldr	r1, [sp, #12]
 19706 05fe 0029     		cmp	r1, #0
 19707 0600 4ED0     		beq	.L71
2977:../sd_card/fatfs/ff.c **** 		ST_WORD(tbl+BS_55AA, 0xAA55);
 19708              		.loc 1 2977 0
 19709 0602 4FF05503 		mov	r3, #85
 19710 0606 0B9A     		ldr	r2, [sp, #44]
 19711 0608 1370     		strb	r3, [r2, #0]
 19712 060a A3F1AB03 		sub	r3, r3, #171
 19713 060e 0898     		ldr	r0, [sp, #32]
 19714 0610 0370     		strb	r3, [r0, #0]
2978:../sd_card/fatfs/ff.c **** 		ST_DWORD(tbl+FSI_LeadSig, 0x41615252);
 19715              		.loc 1 2978 0
 19716 0612 03F1A803 		add	r3, r3, #168
 19717 0616 86F83030 		strb	r3, [r6, #48]
 19718 061a 0699     		ldr	r1, [sp, #24]
 19719 061c 0B70     		strb	r3, [r1, #0]
 19720 061e 03F10F03 		add	r3, r3, #15
 19721 0622 059A     		ldr	r2, [sp, #20]
 19722 0624 1370     		strb	r3, [r2, #0]
 19723 0626 4FF04102 		mov	r2, #65
 19724 062a 0498     		ldr	r0, [sp, #16]
 19725 062c 0270     		strb	r2, [r0, #0]
2979:../sd_card/fatfs/ff.c **** 		ST_DWORD(tbl+FSI_StrucSig, 0x61417272);
 19726              		.loc 1 2979 0
 19727 062e 4FF07201 		mov	r1, #114
 19728 0632 84F8E411 		strb	r1, [r4, #484]
 19729 0636 84F8E511 		strb	r1, [r4, #485]
 19730 063a 84F8E621 		strb	r2, [r4, #486]
 19731 063e 84F8E731 		strb	r3, [r4, #487]
2980:../sd_card/fatfs/ff.c **** 		ST_DWORD(tbl+FSI_Free_Count, n_clst - 1);
 19732              		.loc 1 2980 0
 19733 0642 0199     		ldr	r1, [sp, #4]
 19734 0644 01F1FF33 		add	r3, r1, #-1
 19735 0648 84F8E831 		strb	r3, [r4, #488]
 19736 064c 4FEA1323 		lsr	r3, r3, #8
 19737 0650 84F8E931 		strb	r3, [r4, #489]
 19738 0654 01F1FF33 		add	r3, r1, #-1
 19739 0658 4FEA1342 		lsr	r2, r3, #16
 19740 065c 84F8EA21 		strb	r2, [r4, #490]
 19741 0660 4FEA1363 		lsr	r3, r3, #24
 19742 0664 84F8EB31 		strb	r3, [r4, #491]
2981:../sd_card/fatfs/ff.c **** 		ST_DWORD(tbl+FSI_Nxt_Free, 0xFFFFFFFF);
 19743              		.loc 1 2981 0
 19744 0668 4FF0FF33 		mov	r3, #-1
 19745 066c 84F8EC31 		strb	r3, [r4, #492]
 19746 0670 84F8ED31 		strb	r3, [r4, #493]
 19747 0674 84F8EE31 		strb	r3, [r4, #494]
 19748 0678 84F8EF31 		strb	r3, [r4, #495]
2982:../sd_card/fatfs/ff.c **** 		disk_write(drv, tbl, b_part+1, 1);
 19749              		.loc 1 2982 0
 19750 067c 4FF00000 		mov	r0, #0
 19751 0680 2146     		mov	r1, r4
 19752 0682 0AF10102 		add	r2, sl, #1
 19753 0686 03F10203 		add	r3, r3, #2
 19754 068a FFF7FEFF 		bl	disk_write
2983:../sd_card/fatfs/ff.c **** 		disk_write(drv, tbl, b_part+7, 1);
 19755              		.loc 1 2983 0
 19756 068e 4FF00000 		mov	r0, #0
 19757 0692 2146     		mov	r1, r4
 19758 0694 0AF10702 		add	r2, sl, #7
 19759 0698 4FF00103 		mov	r3, #1
 19760 069c FFF7FEFF 		bl	disk_write
 19761              	.L71:
2984:../sd_card/fatfs/ff.c **** 	}
2985:../sd_card/fatfs/ff.c **** 
2986:../sd_card/fatfs/ff.c **** 	return (disk_ioctl(drv, CTRL_SYNC, (void*)NULL) == RES_OK) ? FR_OK : FR_DISK_ERR;
 19762              		.loc 1 2986 0
 19763 06a0 4FF00000 		mov	r0, #0
 19764 06a4 0146     		mov	r1, r0
 19765 06a6 0246     		mov	r2, r0
 19766 06a8 FFF7FEFF 		bl	disk_ioctl
 19767 06ac 0038     		subs	r0, r0, #0
 19768 06ae 18BF     		it	ne
 19769 06b0 0120     		movne	r0, #1
 19770 06b2 04E0     		b	.L23
 19771              	.LVL117:
 19772              	.L24:
 19773 06b4 4FF00E00 		mov	r0, #14
 19774              	.LVL118:
 19775 06b8 01E0     		b	.L23
 19776              	.LVL119:
 19777              	.L57:
 19778 06ba 4FF00100 		mov	r0, #1
 19779              	.LVL120:
 19780              	.L23:
2987:../sd_card/fatfs/ff.c **** }
 19781              		.loc 1 2987 0
 19782 06be 0FB0     		add	sp, sp, #60
 19783 06c0 BDE8F08F 		pop	{r4, r5, r6, r7, r8, r9, sl, fp, pc}
 19784              		.cfi_endproc
 19785              	.LFE60:
 19787              		.section	.text.validate,"ax",%progbits
 19788              		.align	2
 19789              		.thumb
 19790              		.thumb_func
 19792              	validate:
 19793              	.LFB50:
 19794              		.loc 1 1601 0
 19795              		.cfi_startproc
 19796              		@ args = 0, pretend = 0, frame = 0
 19797              		@ frame_needed = 0, uses_anonymous_args = 0
 19798              	.LVL121:
 19799 0000 08B5     		push	{r3, lr}
 19800              	.LCFI2:
 19801              		.cfi_def_cfa_offset 8
 19802              		.loc 1 1602 0
 19803 0002 68B1     		cbz	r0, .L78
 19804              		.cfi_offset 14, -4
 19805              		.cfi_offset 3, -8
 19806 0004 0278     		ldrb	r2, [r0, #0]	@ zero_extendqisi2
 19807 0006 5AB1     		cbz	r2, .L78
 19808 0008 C288     		ldrh	r2, [r0, #6]
 19809 000a 8A42     		cmp	r2, r1
 19810 000c 08D1     		bne	.L78
 19811              		.loc 1 1607 0
 19812 000e 4078     		ldrb	r0, [r0, #1]	@ zero_extendqisi2
 19813              	.LVL122:
 19814 0010 FFF7FEFF 		bl	disk_status
 19815              	.LVL123:
 19816 0014 10F0010F 		tst	r0, #1
 19817 0018 14BF     		ite	ne
 19818 001a 0320     		movne	r0, #3
 19819 001c 0020     		moveq	r0, #0
 19820 001e 08BD     		pop	{r3, pc}
 19821              	.LVL124:
 19822              	.L78:
 19823 0020 4FF00900 		mov	r0, #9
 19824              	.LVL125:
 19825              		.loc 1 1611 0
 19826 0024 08BD     		pop	{r3, pc}
 19827              		.cfi_endproc
 19828              	.LFE50:
 19830 0026 00BF     		.section	.text.move_window,"ax",%progbits
 19831              		.align	2
 19832              		.thumb
 19833              		.thumb_func
 19835              	move_window:
 19836              	.LFB33:
 19837              		.loc 1 247 0
 19838              		.cfi_startproc
 19839              		@ args = 0, pretend = 0, frame = 0
 19840              		@ frame_needed = 0, uses_anonymous_args = 0
 19841              	.LVL126:
 19842 0000 2DE9F845 		push	{r3, r4, r5, r6, r7, r8, sl, lr}
 19843              	.LCFI3:
 19844              		.cfi_def_cfa_offset 32
 19845 0004 0446     		mov	r4, r0
 19846              		.cfi_offset 14, -4
 19847              		.cfi_offset 10, -8
 19848              		.cfi_offset 8, -12
 19849              		.cfi_offset 7, -16
 19850              		.cfi_offset 6, -20
 19851              		.cfi_offset 5, -24
 19852              		.cfi_offset 4, -28
 19853              		.cfi_offset 3, -32
 19854 0006 0E46     		mov	r6, r1
 19855              		.loc 1 251 0
 19856 0008 C56A     		ldr	r5, [r0, #44]
 19857              	.LVL127:
 19858              		.loc 1 252 0
 19859 000a 8D42     		cmp	r5, r1
 19860 000c 36D0     		beq	.L83
 19861              		.loc 1 254 0
 19862 000e 0379     		ldrb	r3, [r0, #4]	@ zero_extendqisi2
 19863 0010 1BB3     		cbz	r3, .L84
 19864              		.loc 1 255 0
 19865 0012 00F13008 		add	r8, r0, #48
 19866 0016 4078     		ldrb	r0, [r0, #1]	@ zero_extendqisi2
 19867              	.LVL128:
 19868 0018 4146     		mov	r1, r8
 19869              	.LVL129:
 19870 001a 2A46     		mov	r2, r5
 19871 001c 4FF00103 		mov	r3, #1
 19872 0020 FFF7FEFF 		bl	disk_write
 19873 0024 30BB     		cbnz	r0, .L85
 19874              		.loc 1 257 0
 19875 0026 4FF00003 		mov	r3, #0
 19876 002a 2371     		strb	r3, [r4, #4]
 19877              		.loc 1 258 0
 19878 002c A269     		ldr	r2, [r4, #24]
 19879 002e 236A     		ldr	r3, [r4, #32]
 19880 0030 1344     		add	r3, r2, r3
 19881 0032 9D42     		cmp	r5, r3
 19882 0034 11D2     		bcs	.L84
 19883              	.LBB3:
 19884              		.loc 1 260 0
 19885 0036 E778     		ldrb	r7, [r4, #3]	@ zero_extendqisi2
 19886              	.LVL130:
 19887 0038 012F     		cmp	r7, #1
 19888 003a 0ED9     		bls	.L84
 19889              		.loc 1 262 0
 19890 003c 4FF0010A 		mov	sl, #1
 19891              	.L89:
 19892              		.loc 1 261 0
 19893 0040 A369     		ldr	r3, [r4, #24]
 19894 0042 1D44     		add	r5, r5, r3
 19895              		.loc 1 262 0
 19896 0044 6078     		ldrb	r0, [r4, #1]	@ zero_extendqisi2
 19897 0046 4146     		mov	r1, r8
 19898 0048 2A46     		mov	r2, r5
 19899 004a 5346     		mov	r3, sl
 19900 004c FFF7FEFF 		bl	disk_write
 19901              		.loc 1 260 0
 19902 0050 07F1FF37 		add	r7, r7, #-1
 19903              	.LVL131:
 19904 0054 FFB2     		uxtb	r7, r7
 19905              	.LVL132:
 19906 0056 012F     		cmp	r7, #1
 19907 0058 F2D8     		bhi	.L89
 19908              	.LVL133:
 19909              	.L84:
 19910              	.LBE3:
 19911              		.loc 1 267 0
 19912 005a 7EB1     		cbz	r6, .L83
 19913              		.loc 1 268 0
 19914 005c 6078     		ldrb	r0, [r4, #1]	@ zero_extendqisi2
 19915 005e 04F13001 		add	r1, r4, #48
 19916 0062 3246     		mov	r2, r6
 19917 0064 4FF00103 		mov	r3, #1
 19918 0068 FFF7FEFF 		bl	disk_read
 19919 006c 10B9     		cbnz	r0, .L85
 19920              		.loc 1 270 0
 19921 006e E662     		str	r6, [r4, #44]
 19922 0070 BDE8F885 		pop	{r3, r4, r5, r6, r7, r8, sl, pc}
 19923              	.L85:
 19924 0074 4FF00100 		mov	r0, #1
 19925 0078 BDE8F885 		pop	{r3, r4, r5, r6, r7, r8, sl, pc}
 19926              	.LVL134:
 19927              	.L83:
 19928 007c 4FF00000 		mov	r0, #0
 19929              	.LVL135:
 19930              		.loc 1 275 0
 19931 0080 BDE8F885 		pop	{r3, r4, r5, r6, r7, r8, sl, pc}
 19932              		.cfi_endproc
 19933              	.LFE33:
 19935              		.section	.text.f_sync,"ax",%progbits
 19936              		.align	2
 19937              		.global	f_sync
 19938              		.thumb
 19939              		.thumb_func
 19941              	f_sync:
 19942              	.LFB55:
 19943              		.loc 1 1976 0
 19944              		.cfi_startproc
 19945              		@ args = 0, pretend = 0, frame = 0
 19946              		@ frame_needed = 0, uses_anonymous_args = 0
 19947              	.LVL136:
 19948 0000 F8B5     		push	{r3, r4, r5, r6, r7, lr}
 19949              	.LCFI4:
 19950              		.cfi_def_cfa_offset 24
 19951 0002 0546     		mov	r5, r0
 19952              		.cfi_offset 14, -4
 19953              		.cfi_offset 7, -8
 19954              		.cfi_offset 6, -12
 19955              		.cfi_offset 5, -16
 19956              		.cfi_offset 4, -20
 19957              		.cfi_offset 3, -24
 19958              		.loc 1 1982 0
 19959 0004 0068     		ldr	r0, [r0, #0]
 19960              	.LVL137:
 19961 0006 A988     		ldrh	r1, [r5, #4]
 19962 0008 FFF7FEFF 		bl	validate
 19963              		.loc 1 1983 0
 19964 000c 0446     		mov	r4, r0
 19965              	.LVL138:
 19966 000e 0028     		cmp	r0, #0
 19967 0010 40F0A780 		bne	.L92
 19968              		.loc 1 1984 0
 19969 0014 AB79     		ldrb	r3, [r5, #6]	@ zero_extendqisi2
 19970 0016 13F0200F 		tst	r3, #32
 19971 001a 00F0A280 		beq	.L92
 19972              		.loc 1 1993 0
 19973 001e 2868     		ldr	r0, [r5, #0]
 19974 0020 E969     		ldr	r1, [r5, #28]
 19975 0022 FFF7FEFF 		bl	move_window
 19976              		.loc 1 1994 0
 19977 0026 0446     		mov	r4, r0
 19978              	.LVL139:
 19979 0028 0028     		cmp	r0, #0
 19980 002a 40F09A80 		bne	.L92
 19981              		.loc 1 1995 0
 19982 002e 2C6A     		ldr	r4, [r5, #32]
 19983              	.LVL140:
 19984              		.loc 1 1996 0
 19985 0030 2346     		mov	r3, r4
 19986 0032 13F80B2F 		ldrb	r2, [r3, #11]!	@ zero_extendqisi2
 19987 0036 42F02002 		orr	r2, r2, #32
 19988 003a 1A70     		strb	r2, [r3, #0]
 19989              		.loc 1 1997 0
 19990 003c EB68     		ldr	r3, [r5, #12]
 19991 003e 2377     		strb	r3, [r4, #28]
 19992 0040 AB89     		ldrh	r3, [r5, #12]
 19993 0042 4FEA1323 		lsr	r3, r3, #8
 19994 0046 6377     		strb	r3, [r4, #29]
 19995 0048 EB89     		ldrh	r3, [r5, #14]
 19996 004a A377     		strb	r3, [r4, #30]
 19997 004c EB7B     		ldrb	r3, [r5, #15]	@ zero_extendqisi2
 19998 004e E377     		strb	r3, [r4, #31]
 19999              		.loc 1 1998 0
 20000 0050 2B69     		ldr	r3, [r5, #16]
 20001 0052 A376     		strb	r3, [r4, #26]
 20002 0054 2B8A     		ldrh	r3, [r5, #16]
 20003 0056 4FEA1323 		lsr	r3, r3, #8
 20004 005a E376     		strb	r3, [r4, #27]
 20005              		.loc 1 1999 0
 20006 005c 6B8A     		ldrh	r3, [r5, #18]
 20007 005e 2375     		strb	r3, [r4, #20]
 20008 0060 6B8A     		ldrh	r3, [r5, #18]
 20009 0062 4FEA1323 		lsr	r3, r3, #8
 20010 0066 6375     		strb	r3, [r4, #21]
 20011              		.loc 1 2000 0
 20012 0068 FFF7FEFF 		bl	get_fattime
 20013              		.loc 1 2001 0
 20014 006c A075     		strb	r0, [r4, #22]
 20015              	.LVL141:
 20016 006e C0F30723 		ubfx	r3, r0, #8, #8
 20017 0072 E375     		strb	r3, [r4, #23]
 20018 0074 4FEA1043 		lsr	r3, r0, #16
 20019 0078 2376     		strb	r3, [r4, #24]
 20020 007a 4FEA1060 		lsr	r0, r0, #24
 20021              	.LVL142:
 20022 007e 6076     		strb	r0, [r4, #25]
 20023              		.loc 1 2002 0
 20024 0080 AB79     		ldrb	r3, [r5, #6]	@ zero_extendqisi2
 20025 0082 23F02003 		bic	r3, r3, #32
 20026 0086 AB71     		strb	r3, [r5, #6]
 20027              		.loc 1 2003 0
 20028 0088 2B68     		ldr	r3, [r5, #0]
 20029 008a 4FF00102 		mov	r2, #1
 20030 008e 1A71     		strb	r2, [r3, #4]
 20031              		.loc 1 2004 0
 20032 0090 2D68     		ldr	r5, [r5, #0]
 20033              	.LVL143:
 20034              	.LBB6:
 20035              	.LBB7:
 20036              		.loc 1 292 0
 20037 0092 2846     		mov	r0, r5
 20038 0094 4FF00001 		mov	r1, #0
 20039 0098 FFF7FEFF 		bl	move_window
 20040              		.loc 1 293 0
 20041 009c 0446     		mov	r4, r0
 20042              	.LVL144:
 20043 009e 0028     		cmp	r0, #0
 20044 00a0 5FD1     		bne	.L92
 20045              		.loc 1 295 0
 20046 00a2 2B78     		ldrb	r3, [r5, #0]	@ zero_extendqisi2
 20047 00a4 032B     		cmp	r3, #3
 20048 00a6 53D1     		bne	.L93
 20049 00a8 6B79     		ldrb	r3, [r5, #5]	@ zero_extendqisi2
 20050 00aa 002B     		cmp	r3, #0
 20051 00ac 50D0     		beq	.L93
 20052              		.loc 1 296 0
 20053 00ae 4FF00006 		mov	r6, #0
 20054 00b2 EE62     		str	r6, [r5, #44]
 20055              		.loc 1 297 0
 20056 00b4 05F13007 		add	r7, r5, #48
 20057 00b8 3846     		mov	r0, r7
 20058 00ba 3146     		mov	r1, r6
 20059 00bc 4FF40072 		mov	r2, #512
 20060 00c0 FFF7FEFF 		bl	mem_set
 20061              		.loc 1 298 0
 20062 00c4 4FF05503 		mov	r3, #85
 20063 00c8 85F82E32 		strb	r3, [r5, #558]
 20064 00cc 6FF05503 		mvn	r3, #85
 20065 00d0 85F82F32 		strb	r3, [r5, #559]
 20066              		.loc 1 299 0
 20067 00d4 4FF05203 		mov	r3, #82
 20068 00d8 85F83030 		strb	r3, [r5, #48]
 20069 00dc 85F83130 		strb	r3, [r5, #49]
 20070 00e0 4FF06103 		mov	r3, #97
 20071 00e4 85F83230 		strb	r3, [r5, #50]
 20072 00e8 4FF04102 		mov	r2, #65
 20073 00ec 85F83320 		strb	r2, [r5, #51]
 20074              		.loc 1 300 0
 20075 00f0 4FF07201 		mov	r1, #114
 20076 00f4 85F81412 		strb	r1, [r5, #532]
 20077 00f8 85F81512 		strb	r1, [r5, #533]
 20078 00fc 85F81622 		strb	r2, [r5, #534]
 20079 0100 85F81732 		strb	r3, [r5, #535]
 20080              		.loc 1 301 0
 20081 0104 2B69     		ldr	r3, [r5, #16]
 20082 0106 85F81832 		strb	r3, [r5, #536]
 20083 010a C3F30722 		ubfx	r2, r3, #8, #8
 20084 010e 85F81922 		strb	r2, [r5, #537]
 20085 0112 4FEA1342 		lsr	r2, r3, #16
 20086 0116 85F81A22 		strb	r2, [r5, #538]
 20087 011a 4FEA1363 		lsr	r3, r3, #24
 20088 011e 85F81B32 		strb	r3, [r5, #539]
 20089              		.loc 1 302 0
 20090 0122 EB68     		ldr	r3, [r5, #12]
 20091 0124 85F81C32 		strb	r3, [r5, #540]
 20092 0128 C3F30722 		ubfx	r2, r3, #8, #8
 20093 012c 85F81D22 		strb	r2, [r5, #541]
 20094 0130 4FEA1342 		lsr	r2, r3, #16
 20095 0134 85F81E22 		strb	r2, [r5, #542]
 20096 0138 4FEA1363 		lsr	r3, r3, #24
 20097 013c 85F81F32 		strb	r3, [r5, #543]
 20098              		.loc 1 303 0
 20099 0140 6878     		ldrb	r0, [r5, #1]	@ zero_extendqisi2
 20100 0142 3946     		mov	r1, r7
 20101 0144 6A69     		ldr	r2, [r5, #20]
 20102 0146 4FF00103 		mov	r3, #1
 20103 014a FFF7FEFF 		bl	disk_write
 20104              		.loc 1 304 0
 20105 014e 6E71     		strb	r6, [r5, #5]
 20106              	.L93:
 20107              		.loc 1 307 0
 20108 0150 6878     		ldrb	r0, [r5, #1]	@ zero_extendqisi2
 20109 0152 4FF00001 		mov	r1, #0
 20110 0156 0A46     		mov	r2, r1
 20111 0158 FFF7FEFF 		bl	disk_ioctl
 20112 015c 0028     		cmp	r0, #0
 20113 015e 18BF     		it	ne
 20114 0160 0124     		movne	r4, #1
 20115              	.LVL145:
 20116              	.L92:
 20117              	.LBE7:
 20118              	.LBE6:
 20119              		.loc 1 2010 0
 20120 0162 2046     		mov	r0, r4
 20121 0164 F8BD     		pop	{r3, r4, r5, r6, r7, pc}
 20122              		.cfi_endproc
 20123              	.LFE55:
 20125 0166 00BF     		.section	.text.f_close,"ax",%progbits
 20126              		.align	2
 20127              		.global	f_close
 20128              		.thumb
 20129              		.thumb_func
 20131              	f_close:
 20132              	.LFB56:
 20133              		.loc 1 2024 0
 20134              		.cfi_startproc
 20135              		@ args = 0, pretend = 0, frame = 0
 20136              		@ frame_needed = 0, uses_anonymous_args = 0
 20137              	.LVL146:
 20138 0000 10B5     		push	{r4, lr}
 20139              	.LCFI5:
 20140              		.cfi_def_cfa_offset 8
 20141 0002 0446     		mov	r4, r0
 20142              		.cfi_offset 14, -4
 20143              		.cfi_offset 4, -8
 20144              		.loc 1 2035 0
 20145 0004 FFF7FEFF 		bl	f_sync
 20146              	.LVL147:
 20147              		.loc 1 2036 0
 20148 0008 0346     		mov	r3, r0
 20149              	.LVL148:
 20150 000a 10B9     		cbnz	r0, .L96
 20151 000c 4FF00002 		mov	r2, #0
 20152 0010 2260     		str	r2, [r4, #0]
 20153              	.L96:
 20154              		.loc 1 2039 0
 20155 0012 1846     		mov	r0, r3
 20156 0014 10BD     		pop	{r4, pc}
 20157              		.cfi_endproc
 20158              	.LFE56:
 20160 0016 00BF     		.section	.text.put_fat,"ax",%progbits
 20161              		.align	2
 20162              		.global	put_fat
 20163              		.thumb
 20164              		.thumb_func
 20166              	put_fat:
 20167              	.LFB36:
 20168              		.loc 1 370 0
 20169              		.cfi_startproc
 20170              		@ args = 0, pretend = 0, frame = 0
 20171              		@ frame_needed = 0, uses_anonymous_args = 0
 20172              	.LVL149:
 20173 0000 2DE9F041 		push	{r4, r5, r6, r7, r8, lr}
 20174              	.LCFI6:
 20175              		.cfi_def_cfa_offset 24
 20176 0004 0446     		mov	r4, r0
 20177              		.cfi_offset 14, -4
 20178              		.cfi_offset 8, -8
 20179              		.cfi_offset 7, -12
 20180              		.cfi_offset 6, -16
 20181              		.cfi_offset 5, -20
 20182              		.cfi_offset 4, -24
 20183 0006 0D46     		mov	r5, r1
 20184 0008 1646     		mov	r6, r2
 20185              		.loc 1 377 0
 20186 000a 0129     		cmp	r1, #1
 20187 000c 7BD9     		bls	.L99
 20188              	.LVL150:
 20189 000e C369     		ldr	r3, [r0, #28]
 20190 0010 9942     		cmp	r1, r3
 20191 0012 78D2     		bcs	.L99
 20192              	.LVL151:
 20193              		.loc 1 381 0
 20194 0014 076A     		ldr	r7, [r0, #32]
 20195              	.LVL152:
 20196              		.loc 1 382 0
 20197 0016 0378     		ldrb	r3, [r0, #0]	@ zero_extendqisi2
 20198 0018 022B     		cmp	r3, #2
 20199 001a 47D0     		beq	.L102
 20200 001c 032B     		cmp	r3, #3
 20201 001e 56D0     		beq	.L103
 20202 0020 012B     		cmp	r3, #1
 20203 0022 18BF     		it	ne
 20204 0024 0223     		movne	r3, #2
 20205              	.LVL153:
 20206 0026 6AD1     		bne	.L104
 20207              		.loc 1 384 0
 20208 0028 01EB5108 		add	r8, r1, r1, lsr #1
 20209              	.LVL154:
 20210              		.loc 1 385 0
 20211 002c 07EB5821 		add	r1, r7, r8, lsr #9
 20212              	.LVL155:
 20213 0030 FFF7FEFF 		bl	move_window
 20214              	.LVL156:
 20215              		.loc 1 386 0
 20216 0034 0346     		mov	r3, r0
 20217              	.LVL157:
 20218 0036 0028     		cmp	r0, #0
 20219 0038 61D1     		bne	.L104
 20220              		.loc 1 387 0
 20221 003a 4FEAC853 		lsl	r3, r8, #23
 20222              	.LVL158:
 20223 003e 4FEAD353 		lsr	r3, r3, #23
 20224              		.loc 1 388 0
 20225 0042 15F00105 		ands	r5, r5, #1
 20226              	.LVL159:
 20227 0046 1FBF     		itttt	ne
 20228 0048 1A19     		addne	r2, r3, r4
 20229 004a 92F83020 		ldrbne	r2, [r2, #48]	@ zero_extendqisi2
 20230 004e F1B2     		uxtbne	r1, r6
 20231              	.LVL160:
 20232 0050 02F00F02 		andne	r2, r2, #15
 20233 0054 1ABF     		itte	ne
 20234 0056 42EA0112 		orrne	r2, r2, r1, lsl #4
 20235 005a D2B2     		uxtbne	r2, r2
 20236 005c F2B2     		uxtbeq	r2, r6
 20237 005e 2344     		add	r3, r3, r4
 20238 0060 83F83020 		strb	r2, [r3, #48]
 20239              		.loc 1 389 0
 20240 0064 08F10108 		add	r8, r8, #1
 20241              	.LVL161:
 20242              		.loc 1 390 0
 20243 0068 4FF00103 		mov	r3, #1
 20244 006c 2371     		strb	r3, [r4, #4]
 20245              		.loc 1 391 0
 20246 006e 2046     		mov	r0, r4
 20247 0070 07EB5821 		add	r1, r7, r8, lsr #9
 20248              	.LVL162:
 20249 0074 FFF7FEFF 		bl	move_window
 20250              		.loc 1 392 0
 20251 0078 0346     		mov	r3, r0
 20252              	.LVL163:
 20253 007a 0028     		cmp	r0, #0
 20254 007c 3FD1     		bne	.L104
 20255              		.loc 1 393 0
 20256 007e 4FEAC858 		lsl	r8, r8, #23
 20257              	.LVL164:
 20258 0082 4FEAD858 		lsr	r8, r8, #23
 20259              		.loc 1 394 0
 20260 0086 15B1     		cbz	r5, .L107
 20261 0088 C6F30716 		ubfx	r6, r6, #4, #8
 20262              	.LVL165:
 20263 008c 09E0     		b	.L108
 20264              	.LVL166:
 20265              	.L107:
 20266 008e 08EB0402 		add	r2, r8, r4
 20267 0092 92F83020 		ldrb	r2, [r2, #48]	@ zero_extendqisi2
 20268 0096 C6F30326 		ubfx	r6, r6, #8, #4
 20269              	.LVL167:
 20270 009a 02F0F002 		and	r2, r2, #240
 20271 009e 42EA0606 		orr	r6, r2, r6
 20272              	.L108:
 20273 00a2 08EB0402 		add	r2, r8, r4
 20274 00a6 82F83060 		strb	r6, [r2, #48]
 20275              		.loc 1 395 0
 20276 00aa 28E0     		b	.L104
 20277              	.LVL168:
 20278              	.L102:
 20279              		.loc 1 398 0
 20280 00ac 07EB1121 		add	r1, r7, r1, lsr #8
 20281              	.LVL169:
 20282 00b0 FFF7FEFF 		bl	move_window
 20283              	.LVL170:
 20284              		.loc 1 399 0
 20285 00b4 0346     		mov	r3, r0
 20286              	.LVL171:
 20287 00b6 10BB     		cbnz	r0, .L104
 20288              		.loc 1 400 0
 20289 00b8 4FEA0565 		lsl	r5, r5, #24
 20290              	.LVL172:
 20291 00bc 04EBD555 		add	r5, r4, r5, lsr #23
 20292 00c0 85F83060 		strb	r6, [r5, #48]
 20293 00c4 C6F30726 		ubfx	r6, r6, #8, #8
 20294              	.LVL173:
 20295 00c8 85F83160 		strb	r6, [r5, #49]
 20296              		.loc 1 401 0
 20297 00cc 17E0     		b	.L104
 20298              	.LVL174:
 20299              	.L103:
 20300              		.loc 1 404 0
 20301 00ce 07EBD111 		add	r1, r7, r1, lsr #7
 20302              	.LVL175:
 20303 00d2 FFF7FEFF 		bl	move_window
 20304              	.LVL176:
 20305              		.loc 1 405 0
 20306 00d6 0346     		mov	r3, r0
 20307              	.LVL177:
 20308 00d8 88B9     		cbnz	r0, .L104
 20309              		.loc 1 406 0
 20310 00da 4FEA4565 		lsl	r5, r5, #25
 20311              	.LVL178:
 20312 00de 04EBD555 		add	r5, r4, r5, lsr #23
 20313 00e2 85F83060 		strb	r6, [r5, #48]
 20314 00e6 C6F30722 		ubfx	r2, r6, #8, #8
 20315 00ea 85F83120 		strb	r2, [r5, #49]
 20316 00ee 4FEA1642 		lsr	r2, r6, #16
 20317 00f2 85F83220 		strb	r2, [r5, #50]
 20318 00f6 4FEA1666 		lsr	r6, r6, #24
 20319              	.LVL179:
 20320 00fa 85F83360 		strb	r6, [r5, #51]
 20321              	.LVL180:
 20322              	.L104:
 20323              		.loc 1 412 0
 20324 00fe 4FF00102 		mov	r2, #1
 20325 0102 2271     		strb	r2, [r4, #4]
 20326 0104 01E0     		b	.L109
 20327              	.LVL181:
 20328              	.L99:
 20329 0106 4FF00203 		mov	r3, #2
 20330              	.LVL182:
 20331              	.L109:
 20332              		.loc 1 416 0
 20333 010a 1846     		mov	r0, r3
 20334              	.LVL183:
 20335 010c BDE8F081 		pop	{r4, r5, r6, r7, r8, pc}
 20336              		.cfi_endproc
 20337              	.LFE36:
 20339              		.section	.text.get_fat,"ax",%progbits
 20340              		.align	2
 20341              		.global	get_fat
 20342              		.thumb
 20343              		.thumb_func
 20345              	get_fat:
 20346              	.LFB35:
 20347              		.loc 1 327 0
 20348              		.cfi_startproc
 20349              		@ args = 0, pretend = 0, frame = 0
 20350              		@ frame_needed = 0, uses_anonymous_args = 0
