   1              		.syntax unified
   2              		.cpu cortex-m3
   3              		.fpu softvfp
   4              		.eabi_attribute 20, 1
   5              		.eabi_attribute 21, 1
   6              		.eabi_attribute 23, 3
   7              		.eabi_attribute 24, 1
   8              		.eabi_attribute 25, 1
   9              		.eabi_attribute 26, 1
  10              		.eabi_attribute 30, 1
  11              		.eabi_attribute 18, 4
  12              		.thumb
  13              		.file	"stm32f10x_tim.c"
  23              	.Ltext0:
  24              		.file 1 "../Library/STM32F10x_StdPeriph_Driver/src/stm32f10x_tim.c"
 18242              		.align	2
 18243              		.global	TIM_TimeBaseInit
 18244              		.thumb
 18245              		.thumb_func
 18247              	TIM_TimeBaseInit:
 18248              	.LFB30:
   1:../Library/STM32F10x_StdPeriph_Driver/src/stm32f10x_tim.c **** /**
   2:../Library/STM32F10x_StdPeriph_Driver/src/stm32f10x_tim.c ****   ******************************************************************************
   3:../Library/STM32F10x_StdPeriph_Driver/src/stm32f10x_tim.c ****   * @file    stm32f10x_tim.c
   4:../Library/STM32F10x_StdPeriph_Driver/src/stm32f10x_tim.c ****   * @author  MCD Application Team
   5:../Library/STM32F10x_StdPeriph_Driver/src/stm32f10x_tim.c ****   * @version V3.3.0
   6:../Library/STM32F10x_StdPeriph_Driver/src/stm32f10x_tim.c ****   * @date    04/16/2010
   7:../Library/STM32F10x_StdPeriph_Driver/src/stm32f10x_tim.c ****   * @brief   This file provides all the TIM firmware functions.
   8:../Library/STM32F10x_StdPeriph_Driver/src/stm32f10x_tim.c ****   ******************************************************************************
   9:../Library/STM32F10x_StdPeriph_Driver/src/stm32f10x_tim.c ****   * @copy
  10:../Library/STM32F10x_StdPeriph_Driver/src/stm32f10x_tim.c ****   *
  11:../Library/STM32F10x_StdPeriph_Driver/src/stm32f10x_tim.c ****   * THE PRESENT FIRMWARE WHICH IS FOR GUIDANCE ONLY AIMS AT PROVIDING CUSTOMERS
  12:../Library/STM32F10x_StdPeriph_Driver/src/stm32f10x_tim.c ****   * WITH CODING INFORMATION REGARDING THEIR PRODUCTS IN ORDER FOR THEM TO SAVE
  13:../Library/STM32F10x_StdPeriph_Driver/src/stm32f10x_tim.c ****   * TIME. AS A RESULT, STMICROELECTRONICS SHALL NOT BE HELD LIABLE FOR ANY
  14:../Library/STM32F10x_StdPeriph_Driver/src/stm32f10x_tim.c ****   * DIRECT, INDIRECT OR CONSEQUENTIAL DAMAGES WITH RESPECT TO ANY CLAIMS ARISING
  15:../Library/STM32F10x_StdPeriph_Driver/src/stm32f10x_tim.c ****   * FROM THE CONTENT OF SUCH FIRMWARE AND/OR THE USE MADE BY CUSTOMERS OF THE
  16:../Library/STM32F10x_StdPeriph_Driver/src/stm32f10x_tim.c ****   * CODING INFORMATION CONTAINED HEREIN IN CONNECTION WITH THEIR PRODUCTS.
  17:../Library/STM32F10x_StdPeriph_Driver/src/stm32f10x_tim.c ****   *
  18:../Library/STM32F10x_StdPeriph_Driver/src/stm32f10x_tim.c ****   * <h2><center>&copy; COPYRIGHT 2010 STMicroelectronics</center></h2>
  19:../Library/STM32F10x_StdPeriph_Driver/src/stm32f10x_tim.c ****   */ 
  20:../Library/STM32F10x_StdPeriph_Driver/src/stm32f10x_tim.c **** 
  21:../Library/STM32F10x_StdPeriph_Driver/src/stm32f10x_tim.c **** /* Includes ------------------------------------------------------------------*/
  22:../Library/STM32F10x_StdPeriph_Driver/src/stm32f10x_tim.c **** #include "stm32f10x_tim.h"
  23:../Library/STM32F10x_StdPeriph_Driver/src/stm32f10x_tim.c **** #include "stm32f10x_rcc.h"
  24:../Library/STM32F10x_StdPeriph_Driver/src/stm32f10x_tim.c **** 
  25:../Library/STM32F10x_StdPeriph_Driver/src/stm32f10x_tim.c **** /** @addtogroup STM32F10x_StdPeriph_Driver
  26:../Library/STM32F10x_StdPeriph_Driver/src/stm32f10x_tim.c ****   * @{
  27:../Library/STM32F10x_StdPeriph_Driver/src/stm32f10x_tim.c ****   */
  28:../Library/STM32F10x_StdPeriph_Driver/src/stm32f10x_tim.c **** 
  29:../Library/STM32F10x_StdPeriph_Driver/src/stm32f10x_tim.c **** /** @defgroup TIM 
  30:../Library/STM32F10x_StdPeriph_Driver/src/stm32f10x_tim.c ****   * @brief TIM driver modules
  31:../Library/STM32F10x_StdPeriph_Driver/src/stm32f10x_tim.c ****   * @{
  32:../Library/STM32F10x_StdPeriph_Driver/src/stm32f10x_tim.c ****   */
  33:../Library/STM32F10x_StdPeriph_Driver/src/stm32f10x_tim.c **** 
  34:../Library/STM32F10x_StdPeriph_Driver/src/stm32f10x_tim.c **** /** @defgroup TIM_Private_TypesDefinitions
  35:../Library/STM32F10x_StdPeriph_Driver/src/stm32f10x_tim.c ****   * @{
  36:../Library/STM32F10x_StdPeriph_Driver/src/stm32f10x_tim.c ****   */
  37:../Library/STM32F10x_StdPeriph_Driver/src/stm32f10x_tim.c **** 
  38:../Library/STM32F10x_StdPeriph_Driver/src/stm32f10x_tim.c **** /**
  39:../Library/STM32F10x_StdPeriph_Driver/src/stm32f10x_tim.c ****   * @}
  40:../Library/STM32F10x_StdPeriph_Driver/src/stm32f10x_tim.c ****   */
  41:../Library/STM32F10x_StdPeriph_Driver/src/stm32f10x_tim.c **** 
  42:../Library/STM32F10x_StdPeriph_Driver/src/stm32f10x_tim.c **** /** @defgroup TIM_Private_Defines
  43:../Library/STM32F10x_StdPeriph_Driver/src/stm32f10x_tim.c ****   * @{
  44:../Library/STM32F10x_StdPeriph_Driver/src/stm32f10x_tim.c ****   */
  45:../Library/STM32F10x_StdPeriph_Driver/src/stm32f10x_tim.c **** 
  46:../Library/STM32F10x_StdPeriph_Driver/src/stm32f10x_tim.c **** /* ---------------------- TIM registers bit mask ------------------------ */
  47:../Library/STM32F10x_StdPeriph_Driver/src/stm32f10x_tim.c **** #define SMCR_ETR_Mask               ((uint16_t)0x00FF) 
  48:../Library/STM32F10x_StdPeriph_Driver/src/stm32f10x_tim.c **** #define CCMR_Offset                 ((uint16_t)0x0018)
  49:../Library/STM32F10x_StdPeriph_Driver/src/stm32f10x_tim.c **** #define CCER_CCE_Set                ((uint16_t)0x0001)  
  50:../Library/STM32F10x_StdPeriph_Driver/src/stm32f10x_tim.c **** #define	CCER_CCNE_Set               ((uint16_t)0x0004) 
  51:../Library/STM32F10x_StdPeriph_Driver/src/stm32f10x_tim.c **** 
  52:../Library/STM32F10x_StdPeriph_Driver/src/stm32f10x_tim.c **** /**
  53:../Library/STM32F10x_StdPeriph_Driver/src/stm32f10x_tim.c ****   * @}
  54:../Library/STM32F10x_StdPeriph_Driver/src/stm32f10x_tim.c ****   */
  55:../Library/STM32F10x_StdPeriph_Driver/src/stm32f10x_tim.c **** 
  56:../Library/STM32F10x_StdPeriph_Driver/src/stm32f10x_tim.c **** /** @defgroup TIM_Private_Macros
  57:../Library/STM32F10x_StdPeriph_Driver/src/stm32f10x_tim.c ****   * @{
  58:../Library/STM32F10x_StdPeriph_Driver/src/stm32f10x_tim.c ****   */
  59:../Library/STM32F10x_StdPeriph_Driver/src/stm32f10x_tim.c **** 
  60:../Library/STM32F10x_StdPeriph_Driver/src/stm32f10x_tim.c **** /**
  61:../Library/STM32F10x_StdPeriph_Driver/src/stm32f10x_tim.c ****   * @}
  62:../Library/STM32F10x_StdPeriph_Driver/src/stm32f10x_tim.c ****   */
  63:../Library/STM32F10x_StdPeriph_Driver/src/stm32f10x_tim.c **** 
  64:../Library/STM32F10x_StdPeriph_Driver/src/stm32f10x_tim.c **** /** @defgroup TIM_Private_Variables
  65:../Library/STM32F10x_StdPeriph_Driver/src/stm32f10x_tim.c ****   * @{
  66:../Library/STM32F10x_StdPeriph_Driver/src/stm32f10x_tim.c ****   */
  67:../Library/STM32F10x_StdPeriph_Driver/src/stm32f10x_tim.c **** 
  68:../Library/STM32F10x_StdPeriph_Driver/src/stm32f10x_tim.c **** /**
  69:../Library/STM32F10x_StdPeriph_Driver/src/stm32f10x_tim.c ****   * @}
  70:../Library/STM32F10x_StdPeriph_Driver/src/stm32f10x_tim.c ****   */
  71:../Library/STM32F10x_StdPeriph_Driver/src/stm32f10x_tim.c **** 
  72:../Library/STM32F10x_StdPeriph_Driver/src/stm32f10x_tim.c **** /** @defgroup TIM_Private_FunctionPrototypes
  73:../Library/STM32F10x_StdPeriph_Driver/src/stm32f10x_tim.c ****   * @{
  74:../Library/STM32F10x_StdPeriph_Driver/src/stm32f10x_tim.c ****   */
  75:../Library/STM32F10x_StdPeriph_Driver/src/stm32f10x_tim.c **** 
  76:../Library/STM32F10x_StdPeriph_Driver/src/stm32f10x_tim.c **** static void TI1_Config(TIM_TypeDef* TIMx, uint16_t TIM_ICPolarity, uint16_t TIM_ICSelection,
  77:../Library/STM32F10x_StdPeriph_Driver/src/stm32f10x_tim.c ****                        uint16_t TIM_ICFilter);
  78:../Library/STM32F10x_StdPeriph_Driver/src/stm32f10x_tim.c **** static void TI2_Config(TIM_TypeDef* TIMx, uint16_t TIM_ICPolarity, uint16_t TIM_ICSelection,
  79:../Library/STM32F10x_StdPeriph_Driver/src/stm32f10x_tim.c ****                        uint16_t TIM_ICFilter);
  80:../Library/STM32F10x_StdPeriph_Driver/src/stm32f10x_tim.c **** static void TI3_Config(TIM_TypeDef* TIMx, uint16_t TIM_ICPolarity, uint16_t TIM_ICSelection,
  81:../Library/STM32F10x_StdPeriph_Driver/src/stm32f10x_tim.c ****                        uint16_t TIM_ICFilter);
  82:../Library/STM32F10x_StdPeriph_Driver/src/stm32f10x_tim.c **** static void TI4_Config(TIM_TypeDef* TIMx, uint16_t TIM_ICPolarity, uint16_t TIM_ICSelection,
  83:../Library/STM32F10x_StdPeriph_Driver/src/stm32f10x_tim.c ****                        uint16_t TIM_ICFilter);
  84:../Library/STM32F10x_StdPeriph_Driver/src/stm32f10x_tim.c **** /**
  85:../Library/STM32F10x_StdPeriph_Driver/src/stm32f10x_tim.c ****   * @}
  86:../Library/STM32F10x_StdPeriph_Driver/src/stm32f10x_tim.c ****   */
  87:../Library/STM32F10x_StdPeriph_Driver/src/stm32f10x_tim.c **** 
  88:../Library/STM32F10x_StdPeriph_Driver/src/stm32f10x_tim.c **** /** @defgroup TIM_Private_Macros
  89:../Library/STM32F10x_StdPeriph_Driver/src/stm32f10x_tim.c ****   * @{
  90:../Library/STM32F10x_StdPeriph_Driver/src/stm32f10x_tim.c ****   */
  91:../Library/STM32F10x_StdPeriph_Driver/src/stm32f10x_tim.c **** 
  92:../Library/STM32F10x_StdPeriph_Driver/src/stm32f10x_tim.c **** /**
  93:../Library/STM32F10x_StdPeriph_Driver/src/stm32f10x_tim.c ****   * @}
  94:../Library/STM32F10x_StdPeriph_Driver/src/stm32f10x_tim.c ****   */
  95:../Library/STM32F10x_StdPeriph_Driver/src/stm32f10x_tim.c **** 
  96:../Library/STM32F10x_StdPeriph_Driver/src/stm32f10x_tim.c **** /** @defgroup TIM_Private_Variables
  97:../Library/STM32F10x_StdPeriph_Driver/src/stm32f10x_tim.c ****   * @{
  98:../Library/STM32F10x_StdPeriph_Driver/src/stm32f10x_tim.c ****   */
  99:../Library/STM32F10x_StdPeriph_Driver/src/stm32f10x_tim.c **** 
 100:../Library/STM32F10x_StdPeriph_Driver/src/stm32f10x_tim.c **** /**
 101:../Library/STM32F10x_StdPeriph_Driver/src/stm32f10x_tim.c ****   * @}
 102:../Library/STM32F10x_StdPeriph_Driver/src/stm32f10x_tim.c ****   */
 103:../Library/STM32F10x_StdPeriph_Driver/src/stm32f10x_tim.c **** 
 104:../Library/STM32F10x_StdPeriph_Driver/src/stm32f10x_tim.c **** /** @defgroup TIM_Private_FunctionPrototypes
 105:../Library/STM32F10x_StdPeriph_Driver/src/stm32f10x_tim.c ****   * @{
 106:../Library/STM32F10x_StdPeriph_Driver/src/stm32f10x_tim.c ****   */
 107:../Library/STM32F10x_StdPeriph_Driver/src/stm32f10x_tim.c **** 
 108:../Library/STM32F10x_StdPeriph_Driver/src/stm32f10x_tim.c **** /**
 109:../Library/STM32F10x_StdPeriph_Driver/src/stm32f10x_tim.c ****   * @}
 110:../Library/STM32F10x_StdPeriph_Driver/src/stm32f10x_tim.c ****   */
 111:../Library/STM32F10x_StdPeriph_Driver/src/stm32f10x_tim.c **** 
 112:../Library/STM32F10x_StdPeriph_Driver/src/stm32f10x_tim.c **** /** @defgroup TIM_Private_Functions
 113:../Library/STM32F10x_StdPeriph_Driver/src/stm32f10x_tim.c ****   * @{
 114:../Library/STM32F10x_StdPeriph_Driver/src/stm32f10x_tim.c ****   */
 115:../Library/STM32F10x_StdPeriph_Driver/src/stm32f10x_tim.c **** 
 116:../Library/STM32F10x_StdPeriph_Driver/src/stm32f10x_tim.c **** /**
 117:../Library/STM32F10x_StdPeriph_Driver/src/stm32f10x_tim.c ****   * @brief  Deinitializes the TIMx peripheral registers to their default reset values.
 118:../Library/STM32F10x_StdPeriph_Driver/src/stm32f10x_tim.c ****   * @param  TIMx: where x can be 1 to 17 to select the TIM peripheral.
 119:../Library/STM32F10x_StdPeriph_Driver/src/stm32f10x_tim.c ****   * @retval None
 120:../Library/STM32F10x_StdPeriph_Driver/src/stm32f10x_tim.c ****   */
 121:../Library/STM32F10x_StdPeriph_Driver/src/stm32f10x_tim.c **** void TIM_DeInit(TIM_TypeDef* TIMx)
 122:../Library/STM32F10x_StdPeriph_Driver/src/stm32f10x_tim.c **** {
 123:../Library/STM32F10x_StdPeriph_Driver/src/stm32f10x_tim.c ****   /* Check the parameters */
 124:../Library/STM32F10x_StdPeriph_Driver/src/stm32f10x_tim.c ****   assert_param(IS_TIM_ALL_PERIPH(TIMx)); 
 125:../Library/STM32F10x_StdPeriph_Driver/src/stm32f10x_tim.c ****  
 126:../Library/STM32F10x_StdPeriph_Driver/src/stm32f10x_tim.c ****   if (TIMx == TIM1)
 127:../Library/STM32F10x_StdPeriph_Driver/src/stm32f10x_tim.c ****   {
 128:../Library/STM32F10x_StdPeriph_Driver/src/stm32f10x_tim.c ****     RCC_APB2PeriphResetCmd(RCC_APB2Periph_TIM1, ENABLE);
 129:../Library/STM32F10x_StdPeriph_Driver/src/stm32f10x_tim.c ****     RCC_APB2PeriphResetCmd(RCC_APB2Periph_TIM1, DISABLE);  
 130:../Library/STM32F10x_StdPeriph_Driver/src/stm32f10x_tim.c ****   }     
 131:../Library/STM32F10x_StdPeriph_Driver/src/stm32f10x_tim.c ****   else if (TIMx == TIM2)
 132:../Library/STM32F10x_StdPeriph_Driver/src/stm32f10x_tim.c ****   {
 133:../Library/STM32F10x_StdPeriph_Driver/src/stm32f10x_tim.c ****     RCC_APB1PeriphResetCmd(RCC_APB1Periph_TIM2, ENABLE);
 134:../Library/STM32F10x_StdPeriph_Driver/src/stm32f10x_tim.c ****     RCC_APB1PeriphResetCmd(RCC_APB1Periph_TIM2, DISABLE);
 135:../Library/STM32F10x_StdPeriph_Driver/src/stm32f10x_tim.c ****   }
 136:../Library/STM32F10x_StdPeriph_Driver/src/stm32f10x_tim.c ****   else if (TIMx == TIM3)
 137:../Library/STM32F10x_StdPeriph_Driver/src/stm32f10x_tim.c ****   {
 138:../Library/STM32F10x_StdPeriph_Driver/src/stm32f10x_tim.c ****     RCC_APB1PeriphResetCmd(RCC_APB1Periph_TIM3, ENABLE);
 139:../Library/STM32F10x_StdPeriph_Driver/src/stm32f10x_tim.c ****     RCC_APB1PeriphResetCmd(RCC_APB1Periph_TIM3, DISABLE);
 140:../Library/STM32F10x_StdPeriph_Driver/src/stm32f10x_tim.c ****   }
 141:../Library/STM32F10x_StdPeriph_Driver/src/stm32f10x_tim.c ****   else if (TIMx == TIM4)
 142:../Library/STM32F10x_StdPeriph_Driver/src/stm32f10x_tim.c ****   {
 143:../Library/STM32F10x_StdPeriph_Driver/src/stm32f10x_tim.c ****     RCC_APB1PeriphResetCmd(RCC_APB1Periph_TIM4, ENABLE);
 144:../Library/STM32F10x_StdPeriph_Driver/src/stm32f10x_tim.c ****     RCC_APB1PeriphResetCmd(RCC_APB1Periph_TIM4, DISABLE);
 145:../Library/STM32F10x_StdPeriph_Driver/src/stm32f10x_tim.c ****   } 
 146:../Library/STM32F10x_StdPeriph_Driver/src/stm32f10x_tim.c ****   else if (TIMx == TIM5)
 147:../Library/STM32F10x_StdPeriph_Driver/src/stm32f10x_tim.c ****   {
 148:../Library/STM32F10x_StdPeriph_Driver/src/stm32f10x_tim.c ****     RCC_APB1PeriphResetCmd(RCC_APB1Periph_TIM5, ENABLE);
 149:../Library/STM32F10x_StdPeriph_Driver/src/stm32f10x_tim.c ****     RCC_APB1PeriphResetCmd(RCC_APB1Periph_TIM5, DISABLE);
 150:../Library/STM32F10x_StdPeriph_Driver/src/stm32f10x_tim.c ****   } 
 151:../Library/STM32F10x_StdPeriph_Driver/src/stm32f10x_tim.c ****   else if (TIMx == TIM6)
 152:../Library/STM32F10x_StdPeriph_Driver/src/stm32f10x_tim.c ****   {
 153:../Library/STM32F10x_StdPeriph_Driver/src/stm32f10x_tim.c ****     RCC_APB1PeriphResetCmd(RCC_APB1Periph_TIM6, ENABLE);
 154:../Library/STM32F10x_StdPeriph_Driver/src/stm32f10x_tim.c ****     RCC_APB1PeriphResetCmd(RCC_APB1Periph_TIM6, DISABLE);
 155:../Library/STM32F10x_StdPeriph_Driver/src/stm32f10x_tim.c ****   } 
 156:../Library/STM32F10x_StdPeriph_Driver/src/stm32f10x_tim.c ****   else if (TIMx == TIM7)
 157:../Library/STM32F10x_StdPeriph_Driver/src/stm32f10x_tim.c ****   {
 158:../Library/STM32F10x_StdPeriph_Driver/src/stm32f10x_tim.c ****     RCC_APB1PeriphResetCmd(RCC_APB1Periph_TIM7, ENABLE);
 159:../Library/STM32F10x_StdPeriph_Driver/src/stm32f10x_tim.c ****     RCC_APB1PeriphResetCmd(RCC_APB1Periph_TIM7, DISABLE);
 160:../Library/STM32F10x_StdPeriph_Driver/src/stm32f10x_tim.c ****   } 
 161:../Library/STM32F10x_StdPeriph_Driver/src/stm32f10x_tim.c ****   else if (TIMx == TIM8)
 162:../Library/STM32F10x_StdPeriph_Driver/src/stm32f10x_tim.c ****   {
 163:../Library/STM32F10x_StdPeriph_Driver/src/stm32f10x_tim.c ****     RCC_APB2PeriphResetCmd(RCC_APB2Periph_TIM8, ENABLE);
 164:../Library/STM32F10x_StdPeriph_Driver/src/stm32f10x_tim.c ****     RCC_APB2PeriphResetCmd(RCC_APB2Periph_TIM8, DISABLE);
 165:../Library/STM32F10x_StdPeriph_Driver/src/stm32f10x_tim.c ****   }
 166:../Library/STM32F10x_StdPeriph_Driver/src/stm32f10x_tim.c ****   else if (TIMx == TIM9)
 167:../Library/STM32F10x_StdPeriph_Driver/src/stm32f10x_tim.c ****   {      
 168:../Library/STM32F10x_StdPeriph_Driver/src/stm32f10x_tim.c ****     RCC_APB2PeriphResetCmd(RCC_APB2Periph_TIM9, ENABLE);
 169:../Library/STM32F10x_StdPeriph_Driver/src/stm32f10x_tim.c ****     RCC_APB2PeriphResetCmd(RCC_APB2Periph_TIM9, DISABLE);  
 170:../Library/STM32F10x_StdPeriph_Driver/src/stm32f10x_tim.c ****    }  
 171:../Library/STM32F10x_StdPeriph_Driver/src/stm32f10x_tim.c ****   else if (TIMx == TIM10)
 172:../Library/STM32F10x_StdPeriph_Driver/src/stm32f10x_tim.c ****   {      
 173:../Library/STM32F10x_StdPeriph_Driver/src/stm32f10x_tim.c ****     RCC_APB2PeriphResetCmd(RCC_APB2Periph_TIM10, ENABLE);
 174:../Library/STM32F10x_StdPeriph_Driver/src/stm32f10x_tim.c ****     RCC_APB2PeriphResetCmd(RCC_APB2Periph_TIM10, DISABLE);  
 175:../Library/STM32F10x_StdPeriph_Driver/src/stm32f10x_tim.c ****   }  
 176:../Library/STM32F10x_StdPeriph_Driver/src/stm32f10x_tim.c ****   else if (TIMx == TIM11) 
 177:../Library/STM32F10x_StdPeriph_Driver/src/stm32f10x_tim.c ****   {     
 178:../Library/STM32F10x_StdPeriph_Driver/src/stm32f10x_tim.c ****     RCC_APB2PeriphResetCmd(RCC_APB2Periph_TIM11, ENABLE);
 179:../Library/STM32F10x_StdPeriph_Driver/src/stm32f10x_tim.c ****     RCC_APB2PeriphResetCmd(RCC_APB2Periph_TIM11, DISABLE);  
 180:../Library/STM32F10x_StdPeriph_Driver/src/stm32f10x_tim.c ****   }  
 181:../Library/STM32F10x_StdPeriph_Driver/src/stm32f10x_tim.c ****   else if (TIMx == TIM12)
 182:../Library/STM32F10x_StdPeriph_Driver/src/stm32f10x_tim.c ****   {      
 183:../Library/STM32F10x_StdPeriph_Driver/src/stm32f10x_tim.c ****     RCC_APB1PeriphResetCmd(RCC_APB1Periph_TIM12, ENABLE);
 184:../Library/STM32F10x_StdPeriph_Driver/src/stm32f10x_tim.c ****     RCC_APB1PeriphResetCmd(RCC_APB1Periph_TIM12, DISABLE);  
 185:../Library/STM32F10x_StdPeriph_Driver/src/stm32f10x_tim.c ****   }  
 186:../Library/STM32F10x_StdPeriph_Driver/src/stm32f10x_tim.c ****   else if (TIMx == TIM13) 
 187:../Library/STM32F10x_StdPeriph_Driver/src/stm32f10x_tim.c ****   {       
 188:../Library/STM32F10x_StdPeriph_Driver/src/stm32f10x_tim.c ****     RCC_APB1PeriphResetCmd(RCC_APB1Periph_TIM13, ENABLE);
 189:../Library/STM32F10x_StdPeriph_Driver/src/stm32f10x_tim.c ****     RCC_APB1PeriphResetCmd(RCC_APB1Periph_TIM13, DISABLE);  
 190:../Library/STM32F10x_StdPeriph_Driver/src/stm32f10x_tim.c ****   }
 191:../Library/STM32F10x_StdPeriph_Driver/src/stm32f10x_tim.c ****   else if (TIMx == TIM14) 
 192:../Library/STM32F10x_StdPeriph_Driver/src/stm32f10x_tim.c ****   {       
 193:../Library/STM32F10x_StdPeriph_Driver/src/stm32f10x_tim.c ****     RCC_APB1PeriphResetCmd(RCC_APB1Periph_TIM14, ENABLE);
 194:../Library/STM32F10x_StdPeriph_Driver/src/stm32f10x_tim.c ****     RCC_APB1PeriphResetCmd(RCC_APB1Periph_TIM14, DISABLE);  
 195:../Library/STM32F10x_StdPeriph_Driver/src/stm32f10x_tim.c ****   }        
 196:../Library/STM32F10x_StdPeriph_Driver/src/stm32f10x_tim.c ****   else if (TIMx == TIM15)
 197:../Library/STM32F10x_StdPeriph_Driver/src/stm32f10x_tim.c ****   {
 198:../Library/STM32F10x_StdPeriph_Driver/src/stm32f10x_tim.c ****     RCC_APB2PeriphResetCmd(RCC_APB2Periph_TIM15, ENABLE);
 199:../Library/STM32F10x_StdPeriph_Driver/src/stm32f10x_tim.c ****     RCC_APB2PeriphResetCmd(RCC_APB2Periph_TIM15, DISABLE);
 200:../Library/STM32F10x_StdPeriph_Driver/src/stm32f10x_tim.c ****   } 
 201:../Library/STM32F10x_StdPeriph_Driver/src/stm32f10x_tim.c ****   else if (TIMx == TIM16)
 202:../Library/STM32F10x_StdPeriph_Driver/src/stm32f10x_tim.c ****   {
 203:../Library/STM32F10x_StdPeriph_Driver/src/stm32f10x_tim.c ****     RCC_APB2PeriphResetCmd(RCC_APB2Periph_TIM16, ENABLE);
 204:../Library/STM32F10x_StdPeriph_Driver/src/stm32f10x_tim.c ****     RCC_APB2PeriphResetCmd(RCC_APB2Periph_TIM16, DISABLE);
 205:../Library/STM32F10x_StdPeriph_Driver/src/stm32f10x_tim.c ****   } 
 206:../Library/STM32F10x_StdPeriph_Driver/src/stm32f10x_tim.c ****   else
 207:../Library/STM32F10x_StdPeriph_Driver/src/stm32f10x_tim.c ****   {
 208:../Library/STM32F10x_StdPeriph_Driver/src/stm32f10x_tim.c ****     if (TIMx == TIM17)
 209:../Library/STM32F10x_StdPeriph_Driver/src/stm32f10x_tim.c ****     {
 210:../Library/STM32F10x_StdPeriph_Driver/src/stm32f10x_tim.c ****       RCC_APB2PeriphResetCmd(RCC_APB2Periph_TIM17, ENABLE);
 211:../Library/STM32F10x_StdPeriph_Driver/src/stm32f10x_tim.c ****       RCC_APB2PeriphResetCmd(RCC_APB2Periph_TIM17, DISABLE);
 212:../Library/STM32F10x_StdPeriph_Driver/src/stm32f10x_tim.c ****     }  
 213:../Library/STM32F10x_StdPeriph_Driver/src/stm32f10x_tim.c ****   }
 214:../Library/STM32F10x_StdPeriph_Driver/src/stm32f10x_tim.c **** }
 215:../Library/STM32F10x_StdPeriph_Driver/src/stm32f10x_tim.c **** 
 216:../Library/STM32F10x_StdPeriph_Driver/src/stm32f10x_tim.c **** /**
 217:../Library/STM32F10x_StdPeriph_Driver/src/stm32f10x_tim.c ****   * @brief  Initializes the TIMx Time Base Unit peripheral according to 
 218:../Library/STM32F10x_StdPeriph_Driver/src/stm32f10x_tim.c ****   *   the specified parameters in the TIM_TimeBaseInitStruct.
 219:../Library/STM32F10x_StdPeriph_Driver/src/stm32f10x_tim.c ****   * @param  TIMx: where x can be 1 to 17 to select the TIM peripheral.
 220:../Library/STM32F10x_StdPeriph_Driver/src/stm32f10x_tim.c ****   * @param  TIM_TimeBaseInitStruct: pointer to a TIM_TimeBaseInitTypeDef
 221:../Library/STM32F10x_StdPeriph_Driver/src/stm32f10x_tim.c ****   *   structure that contains the configuration information for the specified TIM peripheral.
 222:../Library/STM32F10x_StdPeriph_Driver/src/stm32f10x_tim.c ****   * @retval None
 223:../Library/STM32F10x_StdPeriph_Driver/src/stm32f10x_tim.c ****   */
 224:../Library/STM32F10x_StdPeriph_Driver/src/stm32f10x_tim.c **** void TIM_TimeBaseInit(TIM_TypeDef* TIMx, TIM_TimeBaseInitTypeDef* TIM_TimeBaseInitStruct)
 225:../Library/STM32F10x_StdPeriph_Driver/src/stm32f10x_tim.c **** {
 18249              		.loc 1 225 0
 18250              		.cfi_startproc
 18251              		@ args = 0, pretend = 0, frame = 0
 18252              		@ frame_needed = 0, uses_anonymous_args = 0
 18253              		@ link register save eliminated.
 18254              	.LVL0:
 18255 0000 10B4     		push	{r4}
 18256              	.LCFI0:
 18257              		.cfi_def_cfa_offset 4
 226:../Library/STM32F10x_StdPeriph_Driver/src/stm32f10x_tim.c ****   uint16_t tmpcr1 = 0;
 227:../Library/STM32F10x_StdPeriph_Driver/src/stm32f10x_tim.c **** 
 228:../Library/STM32F10x_StdPeriph_Driver/src/stm32f10x_tim.c ****   /* Check the parameters */
 229:../Library/STM32F10x_StdPeriph_Driver/src/stm32f10x_tim.c ****   assert_param(IS_TIM_ALL_PERIPH(TIMx)); 
 230:../Library/STM32F10x_StdPeriph_Driver/src/stm32f10x_tim.c ****   assert_param(IS_TIM_COUNTER_MODE(TIM_TimeBaseInitStruct->TIM_CounterMode));
 231:../Library/STM32F10x_StdPeriph_Driver/src/stm32f10x_tim.c ****   assert_param(IS_TIM_CKD_DIV(TIM_TimeBaseInitStruct->TIM_ClockDivision));
 232:../Library/STM32F10x_StdPeriph_Driver/src/stm32f10x_tim.c **** 
 233:../Library/STM32F10x_StdPeriph_Driver/src/stm32f10x_tim.c ****   tmpcr1 = TIMx->CR1;  
 18258              		.loc 1 233 0
 18259 0002 0288     		ldrh	r2, [r0, #0]
 18260 0004 92B2     		uxth	r2, r2
 18261              	.LVL1:
 234:../Library/STM32F10x_StdPeriph_Driver/src/stm32f10x_tim.c **** 
 235:../Library/STM32F10x_StdPeriph_Driver/src/stm32f10x_tim.c ****   if((TIMx == TIM1) || (TIMx == TIM8)|| (TIMx == TIM2) || (TIMx == TIM3)||
 18262              		.loc 1 235 0
 18263 0006 42F60043 		movw	r3, #:lower16:1073818624
 18264 000a C4F20103 		movt	r3, #:upper16:1073818624
 18265 000e 43F2004C 		movw	ip, #:lower16:1073820672
 18266 0012 C4F2010C 		movt	ip, #:upper16:1073820672
 18267 0016 6045     		cmp	r0, ip
 18268 0018 14BF     		ite	ne
 18269 001a 4FF0000C 		movne	ip, #0
 18270 001e 4FF0010C 		moveq	ip, #1
 18271 0022 9842     		cmp	r0, r3
 18272 0024 14BF     		ite	ne
 18273 0026 6446     		movne	r4, ip
 18274 0028 4CF00104 		orreq	r4, ip, #1
 18275              		.cfi_offset 4, -4
 18276 002c 0CBB     		cbnz	r4, .L2
 18277 002e 40F20043 		movw	r3, #:lower16:1073742848
 18278 0032 C4F20003 		movt	r3, #:upper16:1073742848
 18279 0036 9842     		cmp	r0, r3
 18280 0038 14BF     		ite	ne
 18281 003a 0023     		movne	r3, #0
 18282 003c 0123     		moveq	r3, #1
 18283 003e B0F1804F 		cmp	r0, #1073741824
 18284 0042 08BF     		it	eq
 18285 0044 43F00103 		orreq	r3, r3, #1
 18286 0048 9BB9     		cbnz	r3, .L2
 18287 004a 40F60003 		movw	r3, #:lower16:1073743872
 18288 004e C4F20003 		movt	r3, #:upper16:1073743872
 18289 0052 40F6004C 		movw	ip, #:lower16:1073744896
 18290 0056 C4F2000C 		movt	ip, #:upper16:1073744896
 18291 005a 6045     		cmp	r0, ip
 18292 005c 14BF     		ite	ne
 18293 005e 4FF0000C 		movne	ip, #0
 18294 0062 4FF0010C 		moveq	ip, #1
 18295 0066 9842     		cmp	r0, r3
 18296 0068 14BF     		ite	ne
 18297 006a 6346     		movne	r3, ip
 18298 006c 4CF00103 		orreq	r3, ip, #1
 18299 0070 43B1     		cbz	r3, .L3
 18300              	.L2:
 236:../Library/STM32F10x_StdPeriph_Driver/src/stm32f10x_tim.c ****      (TIMx == TIM4) || (TIMx == TIM5)) 
 237:../Library/STM32F10x_StdPeriph_Driver/src/stm32f10x_tim.c ****   {
 238:../Library/STM32F10x_StdPeriph_Driver/src/stm32f10x_tim.c ****     /* Select the Counter Mode */
 239:../Library/STM32F10x_StdPeriph_Driver/src/stm32f10x_tim.c ****     tmpcr1 &= (uint16_t)(~((uint16_t)(TIM_CR1_DIR | TIM_CR1_CMS)));
 18301              		.loc 1 239 0
 18302 0072 4FF68F73 		movw	r3, #:lower16:65423
 18303              	.LVL2:
 18304 0076 C0F20003 		movt	r3, #:upper16:65423
 18305              	.LVL3:
 18306 007a 02EA0303 		and	r3, r2, r3
 18307              	.LVL4:
 240:../Library/STM32F10x_StdPeriph_Driver/src/stm32f10x_tim.c ****     tmpcr1 |= (uint32_t)TIM_TimeBaseInitStruct->TIM_CounterMode;
 18308              		.loc 1 240 0
 18309 007e 4A88     		ldrh	r2, [r1, #2]
 18310 0080 43EA0202 		orr	r2, r3, r2
 18311              	.LVL5:
 18312              	.L3:
 241:../Library/STM32F10x_StdPeriph_Driver/src/stm32f10x_tim.c ****   }
 242:../Library/STM32F10x_StdPeriph_Driver/src/stm32f10x_tim.c ****  
 243:../Library/STM32F10x_StdPeriph_Driver/src/stm32f10x_tim.c ****   if((TIMx != TIM6) && (TIMx != TIM7))
 18313              		.loc 1 243 0
 18314 0084 41F20003 		movw	r3, #:lower16:1073745920
 18315 0088 C4F20003 		movt	r3, #:upper16:1073745920
 18316 008c 41F2004C 		movw	ip, #:lower16:1073746944
 18317 0090 C4F2000C 		movt	ip, #:upper16:1073746944
 18318 0094 B0EB0C0C 		subs	ip, r0, ip
 18319 0098 18BF     		it	ne
 18320 009a 4FF0010C 		movne	ip, #1
 18321 009e 9842     		cmp	r0, r3
 18322 00a0 0CBF     		ite	eq
 18323 00a2 0023     		moveq	r3, #0
 18324 00a4 0CF00103 		andne	r3, ip, #1
 18325 00a8 43B1     		cbz	r3, .L4
 244:../Library/STM32F10x_StdPeriph_Driver/src/stm32f10x_tim.c ****   {
 245:../Library/STM32F10x_StdPeriph_Driver/src/stm32f10x_tim.c ****     /* Set the clock division */
 246:../Library/STM32F10x_StdPeriph_Driver/src/stm32f10x_tim.c ****     tmpcr1 &= (uint16_t)(~((uint16_t)TIM_CR1_CKD));
 18326              		.loc 1 246 0
 18327 00aa 4FF6FF43 		movw	r3, #:lower16:64767
 18328              	.LVL6:
 18329 00ae C0F20003 		movt	r3, #:upper16:64767
 18330              	.LVL7:
 18331 00b2 02EA0303 		and	r3, r2, r3
 18332              	.LVL8:
 247:../Library/STM32F10x_StdPeriph_Driver/src/stm32f10x_tim.c ****     tmpcr1 |= (uint32_t)TIM_TimeBaseInitStruct->TIM_ClockDivision;
 18333              		.loc 1 247 0
 18334 00b6 CA88     		ldrh	r2, [r1, #6]
 18335 00b8 43EA0202 		orr	r2, r3, r2
 18336              	.LVL9:
 18337              	.L4:
 248:../Library/STM32F10x_StdPeriph_Driver/src/stm32f10x_tim.c ****   }
 249:../Library/STM32F10x_StdPeriph_Driver/src/stm32f10x_tim.c **** 
 250:../Library/STM32F10x_StdPeriph_Driver/src/stm32f10x_tim.c ****   TIMx->CR1 = tmpcr1;
 18338              		.loc 1 250 0
 18339 00bc 0280     		strh	r2, [r0, #0]	@ movhi
 251:../Library/STM32F10x_StdPeriph_Driver/src/stm32f10x_tim.c **** 
 252:../Library/STM32F10x_StdPeriph_Driver/src/stm32f10x_tim.c ****   /* Set the Autoreload value */
 253:../Library/STM32F10x_StdPeriph_Driver/src/stm32f10x_tim.c ****   TIMx->ARR = TIM_TimeBaseInitStruct->TIM_Period ;
 18340              		.loc 1 253 0
 18341 00be 8B88     		ldrh	r3, [r1, #4]
 18342 00c0 8385     		strh	r3, [r0, #44]	@ movhi
 254:../Library/STM32F10x_StdPeriph_Driver/src/stm32f10x_tim.c ****  
 255:../Library/STM32F10x_StdPeriph_Driver/src/stm32f10x_tim.c ****   /* Set the Prescaler value */
 256:../Library/STM32F10x_StdPeriph_Driver/src/stm32f10x_tim.c ****   TIMx->PSC = TIM_TimeBaseInitStruct->TIM_Prescaler;
 18343              		.loc 1 256 0
 18344 00c2 0B88     		ldrh	r3, [r1, #0]
 18345 00c4 0385     		strh	r3, [r0, #40]	@ movhi
 257:../Library/STM32F10x_StdPeriph_Driver/src/stm32f10x_tim.c ****     
 258:../Library/STM32F10x_StdPeriph_Driver/src/stm32f10x_tim.c ****   if ((TIMx == TIM1) || (TIMx == TIM8)|| (TIMx == TIM15)|| (TIMx == TIM16) || (TIMx == TIM17))  
 18346              		.loc 1 258 0
 18347 00c6 BCB9     		cbnz	r4, .L5
 18348 00c8 44F20003 		movw	r3, #:lower16:1073823744
 18349 00cc C4F20103 		movt	r3, #:upper16:1073823744
 18350 00d0 44F20042 		movw	r2, #:lower16:1073824768
 18351              	.LVL10:
 18352 00d4 C4F20102 		movt	r2, #:upper16:1073824768
 18353 00d8 9042     		cmp	r0, r2
 18354 00da 14BF     		ite	ne
 18355 00dc 0022     		movne	r2, #0
 18356 00de 0122     		moveq	r2, #1
 18357 00e0 9842     		cmp	r0, r3
 18358 00e2 14BF     		ite	ne
 18359 00e4 1346     		movne	r3, r2
 18360 00e6 42F00103 		orreq	r3, r2, #1
 18361 00ea 2BB9     		cbnz	r3, .L5
 18362 00ec 44F60003 		movw	r3, #:lower16:1073825792
 18363 00f0 C4F20103 		movt	r3, #:upper16:1073825792
 18364 00f4 9842     		cmp	r0, r3
 18365 00f6 01D1     		bne	.L6
 18366              	.LVL11:
 18367              	.L5:
 259:../Library/STM32F10x_StdPeriph_Driver/src/stm32f10x_tim.c ****   {
 260:../Library/STM32F10x_StdPeriph_Driver/src/stm32f10x_tim.c ****     /* Set the Repetition Counter value */
 261:../Library/STM32F10x_StdPeriph_Driver/src/stm32f10x_tim.c ****     TIMx->RCR = TIM_TimeBaseInitStruct->TIM_RepetitionCounter;
 18368              		.loc 1 261 0
 18369 00f8 0B7A     		ldrb	r3, [r1, #8]	@ zero_extendqisi2
 18370 00fa 0386     		strh	r3, [r0, #48]	@ movhi
 18371              	.L6:
 262:../Library/STM32F10x_StdPeriph_Driver/src/stm32f10x_tim.c ****   }
 263:../Library/STM32F10x_StdPeriph_Driver/src/stm32f10x_tim.c **** 
 264:../Library/STM32F10x_StdPeriph_Driver/src/stm32f10x_tim.c ****   /* Generate an update event to reload the Prescaler and the Repetition counter
 265:../Library/STM32F10x_StdPeriph_Driver/src/stm32f10x_tim.c ****      values immediately */
 266:../Library/STM32F10x_StdPeriph_Driver/src/stm32f10x_tim.c ****   TIMx->EGR = TIM_PSCReloadMode_Immediate;           
 18372              		.loc 1 266 0
 18373 00fc 4FF00103 		mov	r3, #1	@ movhi
 18374 0100 8382     		strh	r3, [r0, #20]	@ movhi
 267:../Library/STM32F10x_StdPeriph_Driver/src/stm32f10x_tim.c **** }
 18375              		.loc 1 267 0
 18376 0102 10BC     		pop	{r4}
 18377 0104 7047     		bx	lr
 18378              		.cfi_endproc
 18379              	.LFE30:
 18381 0106 00BF     		.section	.text.TIM_OC1Init,"ax",%progbits
 18382              		.align	2
 18383              		.global	TIM_OC1Init
 18384              		.thumb
 18385              		.thumb_func
 18387              	TIM_OC1Init:
 18388              	.LFB31:
 268:../Library/STM32F10x_StdPeriph_Driver/src/stm32f10x_tim.c **** 
 269:../Library/STM32F10x_StdPeriph_Driver/src/stm32f10x_tim.c **** /**
 270:../Library/STM32F10x_StdPeriph_Driver/src/stm32f10x_tim.c ****   * @brief  Initializes the TIMx Channel1 according to the specified
 271:../Library/STM32F10x_StdPeriph_Driver/src/stm32f10x_tim.c ****   *   parameters in the TIM_OCInitStruct.
 272:../Library/STM32F10x_StdPeriph_Driver/src/stm32f10x_tim.c ****   * @param  TIMx: where x can be  1 to 17 except 6 and 7 to select the TIM peripheral.
 273:../Library/STM32F10x_StdPeriph_Driver/src/stm32f10x_tim.c ****   * @param  TIM_OCInitStruct: pointer to a TIM_OCInitTypeDef structure
 274:../Library/STM32F10x_StdPeriph_Driver/src/stm32f10x_tim.c ****   *   that contains the configuration information for the specified TIM peripheral.
 275:../Library/STM32F10x_StdPeriph_Driver/src/stm32f10x_tim.c ****   * @retval None
 276:../Library/STM32F10x_StdPeriph_Driver/src/stm32f10x_tim.c ****   */
 277:../Library/STM32F10x_StdPeriph_Driver/src/stm32f10x_tim.c **** void TIM_OC1Init(TIM_TypeDef* TIMx, TIM_OCInitTypeDef* TIM_OCInitStruct)
 278:../Library/STM32F10x_StdPeriph_Driver/src/stm32f10x_tim.c **** {
 18389              		.loc 1 278 0
 18390              		.cfi_startproc
 18391              		@ args = 0, pretend = 0, frame = 0
 18392              		@ frame_needed = 0, uses_anonymous_args = 0
 18393              		@ link register save eliminated.
 18394              	.LVL12:
 18395 0000 70B4     		push	{r4, r5, r6}
 18396              	.LCFI1:
 18397              		.cfi_def_cfa_offset 12
 279:../Library/STM32F10x_StdPeriph_Driver/src/stm32f10x_tim.c ****   uint16_t tmpccmrx = 0, tmpccer = 0, tmpcr2 = 0;
 280:../Library/STM32F10x_StdPeriph_Driver/src/stm32f10x_tim.c ****    
 281:../Library/STM32F10x_StdPeriph_Driver/src/stm32f10x_tim.c ****   /* Check the parameters */
 282:../Library/STM32F10x_StdPeriph_Driver/src/stm32f10x_tim.c ****   assert_param(IS_TIM_LIST8_PERIPH(TIMx));
 283:../Library/STM32F10x_StdPeriph_Driver/src/stm32f10x_tim.c ****   assert_param(IS_TIM_OC_MODE(TIM_OCInitStruct->TIM_OCMode));
 284:../Library/STM32F10x_StdPeriph_Driver/src/stm32f10x_tim.c ****   assert_param(IS_TIM_OUTPUT_STATE(TIM_OCInitStruct->TIM_OutputState));
 285:../Library/STM32F10x_StdPeriph_Driver/src/stm32f10x_tim.c ****   assert_param(IS_TIM_OC_POLARITY(TIM_OCInitStruct->TIM_OCPolarity));   
 286:../Library/STM32F10x_StdPeriph_Driver/src/stm32f10x_tim.c ****  /* Disable the Channel 1: Reset the CC1E Bit */
 287:../Library/STM32F10x_StdPeriph_Driver/src/stm32f10x_tim.c ****   TIMx->CCER &= (uint16_t)(~(uint16_t)TIM_CCER_CC1E);
 18398              		.loc 1 287 0
 18399 0002 038C     		ldrh	r3, [r0, #32]
 18400 0004 23F00103 		bic	r3, r3, #1
 18401 0008 4FEA0343 		lsl	r3, r3, #16
 18402 000c 4FEA1343 		lsr	r3, r3, #16
 18403 0010 0384     		strh	r3, [r0, #32]	@ movhi
 288:../Library/STM32F10x_StdPeriph_Driver/src/stm32f10x_tim.c ****   /* Get the TIMx CCER register value */
 289:../Library/STM32F10x_StdPeriph_Driver/src/stm32f10x_tim.c ****   tmpccer = TIMx->CCER;
 18404              		.loc 1 289 0
 18405 0012 028C     		ldrh	r2, [r0, #32]
 290:../Library/STM32F10x_StdPeriph_Driver/src/stm32f10x_tim.c ****   /* Get the TIMx CR2 register value */
 291:../Library/STM32F10x_StdPeriph_Driver/src/stm32f10x_tim.c ****   tmpcr2 =  TIMx->CR2;
 18406              		.loc 1 291 0
 18407 0014 8388     		ldrh	r3, [r0, #4]
 18408 0016 9BB2     		uxth	r3, r3
 18409              	.LVL13:
 292:../Library/STM32F10x_StdPeriph_Driver/src/stm32f10x_tim.c ****   
 293:../Library/STM32F10x_StdPeriph_Driver/src/stm32f10x_tim.c ****   /* Get the TIMx CCMR1 register value */
 294:../Library/STM32F10x_StdPeriph_Driver/src/stm32f10x_tim.c ****   tmpccmrx = TIMx->CCMR1;
 18410              		.loc 1 294 0
 18411 0018 068B     		ldrh	r6, [r0, #24]
 18412              		.cfi_offset 6, -4
 18413              		.cfi_offset 5, -8
 18414              		.cfi_offset 4, -12
 18415 001a B6B2     		uxth	r6, r6
 18416              	.LVL14:
 295:../Library/STM32F10x_StdPeriph_Driver/src/stm32f10x_tim.c ****     
 296:../Library/STM32F10x_StdPeriph_Driver/src/stm32f10x_tim.c ****   /* Reset the Output Compare Mode Bits */
 297:../Library/STM32F10x_StdPeriph_Driver/src/stm32f10x_tim.c ****   tmpccmrx &= (uint16_t)(~((uint16_t)TIM_CCMR1_OC1M));
 298:../Library/STM32F10x_StdPeriph_Driver/src/stm32f10x_tim.c ****   tmpccmrx &= (uint16_t)(~((uint16_t)TIM_CCMR1_CC1S));
 299:../Library/STM32F10x_StdPeriph_Driver/src/stm32f10x_tim.c **** 
 300:../Library/STM32F10x_StdPeriph_Driver/src/stm32f10x_tim.c ****   /* Select the Output Compare Mode */
 301:../Library/STM32F10x_StdPeriph_Driver/src/stm32f10x_tim.c ****   tmpccmrx |= TIM_OCInitStruct->TIM_OCMode;
 18417              		.loc 1 301 0
 18418 001c 0D88     		ldrh	r5, [r1, #0]
 302:../Library/STM32F10x_StdPeriph_Driver/src/stm32f10x_tim.c ****   
 303:../Library/STM32F10x_StdPeriph_Driver/src/stm32f10x_tim.c ****   /* Reset the Output Polarity level */
 304:../Library/STM32F10x_StdPeriph_Driver/src/stm32f10x_tim.c ****   tmpccer &= (uint16_t)(~((uint16_t)TIM_CCER_CC1P));
 18419              		.loc 1 304 0
 18420 001e 22F00202 		bic	r2, r2, #2
 18421              	.LVL15:
 18422 0022 4FEA0242 		lsl	r2, r2, #16
 18423              	.LVL16:
 18424 0026 4FEA1242 		lsr	r2, r2, #16
 18425              	.LVL17:
 305:../Library/STM32F10x_StdPeriph_Driver/src/stm32f10x_tim.c ****   /* Set the Output Compare Polarity */
 306:../Library/STM32F10x_StdPeriph_Driver/src/stm32f10x_tim.c ****   tmpccer |= TIM_OCInitStruct->TIM_OCPolarity;
 18426              		.loc 1 306 0
 18427 002a 4C88     		ldrh	r4, [r1, #2]
 18428 002c B1F808C0 		ldrh	ip, [r1, #8]
 18429 0030 44EA0C0C 		orr	ip, r4, ip
 18430 0034 1FFA8CFC 		uxth	ip, ip
 18431              	.LVL18:
 307:../Library/STM32F10x_StdPeriph_Driver/src/stm32f10x_tim.c ****   
 308:../Library/STM32F10x_StdPeriph_Driver/src/stm32f10x_tim.c ****   /* Set the Output State */
 309:../Library/STM32F10x_StdPeriph_Driver/src/stm32f10x_tim.c ****   tmpccer |= TIM_OCInitStruct->TIM_OutputState;
 18432              		.loc 1 309 0
 18433 0038 4CEA0202 		orr	r2, ip, r2
 18434              	.LVL19:
 310:../Library/STM32F10x_StdPeriph_Driver/src/stm32f10x_tim.c ****     
 311:../Library/STM32F10x_StdPeriph_Driver/src/stm32f10x_tim.c ****   if((TIMx == TIM1) || (TIMx == TIM8)|| (TIMx == TIM15)||
 18435              		.loc 1 311 0
 18436 003c 42F6004C 		movw	ip, #:lower16:1073818624
 18437 0040 C4F2010C 		movt	ip, #:upper16:1073818624
 18438 0044 43F20044 		movw	r4, #:lower16:1073820672
 18439 0048 C4F20104 		movt	r4, #:upper16:1073820672
 18440 004c A042     		cmp	r0, r4
 18441 004e 14BF     		ite	ne
 18442 0050 0024     		movne	r4, #0
 18443 0052 0124     		moveq	r4, #1
 18444 0054 6045     		cmp	r0, ip
 18445 0056 08BF     		it	eq
 18446 0058 44F00104 		orreq	r4, r4, #1
 18447 005c B4B9     		cbnz	r4, .L9
 18448 005e 44F2000C 		movw	ip, #:lower16:1073823744
 18449 0062 C4F2010C 		movt	ip, #:upper16:1073823744
 18450 0066 44F20044 		movw	r4, #:lower16:1073824768
 18451 006a C4F20104 		movt	r4, #:upper16:1073824768
 18452 006e A042     		cmp	r0, r4
 18453 0070 14BF     		ite	ne
 18454 0072 0024     		movne	r4, #0
 18455 0074 0124     		moveq	r4, #1
 18456 0076 6045     		cmp	r0, ip
 18457 0078 08BF     		it	eq
 18458 007a 44F00104 		orreq	r4, r4, #1
 18459 007e 2CB9     		cbnz	r4, .L9
 18460 0080 44F6000C 		movw	ip, #:lower16:1073825792
 18461 0084 C4F2010C 		movt	ip, #:upper16:1073825792
 18462 0088 6045     		cmp	r0, ip
 18463 008a 1FD1     		bne	.L10
 18464              	.L9:
 312:../Library/STM32F10x_StdPeriph_Driver/src/stm32f10x_tim.c ****      (TIMx == TIM16)|| (TIMx == TIM17))
 313:../Library/STM32F10x_StdPeriph_Driver/src/stm32f10x_tim.c ****   {
 314:../Library/STM32F10x_StdPeriph_Driver/src/stm32f10x_tim.c ****     assert_param(IS_TIM_OUTPUTN_STATE(TIM_OCInitStruct->TIM_OutputNState));
 315:../Library/STM32F10x_StdPeriph_Driver/src/stm32f10x_tim.c ****     assert_param(IS_TIM_OCN_POLARITY(TIM_OCInitStruct->TIM_OCNPolarity));
 316:../Library/STM32F10x_StdPeriph_Driver/src/stm32f10x_tim.c ****     assert_param(IS_TIM_OCNIDLE_STATE(TIM_OCInitStruct->TIM_OCNIdleState));
 317:../Library/STM32F10x_StdPeriph_Driver/src/stm32f10x_tim.c ****     assert_param(IS_TIM_OCIDLE_STATE(TIM_OCInitStruct->TIM_OCIdleState));
 318:../Library/STM32F10x_StdPeriph_Driver/src/stm32f10x_tim.c ****     
 319:../Library/STM32F10x_StdPeriph_Driver/src/stm32f10x_tim.c ****     /* Reset the Output N Polarity level */
 320:../Library/STM32F10x_StdPeriph_Driver/src/stm32f10x_tim.c ****     tmpccer &= (uint16_t)(~((uint16_t)TIM_CCER_CC1NP));
 18465              		.loc 1 320 0
 18466 008c 4FF6F77C 		movw	ip, #:lower16:65527
 18467              	.LVL20:
 18468 0090 C0F2000C 		movt	ip, #:upper16:65527
 18469              	.LVL21:
 18470 0094 02EA0C0C 		and	ip, r2, ip
 18471              	.LVL22:
 321:../Library/STM32F10x_StdPeriph_Driver/src/stm32f10x_tim.c ****     /* Set the Output N Polarity */
 322:../Library/STM32F10x_StdPeriph_Driver/src/stm32f10x_tim.c ****     tmpccer |= TIM_OCInitStruct->TIM_OCNPolarity;
 18472              		.loc 1 322 0
 18473 0098 4A89     		ldrh	r2, [r1, #10]
 18474 009a 4CEA020C 		orr	ip, ip, r2
 18475              	.LVL23:
 323:../Library/STM32F10x_StdPeriph_Driver/src/stm32f10x_tim.c ****     
 324:../Library/STM32F10x_StdPeriph_Driver/src/stm32f10x_tim.c ****     /* Reset the Output N State */
 325:../Library/STM32F10x_StdPeriph_Driver/src/stm32f10x_tim.c ****     tmpccer &= (uint16_t)(~((uint16_t)TIM_CCER_CC1NE));    
 18476              		.loc 1 325 0
 18477 009e 4FF6FB72 		movw	r2, #:lower16:65531
 18478              	.LVL24:
 18479 00a2 C0F20002 		movt	r2, #:upper16:65531
 18480              	.LVL25:
 18481 00a6 0CEA0202 		and	r2, ip, r2
 18482              	.LVL26:
 326:../Library/STM32F10x_StdPeriph_Driver/src/stm32f10x_tim.c ****     /* Set the Output N State */
 327:../Library/STM32F10x_StdPeriph_Driver/src/stm32f10x_tim.c ****     tmpccer |= TIM_OCInitStruct->TIM_OutputNState;
 18483              		.loc 1 327 0
 18484 00aa B1F804C0 		ldrh	ip, [r1, #4]
 18485 00ae 42EA0C02 		orr	r2, r2, ip
 18486              	.LVL27:
 328:../Library/STM32F10x_StdPeriph_Driver/src/stm32f10x_tim.c ****     
 329:../Library/STM32F10x_StdPeriph_Driver/src/stm32f10x_tim.c ****     /* Reset the Ouput Compare and Output Compare N IDLE State */
 330:../Library/STM32F10x_StdPeriph_Driver/src/stm32f10x_tim.c ****     tmpcr2 &= (uint16_t)(~((uint16_t)TIM_CR2_OIS1));
 331:../Library/STM32F10x_StdPeriph_Driver/src/stm32f10x_tim.c ****     tmpcr2 &= (uint16_t)(~((uint16_t)TIM_CR2_OIS1N));
 18487              		.loc 1 331 0
 18488 00b2 4FF6FF4C 		movw	ip, #:lower16:64767
 18489              	.LVL28:
 18490 00b6 C0F2000C 		movt	ip, #:upper16:64767
 18491              	.LVL29:
 18492 00ba 03EA0C0C 		and	ip, r3, ip
 18493              	.LVL30:
 332:../Library/STM32F10x_StdPeriph_Driver/src/stm32f10x_tim.c ****     
 333:../Library/STM32F10x_StdPeriph_Driver/src/stm32f10x_tim.c ****     /* Set the Output Idle state */
 334:../Library/STM32F10x_StdPeriph_Driver/src/stm32f10x_tim.c ****     tmpcr2 |= TIM_OCInitStruct->TIM_OCIdleState;
 18494              		.loc 1 334 0
 18495 00be CC89     		ldrh	r4, [r1, #14]
 18496 00c0 8B89     		ldrh	r3, [r1, #12]
 18497 00c2 44EA0303 		orr	r3, r4, r3
 18498 00c6 9BB2     		uxth	r3, r3
 18499              	.LVL31:
 335:../Library/STM32F10x_StdPeriph_Driver/src/stm32f10x_tim.c ****     /* Set the Output N Idle state */
 336:../Library/STM32F10x_StdPeriph_Driver/src/stm32f10x_tim.c ****     tmpcr2 |= TIM_OCInitStruct->TIM_OCNIdleState;
 18500              		.loc 1 336 0
 18501 00c8 43EA0C03 		orr	r3, r3, ip
 18502              	.LVL32:
 18503              	.L10:
 337:../Library/STM32F10x_StdPeriph_Driver/src/stm32f10x_tim.c ****   }
 338:../Library/STM32F10x_StdPeriph_Driver/src/stm32f10x_tim.c ****   /* Write to TIMx CR2 */
 339:../Library/STM32F10x_StdPeriph_Driver/src/stm32f10x_tim.c ****   TIMx->CR2 = tmpcr2;
 18504              		.loc 1 339 0
 18505 00cc 8380     		strh	r3, [r0, #4]	@ movhi
 18506              		.loc 1 298 0
 18507 00ce 4FF68C73 		movw	r3, #:lower16:65420
 18508              	.LVL33:
 18509 00d2 C0F20003 		movt	r3, #:upper16:65420
 18510              	.LVL34:
 18511 00d6 06EA0303 		and	r3, r6, r3
 18512              	.LVL35:
 18513              		.loc 1 301 0
 18514 00da 43EA0503 		orr	r3, r3, r5
 18515              	.LVL36:
 340:../Library/STM32F10x_StdPeriph_Driver/src/stm32f10x_tim.c ****   
 341:../Library/STM32F10x_StdPeriph_Driver/src/stm32f10x_tim.c ****   /* Write to TIMx CCMR1 */
 342:../Library/STM32F10x_StdPeriph_Driver/src/stm32f10x_tim.c ****   TIMx->CCMR1 = tmpccmrx;
 18516              		.loc 1 342 0
 18517 00de 0383     		strh	r3, [r0, #24]	@ movhi
 343:../Library/STM32F10x_StdPeriph_Driver/src/stm32f10x_tim.c **** 
 344:../Library/STM32F10x_StdPeriph_Driver/src/stm32f10x_tim.c ****   /* Set the Capture Compare Register value */
 345:../Library/STM32F10x_StdPeriph_Driver/src/stm32f10x_tim.c ****   TIMx->CCR1 = TIM_OCInitStruct->TIM_Pulse; 
 18518              		.loc 1 345 0
 18519 00e0 CB88     		ldrh	r3, [r1, #6]
 18520              	.LVL37:
 18521 00e2 8386     		strh	r3, [r0, #52]	@ movhi
 346:../Library/STM32F10x_StdPeriph_Driver/src/stm32f10x_tim.c ****  
 347:../Library/STM32F10x_StdPeriph_Driver/src/stm32f10x_tim.c ****   /* Write to TIMx CCER */
 348:../Library/STM32F10x_StdPeriph_Driver/src/stm32f10x_tim.c ****   TIMx->CCER = tmpccer;
 18522              		.loc 1 348 0
 18523 00e4 0284     		strh	r2, [r0, #32]	@ movhi
 349:../Library/STM32F10x_StdPeriph_Driver/src/stm32f10x_tim.c **** }
 18524              		.loc 1 349 0
 18525 00e6 70BC     		pop	{r4, r5, r6}
 18526 00e8 7047     		bx	lr
 18527              		.cfi_endproc
 18528              	.LFE31:
 18530 00ea 00BF     		.section	.text.TIM_OC2Init,"ax",%progbits
 18531              		.align	2
 18532              		.global	TIM_OC2Init
 18533              		.thumb
 18534              		.thumb_func
 18536              	TIM_OC2Init:
 18537              	.LFB32:
 350:../Library/STM32F10x_StdPeriph_Driver/src/stm32f10x_tim.c **** 
 351:../Library/STM32F10x_StdPeriph_Driver/src/stm32f10x_tim.c **** /**
 352:../Library/STM32F10x_StdPeriph_Driver/src/stm32f10x_tim.c ****   * @brief  Initializes the TIMx Channel2 according to the specified
 353:../Library/STM32F10x_StdPeriph_Driver/src/stm32f10x_tim.c ****   *   parameters in the TIM_OCInitStruct.
 354:../Library/STM32F10x_StdPeriph_Driver/src/stm32f10x_tim.c ****   * @param  TIMx: where x can be  1, 2, 3, 4, 5, 8, 9, 12 or 15 to select 
 355:../Library/STM32F10x_StdPeriph_Driver/src/stm32f10x_tim.c ****   *   the TIM peripheral.
 356:../Library/STM32F10x_StdPeriph_Driver/src/stm32f10x_tim.c ****   * @param  TIM_OCInitStruct: pointer to a TIM_OCInitTypeDef structure
 357:../Library/STM32F10x_StdPeriph_Driver/src/stm32f10x_tim.c ****   *   that contains the configuration information for the specified TIM peripheral.
 358:../Library/STM32F10x_StdPeriph_Driver/src/stm32f10x_tim.c ****   * @retval None
 359:../Library/STM32F10x_StdPeriph_Driver/src/stm32f10x_tim.c ****   */
 360:../Library/STM32F10x_StdPeriph_Driver/src/stm32f10x_tim.c **** void TIM_OC2Init(TIM_TypeDef* TIMx, TIM_OCInitTypeDef* TIM_OCInitStruct)
 361:../Library/STM32F10x_StdPeriph_Driver/src/stm32f10x_tim.c **** {
 18538              		.loc 1 361 0
 18539              		.cfi_startproc
 18540              		@ args = 0, pretend = 0, frame = 0
 18541              		@ frame_needed = 0, uses_anonymous_args = 0
 18542              		@ link register save eliminated.
 18543              	.LVL38:
 18544 0000 F0B4     		push	{r4, r5, r6, r7}
 18545              	.LCFI2:
 18546              		.cfi_def_cfa_offset 16
 362:../Library/STM32F10x_StdPeriph_Driver/src/stm32f10x_tim.c ****   uint16_t tmpccmrx = 0, tmpccer = 0, tmpcr2 = 0;
 363:../Library/STM32F10x_StdPeriph_Driver/src/stm32f10x_tim.c ****    
 364:../Library/STM32F10x_StdPeriph_Driver/src/stm32f10x_tim.c ****   /* Check the parameters */
 365:../Library/STM32F10x_StdPeriph_Driver/src/stm32f10x_tim.c ****   assert_param(IS_TIM_LIST6_PERIPH(TIMx)); 
 366:../Library/STM32F10x_StdPeriph_Driver/src/stm32f10x_tim.c ****   assert_param(IS_TIM_OC_MODE(TIM_OCInitStruct->TIM_OCMode));
 367:../Library/STM32F10x_StdPeriph_Driver/src/stm32f10x_tim.c ****   assert_param(IS_TIM_OUTPUT_STATE(TIM_OCInitStruct->TIM_OutputState));
 368:../Library/STM32F10x_StdPeriph_Driver/src/stm32f10x_tim.c ****   assert_param(IS_TIM_OC_POLARITY(TIM_OCInitStruct->TIM_OCPolarity));   
 369:../Library/STM32F10x_StdPeriph_Driver/src/stm32f10x_tim.c ****    /* Disable the Channel 2: Reset the CC2E Bit */
 370:../Library/STM32F10x_StdPeriph_Driver/src/stm32f10x_tim.c ****   TIMx->CCER &= (uint16_t)(~((uint16_t)TIM_CCER_CC2E));
 18547              		.loc 1 370 0
 18548 0002 038C     		ldrh	r3, [r0, #32]
 18549 0004 23F01003 		bic	r3, r3, #16
 18550 0008 4FEA0343 		lsl	r3, r3, #16
 18551 000c 4FEA1343 		lsr	r3, r3, #16
 18552 0010 0384     		strh	r3, [r0, #32]	@ movhi
 371:../Library/STM32F10x_StdPeriph_Driver/src/stm32f10x_tim.c ****   
 372:../Library/STM32F10x_StdPeriph_Driver/src/stm32f10x_tim.c ****   /* Get the TIMx CCER register value */  
 373:../Library/STM32F10x_StdPeriph_Driver/src/stm32f10x_tim.c ****   tmpccer = TIMx->CCER;
 18553              		.loc 1 373 0
 18554 0012 028C     		ldrh	r2, [r0, #32]
 374:../Library/STM32F10x_StdPeriph_Driver/src/stm32f10x_tim.c ****   /* Get the TIMx CR2 register value */
 375:../Library/STM32F10x_StdPeriph_Driver/src/stm32f10x_tim.c ****   tmpcr2 =  TIMx->CR2;
 18555              		.loc 1 375 0
 18556 0014 B0F804C0 		ldrh	ip, [r0, #4]
 18557 0018 1FFA8CFC 		uxth	ip, ip
 18558              	.LVL39:
 376:../Library/STM32F10x_StdPeriph_Driver/src/stm32f10x_tim.c ****   
 377:../Library/STM32F10x_StdPeriph_Driver/src/stm32f10x_tim.c ****   /* Get the TIMx CCMR1 register value */
 378:../Library/STM32F10x_StdPeriph_Driver/src/stm32f10x_tim.c ****   tmpccmrx = TIMx->CCMR1;
 18559              		.loc 1 378 0
 18560 001c 078B     		ldrh	r7, [r0, #24]
 18561              		.cfi_offset 7, -4
 18562              		.cfi_offset 6, -8
 18563              		.cfi_offset 5, -12
 18564              		.cfi_offset 4, -16
 18565 001e BFB2     		uxth	r7, r7
 18566              	.LVL40:
 379:../Library/STM32F10x_StdPeriph_Driver/src/stm32f10x_tim.c ****     
 380:../Library/STM32F10x_StdPeriph_Driver/src/stm32f10x_tim.c ****   /* Reset the Output Compare mode and Capture/Compare selection Bits */
 381:../Library/STM32F10x_StdPeriph_Driver/src/stm32f10x_tim.c ****   tmpccmrx &= (uint16_t)(~((uint16_t)TIM_CCMR1_OC2M));
 382:../Library/STM32F10x_StdPeriph_Driver/src/stm32f10x_tim.c ****   tmpccmrx &= (uint16_t)(~((uint16_t)TIM_CCMR1_CC2S));
 383:../Library/STM32F10x_StdPeriph_Driver/src/stm32f10x_tim.c ****   
 384:../Library/STM32F10x_StdPeriph_Driver/src/stm32f10x_tim.c ****   /* Select the Output Compare Mode */
 385:../Library/STM32F10x_StdPeriph_Driver/src/stm32f10x_tim.c ****   tmpccmrx |= (uint16_t)(TIM_OCInitStruct->TIM_OCMode << 8);
 18567              		.loc 1 385 0
 18568 0020 0E88     		ldrh	r6, [r1, #0]
 386:../Library/STM32F10x_StdPeriph_Driver/src/stm32f10x_tim.c ****   
 387:../Library/STM32F10x_StdPeriph_Driver/src/stm32f10x_tim.c ****   /* Reset the Output Polarity level */
 388:../Library/STM32F10x_StdPeriph_Driver/src/stm32f10x_tim.c ****   tmpccer &= (uint16_t)(~((uint16_t)TIM_CCER_CC2P));
 18569              		.loc 1 388 0
 18570 0022 22F02002 		bic	r2, r2, #32
 18571              	.LVL41:
 18572 0026 4FEA0242 		lsl	r2, r2, #16
 18573              	.LVL42:
 18574 002a 4FEA1242 		lsr	r2, r2, #16
 18575              	.LVL43:
 389:../Library/STM32F10x_StdPeriph_Driver/src/stm32f10x_tim.c ****   /* Set the Output Compare Polarity */
 390:../Library/STM32F10x_StdPeriph_Driver/src/stm32f10x_tim.c ****   tmpccer |= (uint16_t)(TIM_OCInitStruct->TIM_OCPolarity << 4);
 18576              		.loc 1 390 0
 18577 002e 0B89     		ldrh	r3, [r1, #8]
 18578 0030 42EA0312 		orr	r2, r2, r3, lsl #4
 18579              	.LVL44:
 391:../Library/STM32F10x_StdPeriph_Driver/src/stm32f10x_tim.c ****   
 392:../Library/STM32F10x_StdPeriph_Driver/src/stm32f10x_tim.c ****   /* Set the Output State */
 393:../Library/STM32F10x_StdPeriph_Driver/src/stm32f10x_tim.c ****   tmpccer |= (uint16_t)(TIM_OCInitStruct->TIM_OutputState << 4);
 18580              		.loc 1 393 0
 18581 0034 4B88     		ldrh	r3, [r1, #2]
 18582 0036 42EA0312 		orr	r2, r2, r3, lsl #4
 18583              	.LVL45:
 18584 003a 92B2     		uxth	r2, r2
 18585              	.LVL46:
 394:../Library/STM32F10x_StdPeriph_Driver/src/stm32f10x_tim.c ****     
 395:../Library/STM32F10x_StdPeriph_Driver/src/stm32f10x_tim.c ****   if((TIMx == TIM1) || (TIMx == TIM8))
 18586              		.loc 1 395 0
 18587 003c 42F60044 		movw	r4, #:lower16:1073818624
 18588 0040 C4F20104 		movt	r4, #:upper16:1073818624
 18589 0044 43F20045 		movw	r5, #:lower16:1073820672
 18590 0048 C4F20105 		movt	r5, #:upper16:1073820672
 18591 004c A842     		cmp	r0, r5
 18592 004e 14BF     		ite	ne
 18593 0050 0025     		movne	r5, #0
 18594 0052 0125     		moveq	r5, #1
 18595 0054 A042     		cmp	r0, r4
 18596 0056 14BF     		ite	ne
 18597 0058 2C46     		movne	r4, r5
 18598 005a 45F00104 		orreq	r4, r5, #1
 18599 005e 14B3     		cbz	r4, .L13
 396:../Library/STM32F10x_StdPeriph_Driver/src/stm32f10x_tim.c ****   {
 397:../Library/STM32F10x_StdPeriph_Driver/src/stm32f10x_tim.c ****     assert_param(IS_TIM_OUTPUTN_STATE(TIM_OCInitStruct->TIM_OutputNState));
 398:../Library/STM32F10x_StdPeriph_Driver/src/stm32f10x_tim.c ****     assert_param(IS_TIM_OCN_POLARITY(TIM_OCInitStruct->TIM_OCNPolarity));
 399:../Library/STM32F10x_StdPeriph_Driver/src/stm32f10x_tim.c ****     assert_param(IS_TIM_OCNIDLE_STATE(TIM_OCInitStruct->TIM_OCNIdleState));
 400:../Library/STM32F10x_StdPeriph_Driver/src/stm32f10x_tim.c ****     assert_param(IS_TIM_OCIDLE_STATE(TIM_OCInitStruct->TIM_OCIdleState));
 401:../Library/STM32F10x_StdPeriph_Driver/src/stm32f10x_tim.c ****     
 402:../Library/STM32F10x_StdPeriph_Driver/src/stm32f10x_tim.c ****     /* Reset the Output N Polarity level */
 403:../Library/STM32F10x_StdPeriph_Driver/src/stm32f10x_tim.c ****     tmpccer &= (uint16_t)(~((uint16_t)TIM_CCER_CC2NP));
 18600              		.loc 1 403 0
 18601 0060 4FF67F73 		movw	r3, #:lower16:65407
 18602              	.LVL47:
 18603 0064 C0F20003 		movt	r3, #:upper16:65407
 18604              	.LVL48:
 18605 0068 02EA0303 		and	r3, r2, r3
 18606              	.LVL49:
 404:../Library/STM32F10x_StdPeriph_Driver/src/stm32f10x_tim.c ****     /* Set the Output N Polarity */
 405:../Library/STM32F10x_StdPeriph_Driver/src/stm32f10x_tim.c ****     tmpccer |= (uint16_t)(TIM_OCInitStruct->TIM_OCNPolarity << 4);
 18607              		.loc 1 405 0
 18608 006c 4A89     		ldrh	r2, [r1, #10]
 18609 006e 43EA0213 		orr	r3, r3, r2, lsl #4
 18610              	.LVL50:
 406:../Library/STM32F10x_StdPeriph_Driver/src/stm32f10x_tim.c ****     
 407:../Library/STM32F10x_StdPeriph_Driver/src/stm32f10x_tim.c ****     /* Reset the Output N State */
 408:../Library/STM32F10x_StdPeriph_Driver/src/stm32f10x_tim.c ****     tmpccer &= (uint16_t)(~((uint16_t)TIM_CCER_CC2NE));    
 18611              		.loc 1 408 0
 18612 0072 4FF6BF72 		movw	r2, #:lower16:65471
 18613              	.LVL51:
 18614 0076 C0F20002 		movt	r2, #:upper16:65471
 18615              	.LVL52:
 18616 007a 03EA0202 		and	r2, r3, r2
 18617              	.LVL53:
 409:../Library/STM32F10x_StdPeriph_Driver/src/stm32f10x_tim.c ****     /* Set the Output N State */
 410:../Library/STM32F10x_StdPeriph_Driver/src/stm32f10x_tim.c ****     tmpccer |= (uint16_t)(TIM_OCInitStruct->TIM_OutputNState << 4);
 18618              		.loc 1 410 0
 18619 007e 8B88     		ldrh	r3, [r1, #4]
 18620 0080 42EA0312 		orr	r2, r2, r3, lsl #4
 18621              	.LVL54:
 18622 0084 92B2     		uxth	r2, r2
 18623              	.LVL55:
 411:../Library/STM32F10x_StdPeriph_Driver/src/stm32f10x_tim.c ****     
 412:../Library/STM32F10x_StdPeriph_Driver/src/stm32f10x_tim.c ****     /* Reset the Ouput Compare and Output Compare N IDLE State */
 413:../Library/STM32F10x_StdPeriph_Driver/src/stm32f10x_tim.c ****     tmpcr2 &= (uint16_t)(~((uint16_t)TIM_CR2_OIS2));
 414:../Library/STM32F10x_StdPeriph_Driver/src/stm32f10x_tim.c ****     tmpcr2 &= (uint16_t)(~((uint16_t)TIM_CR2_OIS2N));
 18624              		.loc 1 414 0
 18625 0086 4FF2FF34 		movw	r4, #:lower16:62463
 18626              	.LVL56:
 18627 008a C0F20004 		movt	r4, #:upper16:62463
 18628              	.LVL57:
 18629 008e 0CEA0404 		and	r4, ip, r4
 18630              	.LVL58:
 415:../Library/STM32F10x_StdPeriph_Driver/src/stm32f10x_tim.c ****     
 416:../Library/STM32F10x_StdPeriph_Driver/src/stm32f10x_tim.c ****     /* Set the Output Idle state */
 417:../Library/STM32F10x_StdPeriph_Driver/src/stm32f10x_tim.c ****     tmpcr2 |= (uint16_t)(TIM_OCInitStruct->TIM_OCIdleState << 2);
 18631              		.loc 1 417 0
 18632 0092 B1F80CC0 		ldrh	ip, [r1, #12]
 18633 0096 44EA8C04 		orr	r4, r4, ip, lsl #2
 18634              	.LVL59:
 418:../Library/STM32F10x_StdPeriph_Driver/src/stm32f10x_tim.c ****     /* Set the Output N Idle state */
 419:../Library/STM32F10x_StdPeriph_Driver/src/stm32f10x_tim.c ****     tmpcr2 |= (uint16_t)(TIM_OCInitStruct->TIM_OCNIdleState << 2);
 18635              		.loc 1 419 0
 18636 009a B1F80EC0 		ldrh	ip, [r1, #14]
 18637 009e 44EA8C0C 		orr	ip, r4, ip, lsl #2
 18638              	.LVL60:
 18639 00a2 1FFA8CFC 		uxth	ip, ip
 18640              	.LVL61:
 18641              	.L13:
 420:../Library/STM32F10x_StdPeriph_Driver/src/stm32f10x_tim.c ****   }
 421:../Library/STM32F10x_StdPeriph_Driver/src/stm32f10x_tim.c ****   /* Write to TIMx CR2 */
 422:../Library/STM32F10x_StdPeriph_Driver/src/stm32f10x_tim.c ****   TIMx->CR2 = tmpcr2;
 18642              		.loc 1 422 0
 18643 00a6 A0F804C0 		strh	ip, [r0, #4]	@ movhi
 18644              		.loc 1 382 0
 18645 00aa 48F6FF43 		movw	r3, #:lower16:36095
 18646              	.LVL62:
 18647 00ae C0F20003 		movt	r3, #:upper16:36095
 18648              	.LVL63:
 18649 00b2 07EA0303 		and	r3, r7, r3
 18650              	.LVL64:
 18651              		.loc 1 385 0
 18652 00b6 43EA0623 		orr	r3, r3, r6, lsl #8
 18653              	.LVL65:
 18654 00ba 9BB2     		uxth	r3, r3
 18655              	.LVL66:
 423:../Library/STM32F10x_StdPeriph_Driver/src/stm32f10x_tim.c ****   
 424:../Library/STM32F10x_StdPeriph_Driver/src/stm32f10x_tim.c ****   /* Write to TIMx CCMR1 */
 425:../Library/STM32F10x_StdPeriph_Driver/src/stm32f10x_tim.c ****   TIMx->CCMR1 = tmpccmrx;
 18656              		.loc 1 425 0
 18657 00bc 0383     		strh	r3, [r0, #24]	@ movhi
 426:../Library/STM32F10x_StdPeriph_Driver/src/stm32f10x_tim.c **** 
 427:../Library/STM32F10x_StdPeriph_Driver/src/stm32f10x_tim.c ****   /* Set the Capture Compare Register value */
 428:../Library/STM32F10x_StdPeriph_Driver/src/stm32f10x_tim.c ****   TIMx->CCR2 = TIM_OCInitStruct->TIM_Pulse;
 18658              		.loc 1 428 0
 18659 00be CB88     		ldrh	r3, [r1, #6]
 18660              	.LVL67:
 18661 00c0 0387     		strh	r3, [r0, #56]	@ movhi
 429:../Library/STM32F10x_StdPeriph_Driver/src/stm32f10x_tim.c ****   
 430:../Library/STM32F10x_StdPeriph_Driver/src/stm32f10x_tim.c ****   /* Write to TIMx CCER */
 431:../Library/STM32F10x_StdPeriph_Driver/src/stm32f10x_tim.c ****   TIMx->CCER = tmpccer;
 18662              		.loc 1 431 0
 18663 00c2 0284     		strh	r2, [r0, #32]	@ movhi
 432:../Library/STM32F10x_StdPeriph_Driver/src/stm32f10x_tim.c **** }
 18664              		.loc 1 432 0
 18665 00c4 F0BC     		pop	{r4, r5, r6, r7}
 18666 00c6 7047     		bx	lr
 18667              		.cfi_endproc
 18668              	.LFE32:
 18670              		.section	.text.TIM_OC3Init,"ax",%progbits
 18671              		.align	2
 18672              		.global	TIM_OC3Init
 18673              		.thumb
 18674              		.thumb_func
 18676              	TIM_OC3Init:
 18677              	.LFB33:
 433:../Library/STM32F10x_StdPeriph_Driver/src/stm32f10x_tim.c **** 
 434:../Library/STM32F10x_StdPeriph_Driver/src/stm32f10x_tim.c **** /**
 435:../Library/STM32F10x_StdPeriph_Driver/src/stm32f10x_tim.c ****   * @brief  Initializes the TIMx Channel3 according to the specified
 436:../Library/STM32F10x_StdPeriph_Driver/src/stm32f10x_tim.c ****   *   parameters in the TIM_OCInitStruct.
 437:../Library/STM32F10x_StdPeriph_Driver/src/stm32f10x_tim.c ****   * @param  TIMx: where x can be  1, 2, 3, 4, 5 or 8 to select the TIM peripheral.
 438:../Library/STM32F10x_StdPeriph_Driver/src/stm32f10x_tim.c ****   * @param  TIM_OCInitStruct: pointer to a TIM_OCInitTypeDef structure
 439:../Library/STM32F10x_StdPeriph_Driver/src/stm32f10x_tim.c ****   *   that contains the configuration information for the specified TIM peripheral.
 440:../Library/STM32F10x_StdPeriph_Driver/src/stm32f10x_tim.c ****   * @retval None
 441:../Library/STM32F10x_StdPeriph_Driver/src/stm32f10x_tim.c ****   */
 442:../Library/STM32F10x_StdPeriph_Driver/src/stm32f10x_tim.c **** void TIM_OC3Init(TIM_TypeDef* TIMx, TIM_OCInitTypeDef* TIM_OCInitStruct)
 443:../Library/STM32F10x_StdPeriph_Driver/src/stm32f10x_tim.c **** {
 18678              		.loc 1 443 0
 18679              		.cfi_startproc
 18680              		@ args = 0, pretend = 0, frame = 0
 18681              		@ frame_needed = 0, uses_anonymous_args = 0
 18682              		@ link register save eliminated.
 18683              	.LVL68:
 18684 0000 F0B4     		push	{r4, r5, r6, r7}
 18685              	.LCFI3:
 18686              		.cfi_def_cfa_offset 16
 444:../Library/STM32F10x_StdPeriph_Driver/src/stm32f10x_tim.c ****   uint16_t tmpccmrx = 0, tmpccer = 0, tmpcr2 = 0;
 445:../Library/STM32F10x_StdPeriph_Driver/src/stm32f10x_tim.c ****    
 446:../Library/STM32F10x_StdPeriph_Driver/src/stm32f10x_tim.c ****   /* Check the parameters */
 447:../Library/STM32F10x_StdPeriph_Driver/src/stm32f10x_tim.c ****   assert_param(IS_TIM_LIST3_PERIPH(TIMx)); 
 448:../Library/STM32F10x_StdPeriph_Driver/src/stm32f10x_tim.c ****   assert_param(IS_TIM_OC_MODE(TIM_OCInitStruct->TIM_OCMode));
 449:../Library/STM32F10x_StdPeriph_Driver/src/stm32f10x_tim.c ****   assert_param(IS_TIM_OUTPUT_STATE(TIM_OCInitStruct->TIM_OutputState));
 450:../Library/STM32F10x_StdPeriph_Driver/src/stm32f10x_tim.c ****   assert_param(IS_TIM_OC_POLARITY(TIM_OCInitStruct->TIM_OCPolarity));   
 451:../Library/STM32F10x_StdPeriph_Driver/src/stm32f10x_tim.c ****   /* Disable the Channel 2: Reset the CC2E Bit */
 452:../Library/STM32F10x_StdPeriph_Driver/src/stm32f10x_tim.c ****   TIMx->CCER &= (uint16_t)(~((uint16_t)TIM_CCER_CC3E));
 18687              		.loc 1 452 0
 18688 0002 038C     		ldrh	r3, [r0, #32]
 18689 0004 23F48073 		bic	r3, r3, #256
 18690 0008 4FEA0343 		lsl	r3, r3, #16
 18691 000c 4FEA1343 		lsr	r3, r3, #16
 18692 0010 0384     		strh	r3, [r0, #32]	@ movhi
 453:../Library/STM32F10x_StdPeriph_Driver/src/stm32f10x_tim.c ****   
 454:../Library/STM32F10x_StdPeriph_Driver/src/stm32f10x_tim.c ****   /* Get the TIMx CCER register value */
 455:../Library/STM32F10x_StdPeriph_Driver/src/stm32f10x_tim.c ****   tmpccer = TIMx->CCER;
 18693              		.loc 1 455 0
 18694 0012 028C     		ldrh	r2, [r0, #32]
 456:../Library/STM32F10x_StdPeriph_Driver/src/stm32f10x_tim.c ****   /* Get the TIMx CR2 register value */
 457:../Library/STM32F10x_StdPeriph_Driver/src/stm32f10x_tim.c ****   tmpcr2 =  TIMx->CR2;
 18695              		.loc 1 457 0
 18696 0014 B0F804C0 		ldrh	ip, [r0, #4]
 18697 0018 1FFA8CFC 		uxth	ip, ip
 18698              	.LVL69:
 458:../Library/STM32F10x_StdPeriph_Driver/src/stm32f10x_tim.c ****   
 459:../Library/STM32F10x_StdPeriph_Driver/src/stm32f10x_tim.c ****   /* Get the TIMx CCMR2 register value */
 460:../Library/STM32F10x_StdPeriph_Driver/src/stm32f10x_tim.c ****   tmpccmrx = TIMx->CCMR2;
 18699              		.loc 1 460 0
 18700 001c 878B     		ldrh	r7, [r0, #28]
 18701              		.cfi_offset 7, -4
 18702              		.cfi_offset 6, -8
 18703              		.cfi_offset 5, -12
 18704              		.cfi_offset 4, -16
 18705 001e BFB2     		uxth	r7, r7
 18706              	.LVL70:
 461:../Library/STM32F10x_StdPeriph_Driver/src/stm32f10x_tim.c ****     
 462:../Library/STM32F10x_StdPeriph_Driver/src/stm32f10x_tim.c ****   /* Reset the Output Compare mode and Capture/Compare selection Bits */
 463:../Library/STM32F10x_StdPeriph_Driver/src/stm32f10x_tim.c ****   tmpccmrx &= (uint16_t)(~((uint16_t)TIM_CCMR2_OC3M));
 464:../Library/STM32F10x_StdPeriph_Driver/src/stm32f10x_tim.c ****   tmpccmrx &= (uint16_t)(~((uint16_t)TIM_CCMR2_CC3S));  
 465:../Library/STM32F10x_StdPeriph_Driver/src/stm32f10x_tim.c ****   /* Select the Output Compare Mode */
 466:../Library/STM32F10x_StdPeriph_Driver/src/stm32f10x_tim.c ****   tmpccmrx |= TIM_OCInitStruct->TIM_OCMode;
 18707              		.loc 1 466 0
 18708 0020 0E88     		ldrh	r6, [r1, #0]
 467:../Library/STM32F10x_StdPeriph_Driver/src/stm32f10x_tim.c ****   
 468:../Library/STM32F10x_StdPeriph_Driver/src/stm32f10x_tim.c ****   /* Reset the Output Polarity level */
 469:../Library/STM32F10x_StdPeriph_Driver/src/stm32f10x_tim.c ****   tmpccer &= (uint16_t)(~((uint16_t)TIM_CCER_CC3P));
 18709              		.loc 1 469 0
 18710 0022 22F40072 		bic	r2, r2, #512
 18711              	.LVL71:
 18712 0026 4FEA0242 		lsl	r2, r2, #16
 18713              	.LVL72:
 18714 002a 4FEA1242 		lsr	r2, r2, #16
 18715              	.LVL73:
 470:../Library/STM32F10x_StdPeriph_Driver/src/stm32f10x_tim.c ****   /* Set the Output Compare Polarity */
 471:../Library/STM32F10x_StdPeriph_Driver/src/stm32f10x_tim.c ****   tmpccer |= (uint16_t)(TIM_OCInitStruct->TIM_OCPolarity << 8);
 18716              		.loc 1 471 0
 18717 002e 0B89     		ldrh	r3, [r1, #8]
 18718 0030 42EA0322 		orr	r2, r2, r3, lsl #8
 18719              	.LVL74:
 472:../Library/STM32F10x_StdPeriph_Driver/src/stm32f10x_tim.c ****   
 473:../Library/STM32F10x_StdPeriph_Driver/src/stm32f10x_tim.c ****   /* Set the Output State */
 474:../Library/STM32F10x_StdPeriph_Driver/src/stm32f10x_tim.c ****   tmpccer |= (uint16_t)(TIM_OCInitStruct->TIM_OutputState << 8);
 18720              		.loc 1 474 0
 18721 0034 4B88     		ldrh	r3, [r1, #2]
 18722 0036 42EA0322 		orr	r2, r2, r3, lsl #8
 18723              	.LVL75:
 18724 003a 92B2     		uxth	r2, r2
 18725              	.LVL76:
 475:../Library/STM32F10x_StdPeriph_Driver/src/stm32f10x_tim.c ****     
 476:../Library/STM32F10x_StdPeriph_Driver/src/stm32f10x_tim.c ****   if((TIMx == TIM1) || (TIMx == TIM8))
 18726              		.loc 1 476 0
 18727 003c 42F60044 		movw	r4, #:lower16:1073818624
 18728 0040 C4F20104 		movt	r4, #:upper16:1073818624
 18729 0044 43F20045 		movw	r5, #:lower16:1073820672
 18730 0048 C4F20105 		movt	r5, #:upper16:1073820672
 18731 004c A842     		cmp	r0, r5
 18732 004e 14BF     		ite	ne
 18733 0050 0025     		movne	r5, #0
 18734 0052 0125     		moveq	r5, #1
 18735 0054 A042     		cmp	r0, r4
 18736 0056 14BF     		ite	ne
 18737 0058 2C46     		movne	r4, r5
 18738 005a 45F00104 		orreq	r4, r5, #1
 18739 005e 14B3     		cbz	r4, .L16
 477:../Library/STM32F10x_StdPeriph_Driver/src/stm32f10x_tim.c ****   {
 478:../Library/STM32F10x_StdPeriph_Driver/src/stm32f10x_tim.c ****     assert_param(IS_TIM_OUTPUTN_STATE(TIM_OCInitStruct->TIM_OutputNState));
 479:../Library/STM32F10x_StdPeriph_Driver/src/stm32f10x_tim.c ****     assert_param(IS_TIM_OCN_POLARITY(TIM_OCInitStruct->TIM_OCNPolarity));
 480:../Library/STM32F10x_StdPeriph_Driver/src/stm32f10x_tim.c ****     assert_param(IS_TIM_OCNIDLE_STATE(TIM_OCInitStruct->TIM_OCNIdleState));
 481:../Library/STM32F10x_StdPeriph_Driver/src/stm32f10x_tim.c ****     assert_param(IS_TIM_OCIDLE_STATE(TIM_OCInitStruct->TIM_OCIdleState));
 482:../Library/STM32F10x_StdPeriph_Driver/src/stm32f10x_tim.c ****     
 483:../Library/STM32F10x_StdPeriph_Driver/src/stm32f10x_tim.c ****     /* Reset the Output N Polarity level */
 484:../Library/STM32F10x_StdPeriph_Driver/src/stm32f10x_tim.c ****     tmpccer &= (uint16_t)(~((uint16_t)TIM_CCER_CC3NP));
 18740              		.loc 1 484 0
 18741 0060 4FF2FF73 		movw	r3, #:lower16:63487
 18742              	.LVL77:
 18743 0064 C0F20003 		movt	r3, #:upper16:63487
 18744              	.LVL78:
 18745 0068 02EA0303 		and	r3, r2, r3
 18746              	.LVL79:
 485:../Library/STM32F10x_StdPeriph_Driver/src/stm32f10x_tim.c ****     /* Set the Output N Polarity */
 486:../Library/STM32F10x_StdPeriph_Driver/src/stm32f10x_tim.c ****     tmpccer |= (uint16_t)(TIM_OCInitStruct->TIM_OCNPolarity << 8);
 18747              		.loc 1 486 0
 18748 006c 4A89     		ldrh	r2, [r1, #10]
 18749 006e 43EA0223 		orr	r3, r3, r2, lsl #8
 18750              	.LVL80:
 487:../Library/STM32F10x_StdPeriph_Driver/src/stm32f10x_tim.c ****     /* Reset the Output N State */
 488:../Library/STM32F10x_StdPeriph_Driver/src/stm32f10x_tim.c ****     tmpccer &= (uint16_t)(~((uint16_t)TIM_CCER_CC3NE));
 18751              		.loc 1 488 0
 18752 0072 4FF6FF32 		movw	r2, #:lower16:64511
 18753              	.LVL81:
 18754 0076 C0F20002 		movt	r2, #:upper16:64511
 18755              	.LVL82:
 18756 007a 03EA0202 		and	r2, r3, r2
 18757              	.LVL83:
 489:../Library/STM32F10x_StdPeriph_Driver/src/stm32f10x_tim.c ****     
 490:../Library/STM32F10x_StdPeriph_Driver/src/stm32f10x_tim.c ****     /* Set the Output N State */
 491:../Library/STM32F10x_StdPeriph_Driver/src/stm32f10x_tim.c ****     tmpccer |= (uint16_t)(TIM_OCInitStruct->TIM_OutputNState << 8);
 18758              		.loc 1 491 0
 18759 007e 8B88     		ldrh	r3, [r1, #4]
 18760 0080 42EA0322 		orr	r2, r2, r3, lsl #8
 18761              	.LVL84:
 18762 0084 92B2     		uxth	r2, r2
 18763              	.LVL85:
 492:../Library/STM32F10x_StdPeriph_Driver/src/stm32f10x_tim.c ****     /* Reset the Ouput Compare and Output Compare N IDLE State */
 493:../Library/STM32F10x_StdPeriph_Driver/src/stm32f10x_tim.c ****     tmpcr2 &= (uint16_t)(~((uint16_t)TIM_CR2_OIS3));
 494:../Library/STM32F10x_StdPeriph_Driver/src/stm32f10x_tim.c ****     tmpcr2 &= (uint16_t)(~((uint16_t)TIM_CR2_OIS3N));
 18764              		.loc 1 494 0
 18765 0086 4CF6FF74 		movw	r4, #:lower16:53247
 18766              	.LVL86:
 18767 008a C0F20004 		movt	r4, #:upper16:53247
 18768              	.LVL87:
 18769 008e 0CEA0404 		and	r4, ip, r4
 18770              	.LVL88:
 495:../Library/STM32F10x_StdPeriph_Driver/src/stm32f10x_tim.c ****     /* Set the Output Idle state */
 496:../Library/STM32F10x_StdPeriph_Driver/src/stm32f10x_tim.c ****     tmpcr2 |= (uint16_t)(TIM_OCInitStruct->TIM_OCIdleState << 4);
 18771              		.loc 1 496 0
 18772 0092 B1F80CC0 		ldrh	ip, [r1, #12]
 18773 0096 44EA0C14 		orr	r4, r4, ip, lsl #4
 18774              	.LVL89:
 497:../Library/STM32F10x_StdPeriph_Driver/src/stm32f10x_tim.c ****     /* Set the Output N Idle state */
 498:../Library/STM32F10x_StdPeriph_Driver/src/stm32f10x_tim.c ****     tmpcr2 |= (uint16_t)(TIM_OCInitStruct->TIM_OCNIdleState << 4);
 18775              		.loc 1 498 0
 18776 009a B1F80EC0 		ldrh	ip, [r1, #14]
 18777 009e 44EA0C1C 		orr	ip, r4, ip, lsl #4
 18778              	.LVL90:
 18779 00a2 1FFA8CFC 		uxth	ip, ip
 18780              	.LVL91:
 18781              	.L16:
 499:../Library/STM32F10x_StdPeriph_Driver/src/stm32f10x_tim.c ****   }
 500:../Library/STM32F10x_StdPeriph_Driver/src/stm32f10x_tim.c ****   /* Write to TIMx CR2 */
 501:../Library/STM32F10x_StdPeriph_Driver/src/stm32f10x_tim.c ****   TIMx->CR2 = tmpcr2;
 18782              		.loc 1 501 0
 18783 00a6 A0F804C0 		strh	ip, [r0, #4]	@ movhi
 18784              		.loc 1 464 0
 18785 00aa 4FF68C73 		movw	r3, #:lower16:65420
 18786              	.LVL92:
 18787 00ae C0F20003 		movt	r3, #:upper16:65420
 18788              	.LVL93:
 18789 00b2 07EA0303 		and	r3, r7, r3
 18790              	.LVL94:
 18791              		.loc 1 466 0
 18792 00b6 43EA0603 		orr	r3, r3, r6
 18793              	.LVL95:
 502:../Library/STM32F10x_StdPeriph_Driver/src/stm32f10x_tim.c ****   
 503:../Library/STM32F10x_StdPeriph_Driver/src/stm32f10x_tim.c ****   /* Write to TIMx CCMR2 */
 504:../Library/STM32F10x_StdPeriph_Driver/src/stm32f10x_tim.c ****   TIMx->CCMR2 = tmpccmrx;
 18794              		.loc 1 504 0
 18795 00ba 8383     		strh	r3, [r0, #28]	@ movhi
 505:../Library/STM32F10x_StdPeriph_Driver/src/stm32f10x_tim.c **** 
 506:../Library/STM32F10x_StdPeriph_Driver/src/stm32f10x_tim.c ****   /* Set the Capture Compare Register value */
 507:../Library/STM32F10x_StdPeriph_Driver/src/stm32f10x_tim.c ****   TIMx->CCR3 = TIM_OCInitStruct->TIM_Pulse;
 18796              		.loc 1 507 0
 18797 00bc CB88     		ldrh	r3, [r1, #6]
 18798              	.LVL96:
 18799 00be 8387     		strh	r3, [r0, #60]	@ movhi
 508:../Library/STM32F10x_StdPeriph_Driver/src/stm32f10x_tim.c ****   
 509:../Library/STM32F10x_StdPeriph_Driver/src/stm32f10x_tim.c ****   /* Write to TIMx CCER */
 510:../Library/STM32F10x_StdPeriph_Driver/src/stm32f10x_tim.c ****   TIMx->CCER = tmpccer;
 18800              		.loc 1 510 0
 18801 00c0 0284     		strh	r2, [r0, #32]	@ movhi
 511:../Library/STM32F10x_StdPeriph_Driver/src/stm32f10x_tim.c **** }
 18802              		.loc 1 511 0
 18803 00c2 F0BC     		pop	{r4, r5, r6, r7}
 18804 00c4 7047     		bx	lr
 18805              		.cfi_endproc
 18806              	.LFE33:
 18808 00c6 00BF     		.section	.text.TIM_OC4Init,"ax",%progbits
 18809              		.align	2
 18810              		.global	TIM_OC4Init
 18811              		.thumb
 18812              		.thumb_func
 18814              	TIM_OC4Init:
 18815              	.LFB34:
 512:../Library/STM32F10x_StdPeriph_Driver/src/stm32f10x_tim.c **** 
 513:../Library/STM32F10x_StdPeriph_Driver/src/stm32f10x_tim.c **** /**
 514:../Library/STM32F10x_StdPeriph_Driver/src/stm32f10x_tim.c ****   * @brief  Initializes the TIMx Channel4 according to the specified
 515:../Library/STM32F10x_StdPeriph_Driver/src/stm32f10x_tim.c ****   *   parameters in the TIM_OCInitStruct.
 516:../Library/STM32F10x_StdPeriph_Driver/src/stm32f10x_tim.c ****   * @param  TIMx: where x can be  1, 2, 3, 4, 5 or 8 to select the TIM peripheral.
 517:../Library/STM32F10x_StdPeriph_Driver/src/stm32f10x_tim.c ****   * @param  TIM_OCInitStruct: pointer to a TIM_OCInitTypeDef structure
 518:../Library/STM32F10x_StdPeriph_Driver/src/stm32f10x_tim.c ****   *   that contains the configuration information for the specified TIM peripheral.
 519:../Library/STM32F10x_StdPeriph_Driver/src/stm32f10x_tim.c ****   * @retval None
 520:../Library/STM32F10x_StdPeriph_Driver/src/stm32f10x_tim.c ****   */
 521:../Library/STM32F10x_StdPeriph_Driver/src/stm32f10x_tim.c **** void TIM_OC4Init(TIM_TypeDef* TIMx, TIM_OCInitTypeDef* TIM_OCInitStruct)
 522:../Library/STM32F10x_StdPeriph_Driver/src/stm32f10x_tim.c **** {
 18816              		.loc 1 522 0
 18817              		.cfi_startproc
 18818              		@ args = 0, pretend = 0, frame = 0
 18819              		@ frame_needed = 0, uses_anonymous_args = 0
 18820              		@ link register save eliminated.
 18821              	.LVL97:
 18822 0000 2DE9F005 		push	{r4, r5, r6, r7, r8, sl}
 18823              	.LCFI4:
 18824              		.cfi_def_cfa_offset 24
 523:../Library/STM32F10x_StdPeriph_Driver/src/stm32f10x_tim.c ****   uint16_t tmpccmrx = 0, tmpccer = 0, tmpcr2 = 0;
 524:../Library/STM32F10x_StdPeriph_Driver/src/stm32f10x_tim.c ****    
 525:../Library/STM32F10x_StdPeriph_Driver/src/stm32f10x_tim.c ****   /* Check the parameters */
 526:../Library/STM32F10x_StdPeriph_Driver/src/stm32f10x_tim.c ****   assert_param(IS_TIM_LIST3_PERIPH(TIMx)); 
 527:../Library/STM32F10x_StdPeriph_Driver/src/stm32f10x_tim.c ****   assert_param(IS_TIM_OC_MODE(TIM_OCInitStruct->TIM_OCMode));
 528:../Library/STM32F10x_StdPeriph_Driver/src/stm32f10x_tim.c ****   assert_param(IS_TIM_OUTPUT_STATE(TIM_OCInitStruct->TIM_OutputState));
 529:../Library/STM32F10x_StdPeriph_Driver/src/stm32f10x_tim.c ****   assert_param(IS_TIM_OC_POLARITY(TIM_OCInitStruct->TIM_OCPolarity));   
 530:../Library/STM32F10x_StdPeriph_Driver/src/stm32f10x_tim.c ****   /* Disable the Channel 2: Reset the CC4E Bit */
 531:../Library/STM32F10x_StdPeriph_Driver/src/stm32f10x_tim.c ****   TIMx->CCER &= (uint16_t)(~((uint16_t)TIM_CCER_CC4E));
 18825              		.loc 1 531 0
 18826 0004 038C     		ldrh	r3, [r0, #32]
 18827 0006 23F48053 		bic	r3, r3, #4096
 18828 000a 4FEA0343 		lsl	r3, r3, #16
 18829 000e 4FEA1343 		lsr	r3, r3, #16
 18830 0012 0384     		strh	r3, [r0, #32]	@ movhi
 532:../Library/STM32F10x_StdPeriph_Driver/src/stm32f10x_tim.c ****   
 533:../Library/STM32F10x_StdPeriph_Driver/src/stm32f10x_tim.c ****   /* Get the TIMx CCER register value */
 534:../Library/STM32F10x_StdPeriph_Driver/src/stm32f10x_tim.c ****   tmpccer = TIMx->CCER;
 18831              		.loc 1 534 0
 18832 0014 B0F82080 		ldrh	r8, [r0, #32]
 18833              		.cfi_offset 10, -4
 18834              		.cfi_offset 8, -8
 18835              		.cfi_offset 7, -12
 18836              		.cfi_offset 6, -16
 18837              		.cfi_offset 5, -20
 18838              		.cfi_offset 4, -24
 18839 0018 1FFA88F8 		uxth	r8, r8
 18840              	.LVL98:
 535:../Library/STM32F10x_StdPeriph_Driver/src/stm32f10x_tim.c ****   /* Get the TIMx CR2 register value */
 536:../Library/STM32F10x_StdPeriph_Driver/src/stm32f10x_tim.c ****   tmpcr2 =  TIMx->CR2;
 18841              		.loc 1 536 0
 18842 001c 8588     		ldrh	r5, [r0, #4]
 18843 001e ADB2     		uxth	r5, r5
 18844              	.LVL99:
 537:../Library/STM32F10x_StdPeriph_Driver/src/stm32f10x_tim.c ****   
 538:../Library/STM32F10x_StdPeriph_Driver/src/stm32f10x_tim.c ****   /* Get the TIMx CCMR2 register value */
 539:../Library/STM32F10x_StdPeriph_Driver/src/stm32f10x_tim.c ****   tmpccmrx = TIMx->CCMR2;
 18845              		.loc 1 539 0
 18846 0020 B0F81CA0 		ldrh	sl, [r0, #28]
 18847 0024 1FFA8AFA 		uxth	sl, sl
 18848              	.LVL100:
 540:../Library/STM32F10x_StdPeriph_Driver/src/stm32f10x_tim.c ****     
 541:../Library/STM32F10x_StdPeriph_Driver/src/stm32f10x_tim.c ****   /* Reset the Output Compare mode and Capture/Compare selection Bits */
 542:../Library/STM32F10x_StdPeriph_Driver/src/stm32f10x_tim.c ****   tmpccmrx &= (uint16_t)(~((uint16_t)TIM_CCMR2_OC4M));
 543:../Library/STM32F10x_StdPeriph_Driver/src/stm32f10x_tim.c ****   tmpccmrx &= (uint16_t)(~((uint16_t)TIM_CCMR2_CC4S));
 544:../Library/STM32F10x_StdPeriph_Driver/src/stm32f10x_tim.c ****   
 545:../Library/STM32F10x_StdPeriph_Driver/src/stm32f10x_tim.c ****   /* Select the Output Compare Mode */
 546:../Library/STM32F10x_StdPeriph_Driver/src/stm32f10x_tim.c ****   tmpccmrx |= (uint16_t)(TIM_OCInitStruct->TIM_OCMode << 8);
 18849              		.loc 1 546 0
 18850 0028 0B88     		ldrh	r3, [r1, #0]
 547:../Library/STM32F10x_StdPeriph_Driver/src/stm32f10x_tim.c ****   
 548:../Library/STM32F10x_StdPeriph_Driver/src/stm32f10x_tim.c ****   /* Reset the Output Polarity level */
 549:../Library/STM32F10x_StdPeriph_Driver/src/stm32f10x_tim.c ****   tmpccer &= (uint16_t)(~((uint16_t)TIM_CCER_CC4P));
 550:../Library/STM32F10x_StdPeriph_Driver/src/stm32f10x_tim.c ****   /* Set the Output Compare Polarity */
 551:../Library/STM32F10x_StdPeriph_Driver/src/stm32f10x_tim.c ****   tmpccer |= (uint16_t)(TIM_OCInitStruct->TIM_OCPolarity << 12);
 18851              		.loc 1 551 0
 18852 002a 0F89     		ldrh	r7, [r1, #8]
 552:../Library/STM32F10x_StdPeriph_Driver/src/stm32f10x_tim.c ****   
 553:../Library/STM32F10x_StdPeriph_Driver/src/stm32f10x_tim.c ****   /* Set the Output State */
 554:../Library/STM32F10x_StdPeriph_Driver/src/stm32f10x_tim.c ****   tmpccer |= (uint16_t)(TIM_OCInitStruct->TIM_OutputState << 12);
 18853              		.loc 1 554 0
 18854 002c 4E88     		ldrh	r6, [r1, #2]
 555:../Library/STM32F10x_StdPeriph_Driver/src/stm32f10x_tim.c ****     
 556:../Library/STM32F10x_StdPeriph_Driver/src/stm32f10x_tim.c ****   if((TIMx == TIM1) || (TIMx == TIM8))
 18855              		.loc 1 556 0
 18856 002e 42F6004C 		movw	ip, #:lower16:1073818624
 18857 0032 C4F2010C 		movt	ip, #:upper16:1073818624
 18858 0036 43F20044 		movw	r4, #:lower16:1073820672
 18859 003a C4F20104 		movt	r4, #:upper16:1073820672
 18860 003e A042     		cmp	r0, r4
 18861 0040 14BF     		ite	ne
 18862 0042 0024     		movne	r4, #0
 18863 0044 0124     		moveq	r4, #1
 18864 0046 6045     		cmp	r0, ip
 18865 0048 08BF     		it	eq
 18866 004a 44F00104 		orreq	r4, r4, #1
 18867 004e 54B1     		cbz	r4, .L19
 557:../Library/STM32F10x_StdPeriph_Driver/src/stm32f10x_tim.c ****   {
 558:../Library/STM32F10x_StdPeriph_Driver/src/stm32f10x_tim.c ****     assert_param(IS_TIM_OCIDLE_STATE(TIM_OCInitStruct->TIM_OCIdleState));
 559:../Library/STM32F10x_StdPeriph_Driver/src/stm32f10x_tim.c ****     /* Reset the Ouput Compare IDLE State */
 560:../Library/STM32F10x_StdPeriph_Driver/src/stm32f10x_tim.c ****     tmpcr2 &= (uint16_t)(~((uint16_t)TIM_CR2_OIS4));
 18868              		.loc 1 560 0
 18869 0050 4BF6FF7C 		movw	ip, #:lower16:49151
 18870              	.LVL101:
 18871 0054 C0F2000C 		movt	ip, #:upper16:49151
 18872              	.LVL102:
 18873 0058 05EA0C0C 		and	ip, r5, ip
 18874              	.LVL103:
 561:../Library/STM32F10x_StdPeriph_Driver/src/stm32f10x_tim.c ****     /* Set the Output Idle state */
 562:../Library/STM32F10x_StdPeriph_Driver/src/stm32f10x_tim.c ****     tmpcr2 |= (uint16_t)(TIM_OCInitStruct->TIM_OCIdleState << 6);
 18875              		.loc 1 562 0
 18876 005c 8D89     		ldrh	r5, [r1, #12]
 18877 005e 4CEA851C 		orr	ip, ip, r5, lsl #6
 18878              	.LVL104:
 18879 0062 1FFA8CF5 		uxth	r5, ip
 18880              	.LVL105:
 18881              	.L19:
 563:../Library/STM32F10x_StdPeriph_Driver/src/stm32f10x_tim.c ****   }
 564:../Library/STM32F10x_StdPeriph_Driver/src/stm32f10x_tim.c ****   /* Write to TIMx CR2 */
 565:../Library/STM32F10x_StdPeriph_Driver/src/stm32f10x_tim.c ****   TIMx->CR2 = tmpcr2;
 18882              		.loc 1 565 0
 18883 0066 8580     		strh	r5, [r0, #4]	@ movhi
 18884              		.loc 1 543 0
 18885 0068 48F6FF42 		movw	r2, #:lower16:36095
 18886              	.LVL106:
 18887 006c C0F20002 		movt	r2, #:upper16:36095
 18888              	.LVL107:
 18889 0070 0AEA0202 		and	r2, sl, r2
 18890              	.LVL108:
 18891              		.loc 1 546 0
 18892 0074 42EA0322 		orr	r2, r2, r3, lsl #8
 18893              	.LVL109:
 18894 0078 92B2     		uxth	r2, r2
 18895              	.LVL110:
 566:../Library/STM32F10x_StdPeriph_Driver/src/stm32f10x_tim.c ****   
 567:../Library/STM32F10x_StdPeriph_Driver/src/stm32f10x_tim.c ****   /* Write to TIMx CCMR2 */  
 568:../Library/STM32F10x_StdPeriph_Driver/src/stm32f10x_tim.c ****   TIMx->CCMR2 = tmpccmrx;
 18896              		.loc 1 568 0
 18897 007a 8283     		strh	r2, [r0, #28]	@ movhi
 569:../Library/STM32F10x_StdPeriph_Driver/src/stm32f10x_tim.c **** 
 570:../Library/STM32F10x_StdPeriph_Driver/src/stm32f10x_tim.c ****   /* Set the Capture Compare Register value */
 571:../Library/STM32F10x_StdPeriph_Driver/src/stm32f10x_tim.c ****   TIMx->CCR4 = TIM_OCInitStruct->TIM_Pulse;
 18898              		.loc 1 571 0
 18899 007c CB88     		ldrh	r3, [r1, #6]
 18900 007e A0F84030 		strh	r3, [r0, #64]	@ movhi
 18901              		.loc 1 549 0
 18902 0082 4DF6FF73 		movw	r3, #:lower16:57343
 18903              	.LVL111:
 18904 0086 C0F20003 		movt	r3, #:upper16:57343
 18905              	.LVL112:
 18906 008a 08EA0303 		and	r3, r8, r3
 18907              	.LVL113:
 18908              		.loc 1 551 0
 18909 008e 43EA0733 		orr	r3, r3, r7, lsl #12
 18910              	.LVL114:
 18911              		.loc 1 554 0
 18912 0092 43EA0633 		orr	r3, r3, r6, lsl #12
 18913              	.LVL115:
 18914 0096 9BB2     		uxth	r3, r3
 18915              	.LVL116:
 572:../Library/STM32F10x_StdPeriph_Driver/src/stm32f10x_tim.c ****   
 573:../Library/STM32F10x_StdPeriph_Driver/src/stm32f10x_tim.c ****   /* Write to TIMx CCER */
 574:../Library/STM32F10x_StdPeriph_Driver/src/stm32f10x_tim.c ****   TIMx->CCER = tmpccer;
 18916              		.loc 1 574 0
 18917 0098 0384     		strh	r3, [r0, #32]	@ movhi
 575:../Library/STM32F10x_StdPeriph_Driver/src/stm32f10x_tim.c **** }
 18918              		.loc 1 575 0
 18919 009a BDE8F005 		pop	{r4, r5, r6, r7, r8, sl}
 18920 009e 7047     		bx	lr
 18921              		.cfi_endproc
 18922              	.LFE34:
 18924              		.section	.text.TIM_BDTRConfig,"ax",%progbits
 18925              		.align	2
 18926              		.global	TIM_BDTRConfig
 18927              		.thumb
 18928              		.thumb_func
 18930              	TIM_BDTRConfig:
 18931              	.LFB37:
 576:../Library/STM32F10x_StdPeriph_Driver/src/stm32f10x_tim.c **** 
 577:../Library/STM32F10x_StdPeriph_Driver/src/stm32f10x_tim.c **** /**
 578:../Library/STM32F10x_StdPeriph_Driver/src/stm32f10x_tim.c ****   * @brief  Initializes the TIM peripheral according to the specified
 579:../Library/STM32F10x_StdPeriph_Driver/src/stm32f10x_tim.c ****   *   parameters in the TIM_ICInitStruct.
 580:../Library/STM32F10x_StdPeriph_Driver/src/stm32f10x_tim.c ****   * @param  TIMx: where x can be  1 to 17 except 6 and 7 to select the TIM peripheral.
 581:../Library/STM32F10x_StdPeriph_Driver/src/stm32f10x_tim.c ****   * @param  TIM_ICInitStruct: pointer to a TIM_ICInitTypeDef structure
 582:../Library/STM32F10x_StdPeriph_Driver/src/stm32f10x_tim.c ****   *   that contains the configuration information for the specified TIM peripheral.
 583:../Library/STM32F10x_StdPeriph_Driver/src/stm32f10x_tim.c ****   * @retval None
 584:../Library/STM32F10x_StdPeriph_Driver/src/stm32f10x_tim.c ****   */
 585:../Library/STM32F10x_StdPeriph_Driver/src/stm32f10x_tim.c **** void TIM_ICInit(TIM_TypeDef* TIMx, TIM_ICInitTypeDef* TIM_ICInitStruct)
 586:../Library/STM32F10x_StdPeriph_Driver/src/stm32f10x_tim.c **** {
 587:../Library/STM32F10x_StdPeriph_Driver/src/stm32f10x_tim.c ****   /* Check the parameters */
 588:../Library/STM32F10x_StdPeriph_Driver/src/stm32f10x_tim.c ****   assert_param(IS_TIM_CHANNEL(TIM_ICInitStruct->TIM_Channel));
 589:../Library/STM32F10x_StdPeriph_Driver/src/stm32f10x_tim.c ****   assert_param(IS_TIM_IC_POLARITY(TIM_ICInitStruct->TIM_ICPolarity));
 590:../Library/STM32F10x_StdPeriph_Driver/src/stm32f10x_tim.c ****   assert_param(IS_TIM_IC_SELECTION(TIM_ICInitStruct->TIM_ICSelection));
 591:../Library/STM32F10x_StdPeriph_Driver/src/stm32f10x_tim.c ****   assert_param(IS_TIM_IC_PRESCALER(TIM_ICInitStruct->TIM_ICPrescaler));
 592:../Library/STM32F10x_StdPeriph_Driver/src/stm32f10x_tim.c ****   assert_param(IS_TIM_IC_FILTER(TIM_ICInitStruct->TIM_ICFilter));
 593:../Library/STM32F10x_StdPeriph_Driver/src/stm32f10x_tim.c ****   
 594:../Library/STM32F10x_StdPeriph_Driver/src/stm32f10x_tim.c ****   if (TIM_ICInitStruct->TIM_Channel == TIM_Channel_1)
 595:../Library/STM32F10x_StdPeriph_Driver/src/stm32f10x_tim.c ****   {
 596:../Library/STM32F10x_StdPeriph_Driver/src/stm32f10x_tim.c ****     assert_param(IS_TIM_LIST8_PERIPH(TIMx));
 597:../Library/STM32F10x_StdPeriph_Driver/src/stm32f10x_tim.c ****     /* TI1 Configuration */
 598:../Library/STM32F10x_StdPeriph_Driver/src/stm32f10x_tim.c ****     TI1_Config(TIMx, TIM_ICInitStruct->TIM_ICPolarity,
 599:../Library/STM32F10x_StdPeriph_Driver/src/stm32f10x_tim.c ****                TIM_ICInitStruct->TIM_ICSelection,
 600:../Library/STM32F10x_StdPeriph_Driver/src/stm32f10x_tim.c ****                TIM_ICInitStruct->TIM_ICFilter);
 601:../Library/STM32F10x_StdPeriph_Driver/src/stm32f10x_tim.c ****     /* Set the Input Capture Prescaler value */
 602:../Library/STM32F10x_StdPeriph_Driver/src/stm32f10x_tim.c ****     TIM_SetIC1Prescaler(TIMx, TIM_ICInitStruct->TIM_ICPrescaler);
 603:../Library/STM32F10x_StdPeriph_Driver/src/stm32f10x_tim.c ****   }
 604:../Library/STM32F10x_StdPeriph_Driver/src/stm32f10x_tim.c ****   else if (TIM_ICInitStruct->TIM_Channel == TIM_Channel_2)
 605:../Library/STM32F10x_StdPeriph_Driver/src/stm32f10x_tim.c ****   {
 606:../Library/STM32F10x_StdPeriph_Driver/src/stm32f10x_tim.c ****     assert_param(IS_TIM_LIST6_PERIPH(TIMx));
 607:../Library/STM32F10x_StdPeriph_Driver/src/stm32f10x_tim.c ****     /* TI2 Configuration */
 608:../Library/STM32F10x_StdPeriph_Driver/src/stm32f10x_tim.c ****     TI2_Config(TIMx, TIM_ICInitStruct->TIM_ICPolarity,
 609:../Library/STM32F10x_StdPeriph_Driver/src/stm32f10x_tim.c ****                TIM_ICInitStruct->TIM_ICSelection,
 610:../Library/STM32F10x_StdPeriph_Driver/src/stm32f10x_tim.c ****                TIM_ICInitStruct->TIM_ICFilter);
 611:../Library/STM32F10x_StdPeriph_Driver/src/stm32f10x_tim.c ****     /* Set the Input Capture Prescaler value */
 612:../Library/STM32F10x_StdPeriph_Driver/src/stm32f10x_tim.c ****     TIM_SetIC2Prescaler(TIMx, TIM_ICInitStruct->TIM_ICPrescaler);
 613:../Library/STM32F10x_StdPeriph_Driver/src/stm32f10x_tim.c ****   }
 614:../Library/STM32F10x_StdPeriph_Driver/src/stm32f10x_tim.c ****   else if (TIM_ICInitStruct->TIM_Channel == TIM_Channel_3)
 615:../Library/STM32F10x_StdPeriph_Driver/src/stm32f10x_tim.c ****   {
 616:../Library/STM32F10x_StdPeriph_Driver/src/stm32f10x_tim.c ****     assert_param(IS_TIM_LIST3_PERIPH(TIMx));
 617:../Library/STM32F10x_StdPeriph_Driver/src/stm32f10x_tim.c ****     /* TI3 Configuration */
 618:../Library/STM32F10x_StdPeriph_Driver/src/stm32f10x_tim.c ****     TI3_Config(TIMx,  TIM_ICInitStruct->TIM_ICPolarity,
 619:../Library/STM32F10x_StdPeriph_Driver/src/stm32f10x_tim.c ****                TIM_ICInitStruct->TIM_ICSelection,
 620:../Library/STM32F10x_StdPeriph_Driver/src/stm32f10x_tim.c ****                TIM_ICInitStruct->TIM_ICFilter);
 621:../Library/STM32F10x_StdPeriph_Driver/src/stm32f10x_tim.c ****     /* Set the Input Capture Prescaler value */
 622:../Library/STM32F10x_StdPeriph_Driver/src/stm32f10x_tim.c ****     TIM_SetIC3Prescaler(TIMx, TIM_ICInitStruct->TIM_ICPrescaler);
 623:../Library/STM32F10x_StdPeriph_Driver/src/stm32f10x_tim.c ****   }
 624:../Library/STM32F10x_StdPeriph_Driver/src/stm32f10x_tim.c ****   else
 625:../Library/STM32F10x_StdPeriph_Driver/src/stm32f10x_tim.c ****   {
 626:../Library/STM32F10x_StdPeriph_Driver/src/stm32f10x_tim.c ****     assert_param(IS_TIM_LIST3_PERIPH(TIMx));
 627:../Library/STM32F10x_StdPeriph_Driver/src/stm32f10x_tim.c ****     /* TI4 Configuration */
 628:../Library/STM32F10x_StdPeriph_Driver/src/stm32f10x_tim.c ****     TI4_Config(TIMx, TIM_ICInitStruct->TIM_ICPolarity,
 629:../Library/STM32F10x_StdPeriph_Driver/src/stm32f10x_tim.c ****                TIM_ICInitStruct->TIM_ICSelection,
 630:../Library/STM32F10x_StdPeriph_Driver/src/stm32f10x_tim.c ****                TIM_ICInitStruct->TIM_ICFilter);
 631:../Library/STM32F10x_StdPeriph_Driver/src/stm32f10x_tim.c ****     /* Set the Input Capture Prescaler value */
 632:../Library/STM32F10x_StdPeriph_Driver/src/stm32f10x_tim.c ****     TIM_SetIC4Prescaler(TIMx, TIM_ICInitStruct->TIM_ICPrescaler);
 633:../Library/STM32F10x_StdPeriph_Driver/src/stm32f10x_tim.c ****   }
 634:../Library/STM32F10x_StdPeriph_Driver/src/stm32f10x_tim.c **** }
 635:../Library/STM32F10x_StdPeriph_Driver/src/stm32f10x_tim.c **** 
 636:../Library/STM32F10x_StdPeriph_Driver/src/stm32f10x_tim.c **** /**
 637:../Library/STM32F10x_StdPeriph_Driver/src/stm32f10x_tim.c ****   * @brief  Configures the TIM peripheral according to the specified
 638:../Library/STM32F10x_StdPeriph_Driver/src/stm32f10x_tim.c ****   *   parameters in the TIM_ICInitStruct to measure an external PWM signal.
 639:../Library/STM32F10x_StdPeriph_Driver/src/stm32f10x_tim.c ****   * @param  TIMx: where x can be  1, 2, 3, 4, 5, 8, 9, 12 or 15 to select the TIM peripheral.
 640:../Library/STM32F10x_StdPeriph_Driver/src/stm32f10x_tim.c ****   * @param  TIM_ICInitStruct: pointer to a TIM_ICInitTypeDef structure
 641:../Library/STM32F10x_StdPeriph_Driver/src/stm32f10x_tim.c ****   *   that contains the configuration information for the specified TIM peripheral.
 642:../Library/STM32F10x_StdPeriph_Driver/src/stm32f10x_tim.c ****   * @retval None
 643:../Library/STM32F10x_StdPeriph_Driver/src/stm32f10x_tim.c ****   */
 644:../Library/STM32F10x_StdPeriph_Driver/src/stm32f10x_tim.c **** void TIM_PWMIConfig(TIM_TypeDef* TIMx, TIM_ICInitTypeDef* TIM_ICInitStruct)
 645:../Library/STM32F10x_StdPeriph_Driver/src/stm32f10x_tim.c **** {
 646:../Library/STM32F10x_StdPeriph_Driver/src/stm32f10x_tim.c ****   uint16_t icoppositepolarity = TIM_ICPolarity_Rising;
 647:../Library/STM32F10x_StdPeriph_Driver/src/stm32f10x_tim.c ****   uint16_t icoppositeselection = TIM_ICSelection_DirectTI;
 648:../Library/STM32F10x_StdPeriph_Driver/src/stm32f10x_tim.c ****   /* Check the parameters */
 649:../Library/STM32F10x_StdPeriph_Driver/src/stm32f10x_tim.c ****   assert_param(IS_TIM_LIST6_PERIPH(TIMx));
 650:../Library/STM32F10x_StdPeriph_Driver/src/stm32f10x_tim.c ****   /* Select the Opposite Input Polarity */
 651:../Library/STM32F10x_StdPeriph_Driver/src/stm32f10x_tim.c ****   if (TIM_ICInitStruct->TIM_ICPolarity == TIM_ICPolarity_Rising)
 652:../Library/STM32F10x_StdPeriph_Driver/src/stm32f10x_tim.c ****   {
 653:../Library/STM32F10x_StdPeriph_Driver/src/stm32f10x_tim.c ****     icoppositepolarity = TIM_ICPolarity_Falling;
 654:../Library/STM32F10x_StdPeriph_Driver/src/stm32f10x_tim.c ****   }
 655:../Library/STM32F10x_StdPeriph_Driver/src/stm32f10x_tim.c ****   else
 656:../Library/STM32F10x_StdPeriph_Driver/src/stm32f10x_tim.c ****   {
 657:../Library/STM32F10x_StdPeriph_Driver/src/stm32f10x_tim.c ****     icoppositepolarity = TIM_ICPolarity_Rising;
 658:../Library/STM32F10x_StdPeriph_Driver/src/stm32f10x_tim.c ****   }
 659:../Library/STM32F10x_StdPeriph_Driver/src/stm32f10x_tim.c ****   /* Select the Opposite Input */
 660:../Library/STM32F10x_StdPeriph_Driver/src/stm32f10x_tim.c ****   if (TIM_ICInitStruct->TIM_ICSelection == TIM_ICSelection_DirectTI)
 661:../Library/STM32F10x_StdPeriph_Driver/src/stm32f10x_tim.c ****   {
 662:../Library/STM32F10x_StdPeriph_Driver/src/stm32f10x_tim.c ****     icoppositeselection = TIM_ICSelection_IndirectTI;
 663:../Library/STM32F10x_StdPeriph_Driver/src/stm32f10x_tim.c ****   }
 664:../Library/STM32F10x_StdPeriph_Driver/src/stm32f10x_tim.c ****   else
 665:../Library/STM32F10x_StdPeriph_Driver/src/stm32f10x_tim.c ****   {
 666:../Library/STM32F10x_StdPeriph_Driver/src/stm32f10x_tim.c ****     icoppositeselection = TIM_ICSelection_DirectTI;
 667:../Library/STM32F10x_StdPeriph_Driver/src/stm32f10x_tim.c ****   }
 668:../Library/STM32F10x_StdPeriph_Driver/src/stm32f10x_tim.c ****   if (TIM_ICInitStruct->TIM_Channel == TIM_Channel_1)
 669:../Library/STM32F10x_StdPeriph_Driver/src/stm32f10x_tim.c ****   {
 670:../Library/STM32F10x_StdPeriph_Driver/src/stm32f10x_tim.c ****     /* TI1 Configuration */
 671:../Library/STM32F10x_StdPeriph_Driver/src/stm32f10x_tim.c ****     TI1_Config(TIMx, TIM_ICInitStruct->TIM_ICPolarity, TIM_ICInitStruct->TIM_ICSelection,
 672:../Library/STM32F10x_StdPeriph_Driver/src/stm32f10x_tim.c ****                TIM_ICInitStruct->TIM_ICFilter);
 673:../Library/STM32F10x_StdPeriph_Driver/src/stm32f10x_tim.c ****     /* Set the Input Capture Prescaler value */
 674:../Library/STM32F10x_StdPeriph_Driver/src/stm32f10x_tim.c ****     TIM_SetIC1Prescaler(TIMx, TIM_ICInitStruct->TIM_ICPrescaler);
 675:../Library/STM32F10x_StdPeriph_Driver/src/stm32f10x_tim.c ****     /* TI2 Configuration */
 676:../Library/STM32F10x_StdPeriph_Driver/src/stm32f10x_tim.c ****     TI2_Config(TIMx, icoppositepolarity, icoppositeselection, TIM_ICInitStruct->TIM_ICFilter);
 677:../Library/STM32F10x_StdPeriph_Driver/src/stm32f10x_tim.c ****     /* Set the Input Capture Prescaler value */
 678:../Library/STM32F10x_StdPeriph_Driver/src/stm32f10x_tim.c ****     TIM_SetIC2Prescaler(TIMx, TIM_ICInitStruct->TIM_ICPrescaler);
 679:../Library/STM32F10x_StdPeriph_Driver/src/stm32f10x_tim.c ****   }
 680:../Library/STM32F10x_StdPeriph_Driver/src/stm32f10x_tim.c ****   else
 681:../Library/STM32F10x_StdPeriph_Driver/src/stm32f10x_tim.c ****   { 
 682:../Library/STM32F10x_StdPeriph_Driver/src/stm32f10x_tim.c ****     /* TI2 Configuration */
 683:../Library/STM32F10x_StdPeriph_Driver/src/stm32f10x_tim.c ****     TI2_Config(TIMx, TIM_ICInitStruct->TIM_ICPolarity, TIM_ICInitStruct->TIM_ICSelection,
 684:../Library/STM32F10x_StdPeriph_Driver/src/stm32f10x_tim.c ****                TIM_ICInitStruct->TIM_ICFilter);
 685:../Library/STM32F10x_StdPeriph_Driver/src/stm32f10x_tim.c ****     /* Set the Input Capture Prescaler value */
 686:../Library/STM32F10x_StdPeriph_Driver/src/stm32f10x_tim.c ****     TIM_SetIC2Prescaler(TIMx, TIM_ICInitStruct->TIM_ICPrescaler);
 687:../Library/STM32F10x_StdPeriph_Driver/src/stm32f10x_tim.c ****     /* TI1 Configuration */
 688:../Library/STM32F10x_StdPeriph_Driver/src/stm32f10x_tim.c ****     TI1_Config(TIMx, icoppositepolarity, icoppositeselection, TIM_ICInitStruct->TIM_ICFilter);
 689:../Library/STM32F10x_StdPeriph_Driver/src/stm32f10x_tim.c ****     /* Set the Input Capture Prescaler value */
 690:../Library/STM32F10x_StdPeriph_Driver/src/stm32f10x_tim.c ****     TIM_SetIC1Prescaler(TIMx, TIM_ICInitStruct->TIM_ICPrescaler);
 691:../Library/STM32F10x_StdPeriph_Driver/src/stm32f10x_tim.c ****   }
 692:../Library/STM32F10x_StdPeriph_Driver/src/stm32f10x_tim.c **** }
 693:../Library/STM32F10x_StdPeriph_Driver/src/stm32f10x_tim.c **** 
 694:../Library/STM32F10x_StdPeriph_Driver/src/stm32f10x_tim.c **** /**
 695:../Library/STM32F10x_StdPeriph_Driver/src/stm32f10x_tim.c ****   * @brief  Configures the: Break feature, dead time, Lock level, the OSSI,
 696:../Library/STM32F10x_StdPeriph_Driver/src/stm32f10x_tim.c ****   *   the OSSR State and the AOE(automatic output enable).
 697:../Library/STM32F10x_StdPeriph_Driver/src/stm32f10x_tim.c ****   * @param  TIMx: where x can be  1 or 8 to select the TIM 
 698:../Library/STM32F10x_StdPeriph_Driver/src/stm32f10x_tim.c ****   * @param  TIM_BDTRInitStruct: pointer to a TIM_BDTRInitTypeDef structure that
 699:../Library/STM32F10x_StdPeriph_Driver/src/stm32f10x_tim.c ****   *   contains the BDTR Register configuration  information for the TIM peripheral.
 700:../Library/STM32F10x_StdPeriph_Driver/src/stm32f10x_tim.c ****   * @retval None
 701:../Library/STM32F10x_StdPeriph_Driver/src/stm32f10x_tim.c ****   */
 702:../Library/STM32F10x_StdPeriph_Driver/src/stm32f10x_tim.c **** void TIM_BDTRConfig(TIM_TypeDef* TIMx, TIM_BDTRInitTypeDef *TIM_BDTRInitStruct)
 703:../Library/STM32F10x_StdPeriph_Driver/src/stm32f10x_tim.c **** {
 18932              		.loc 1 703 0
 18933              		.cfi_startproc
 18934              		@ args = 0, pretend = 0, frame = 0
 18935              		@ frame_needed = 0, uses_anonymous_args = 0
 18936              		@ link register save eliminated.
 18937              	.LVL117:
 704:../Library/STM32F10x_StdPeriph_Driver/src/stm32f10x_tim.c ****   /* Check the parameters */
 705:../Library/STM32F10x_StdPeriph_Driver/src/stm32f10x_tim.c ****   assert_param(IS_TIM_LIST2_PERIPH(TIMx));
 706:../Library/STM32F10x_StdPeriph_Driver/src/stm32f10x_tim.c ****   assert_param(IS_TIM_OSSR_STATE(TIM_BDTRInitStruct->TIM_OSSRState));
 707:../Library/STM32F10x_StdPeriph_Driver/src/stm32f10x_tim.c ****   assert_param(IS_TIM_OSSI_STATE(TIM_BDTRInitStruct->TIM_OSSIState));
 708:../Library/STM32F10x_StdPeriph_Driver/src/stm32f10x_tim.c ****   assert_param(IS_TIM_LOCK_LEVEL(TIM_BDTRInitStruct->TIM_LOCKLevel));
 709:../Library/STM32F10x_StdPeriph_Driver/src/stm32f10x_tim.c ****   assert_param(IS_TIM_BREAK_STATE(TIM_BDTRInitStruct->TIM_Break));
 710:../Library/STM32F10x_StdPeriph_Driver/src/stm32f10x_tim.c ****   assert_param(IS_TIM_BREAK_POLARITY(TIM_BDTRInitStruct->TIM_BreakPolarity));
 711:../Library/STM32F10x_StdPeriph_Driver/src/stm32f10x_tim.c ****   assert_param(IS_TIM_AUTOMATIC_OUTPUT_STATE(TIM_BDTRInitStruct->TIM_AutomaticOutput));
 712:../Library/STM32F10x_StdPeriph_Driver/src/stm32f10x_tim.c ****   /* Set the Lock level, the Break enable Bit and the Ploarity, the OSSR State,
 713:../Library/STM32F10x_StdPeriph_Driver/src/stm32f10x_tim.c ****      the OSSI State, the dead time value and the Automatic Output Enable Bit */
 714:../Library/STM32F10x_StdPeriph_Driver/src/stm32f10x_tim.c ****   TIMx->BDTR = (uint32_t)TIM_BDTRInitStruct->TIM_OSSRState | TIM_BDTRInitStruct->TIM_OSSIState |
 18938              		.loc 1 714 0
 18939 0000 4A88     		ldrh	r2, [r1, #2]
 18940 0002 0B88     		ldrh	r3, [r1, #0]
 18941 0004 42EA0303 		orr	r3, r2, r3
 18942 0008 8A88     		ldrh	r2, [r1, #4]
 18943 000a 43EA0203 		orr	r3, r3, r2
 18944 000e CA88     		ldrh	r2, [r1, #6]
 18945 0010 43EA0203 		orr	r3, r3, r2
 18946 0014 0A89     		ldrh	r2, [r1, #8]
 18947 0016 43EA0203 		orr	r3, r3, r2
 18948 001a 4A89     		ldrh	r2, [r1, #10]
 18949 001c 43EA0203 		orr	r3, r3, r2
 18950 0020 8A89     		ldrh	r2, [r1, #12]
 18951 0022 43EA0203 		orr	r3, r3, r2
 18952 0026 9BB2     		uxth	r3, r3
 18953 0028 A0F84430 		strh	r3, [r0, #68]	@ movhi
 715:../Library/STM32F10x_StdPeriph_Driver/src/stm32f10x_tim.c ****              TIM_BDTRInitStruct->TIM_LOCKLevel | TIM_BDTRInitStruct->TIM_DeadTime |
 716:../Library/STM32F10x_StdPeriph_Driver/src/stm32f10x_tim.c ****              TIM_BDTRInitStruct->TIM_Break | TIM_BDTRInitStruct->TIM_BreakPolarity |
 717:../Library/STM32F10x_StdPeriph_Driver/src/stm32f10x_tim.c ****              TIM_BDTRInitStruct->TIM_AutomaticOutput;
 718:../Library/STM32F10x_StdPeriph_Driver/src/stm32f10x_tim.c **** }
 18954              		.loc 1 718 0
 18955 002c 7047     		bx	lr
 18956              		.cfi_endproc
 18957              	.LFE37:
 18959 002e 00BF     		.section	.text.TIM_TimeBaseStructInit,"ax",%progbits
 18960              		.align	2
 18961              		.global	TIM_TimeBaseStructInit
 18962              		.thumb
 18963              		.thumb_func
 18965              	TIM_TimeBaseStructInit:
 18966              	.LFB38:
 719:../Library/STM32F10x_StdPeriph_Driver/src/stm32f10x_tim.c **** 
 720:../Library/STM32F10x_StdPeriph_Driver/src/stm32f10x_tim.c **** /**
 721:../Library/STM32F10x_StdPeriph_Driver/src/stm32f10x_tim.c ****   * @brief  Fills each TIM_TimeBaseInitStruct member with its default value.
 722:../Library/STM32F10x_StdPeriph_Driver/src/stm32f10x_tim.c ****   * @param  TIM_TimeBaseInitStruct : pointer to a TIM_TimeBaseInitTypeDef
 723:../Library/STM32F10x_StdPeriph_Driver/src/stm32f10x_tim.c ****   *   structure which will be initialized.
 724:../Library/STM32F10x_StdPeriph_Driver/src/stm32f10x_tim.c ****   * @retval None
 725:../Library/STM32F10x_StdPeriph_Driver/src/stm32f10x_tim.c ****   */
 726:../Library/STM32F10x_StdPeriph_Driver/src/stm32f10x_tim.c **** void TIM_TimeBaseStructInit(TIM_TimeBaseInitTypeDef* TIM_TimeBaseInitStruct)
 727:../Library/STM32F10x_StdPeriph_Driver/src/stm32f10x_tim.c **** {
 18967              		.loc 1 727 0
 18968              		.cfi_startproc
 18969              		@ args = 0, pretend = 0, frame = 0
 18970              		@ frame_needed = 0, uses_anonymous_args = 0
 18971              		@ link register save eliminated.
 18972              	.LVL118:
 728:../Library/STM32F10x_StdPeriph_Driver/src/stm32f10x_tim.c ****   /* Set the default configuration */
 729:../Library/STM32F10x_StdPeriph_Driver/src/stm32f10x_tim.c ****   TIM_TimeBaseInitStruct->TIM_Period = 0xFFFF;
 18973              		.loc 1 729 0
 18974 0000 4FF0FF33 		mov	r3, #-1	@ movhi
 18975 0004 8380     		strh	r3, [r0, #4]	@ movhi
 730:../Library/STM32F10x_StdPeriph_Driver/src/stm32f10x_tim.c ****   TIM_TimeBaseInitStruct->TIM_Prescaler = 0x0000;
 18976              		.loc 1 730 0
 18977 0006 4FF00003 		mov	r3, #0
 18978 000a 0380     		strh	r3, [r0, #0]	@ movhi
 731:../Library/STM32F10x_StdPeriph_Driver/src/stm32f10x_tim.c ****   TIM_TimeBaseInitStruct->TIM_ClockDivision = TIM_CKD_DIV1;
 18979              		.loc 1 731 0
 18980 000c C380     		strh	r3, [r0, #6]	@ movhi
 732:../Library/STM32F10x_StdPeriph_Driver/src/stm32f10x_tim.c ****   TIM_TimeBaseInitStruct->TIM_CounterMode = TIM_CounterMode_Up;
 18981              		.loc 1 732 0
 18982 000e 4380     		strh	r3, [r0, #2]	@ movhi
 733:../Library/STM32F10x_StdPeriph_Driver/src/stm32f10x_tim.c ****   TIM_TimeBaseInitStruct->TIM_RepetitionCounter = 0x0000;
 18983              		.loc 1 733 0
 18984 0010 0372     		strb	r3, [r0, #8]
 734:../Library/STM32F10x_StdPeriph_Driver/src/stm32f10x_tim.c **** }
 18985              		.loc 1 734 0
 18986 0012 7047     		bx	lr
 18987              		.cfi_endproc
 18988              	.LFE38:
 18990              		.section	.text.TIM_OCStructInit,"ax",%progbits
 18991              		.align	2
 18992              		.global	TIM_OCStructInit
 18993              		.thumb
 18994              		.thumb_func
 18996              	TIM_OCStructInit:
 18997              	.LFB39:
 735:../Library/STM32F10x_StdPeriph_Driver/src/stm32f10x_tim.c **** 
 736:../Library/STM32F10x_StdPeriph_Driver/src/stm32f10x_tim.c **** /**
 737:../Library/STM32F10x_StdPeriph_Driver/src/stm32f10x_tim.c ****   * @brief  Fills each TIM_OCInitStruct member with its default value.
 738:../Library/STM32F10x_StdPeriph_Driver/src/stm32f10x_tim.c ****   * @param  TIM_OCInitStruct : pointer to a TIM_OCInitTypeDef structure which will
 739:../Library/STM32F10x_StdPeriph_Driver/src/stm32f10x_tim.c ****   *   be initialized.
 740:../Library/STM32F10x_StdPeriph_Driver/src/stm32f10x_tim.c ****   * @retval None
 741:../Library/STM32F10x_StdPeriph_Driver/src/stm32f10x_tim.c ****   */
 742:../Library/STM32F10x_StdPeriph_Driver/src/stm32f10x_tim.c **** void TIM_OCStructInit(TIM_OCInitTypeDef* TIM_OCInitStruct)
 743:../Library/STM32F10x_StdPeriph_Driver/src/stm32f10x_tim.c **** {
 18998              		.loc 1 743 0
 18999              		.cfi_startproc
 19000              		@ args = 0, pretend = 0, frame = 0
 19001              		@ frame_needed = 0, uses_anonymous_args = 0
 19002              		@ link register save eliminated.
 19003              	.LVL119:
 744:../Library/STM32F10x_StdPeriph_Driver/src/stm32f10x_tim.c ****   /* Set the default configuration */
 745:../Library/STM32F10x_StdPeriph_Driver/src/stm32f10x_tim.c ****   TIM_OCInitStruct->TIM_OCMode = TIM_OCMode_Timing;
 19004              		.loc 1 745 0
 19005 0000 4FF00003 		mov	r3, #0
 19006 0004 0380     		strh	r3, [r0, #0]	@ movhi
 746:../Library/STM32F10x_StdPeriph_Driver/src/stm32f10x_tim.c ****   TIM_OCInitStruct->TIM_OutputState = TIM_OutputState_Disable;
 19007              		.loc 1 746 0
 19008 0006 4380     		strh	r3, [r0, #2]	@ movhi
 747:../Library/STM32F10x_StdPeriph_Driver/src/stm32f10x_tim.c ****   TIM_OCInitStruct->TIM_OutputNState = TIM_OutputNState_Disable;
 19009              		.loc 1 747 0
 19010 0008 8380     		strh	r3, [r0, #4]	@ movhi
 748:../Library/STM32F10x_StdPeriph_Driver/src/stm32f10x_tim.c ****   TIM_OCInitStruct->TIM_Pulse = 0x0000;
 19011              		.loc 1 748 0
 19012 000a C380     		strh	r3, [r0, #6]	@ movhi
 749:../Library/STM32F10x_StdPeriph_Driver/src/stm32f10x_tim.c ****   TIM_OCInitStruct->TIM_OCPolarity = TIM_OCPolarity_High;
 19013              		.loc 1 749 0
 19014 000c 0381     		strh	r3, [r0, #8]	@ movhi
 750:../Library/STM32F10x_StdPeriph_Driver/src/stm32f10x_tim.c ****   TIM_OCInitStruct->TIM_OCNPolarity = TIM_OCPolarity_High;
 19015              		.loc 1 750 0
 19016 000e 4381     		strh	r3, [r0, #10]	@ movhi
 751:../Library/STM32F10x_StdPeriph_Driver/src/stm32f10x_tim.c ****   TIM_OCInitStruct->TIM_OCIdleState = TIM_OCIdleState_Reset;
 19017              		.loc 1 751 0
 19018 0010 8381     		strh	r3, [r0, #12]	@ movhi
 752:../Library/STM32F10x_StdPeriph_Driver/src/stm32f10x_tim.c ****   TIM_OCInitStruct->TIM_OCNIdleState = TIM_OCNIdleState_Reset;
 19019              		.loc 1 752 0
 19020 0012 C381     		strh	r3, [r0, #14]	@ movhi
 753:../Library/STM32F10x_StdPeriph_Driver/src/stm32f10x_tim.c **** }
 19021              		.loc 1 753 0
 19022 0014 7047     		bx	lr
 19023              		.cfi_endproc
 19024              	.LFE39:
 19026 0016 00BF     		.section	.text.TIM_ICStructInit,"ax",%progbits
 19027              		.align	2
 19028              		.global	TIM_ICStructInit
 19029              		.thumb
 19030              		.thumb_func
 19032              	TIM_ICStructInit:
 19033              	.LFB40:
 754:../Library/STM32F10x_StdPeriph_Driver/src/stm32f10x_tim.c **** 
 755:../Library/STM32F10x_StdPeriph_Driver/src/stm32f10x_tim.c **** /**
 756:../Library/STM32F10x_StdPeriph_Driver/src/stm32f10x_tim.c ****   * @brief  Fills each TIM_ICInitStruct member with its default value.
 757:../Library/STM32F10x_StdPeriph_Driver/src/stm32f10x_tim.c ****   * @param  TIM_ICInitStruct : pointer to a TIM_ICInitTypeDef structure which will
 758:../Library/STM32F10x_StdPeriph_Driver/src/stm32f10x_tim.c ****   *   be initialized.
 759:../Library/STM32F10x_StdPeriph_Driver/src/stm32f10x_tim.c ****   * @retval None
 760:../Library/STM32F10x_StdPeriph_Driver/src/stm32f10x_tim.c ****   */
 761:../Library/STM32F10x_StdPeriph_Driver/src/stm32f10x_tim.c **** void TIM_ICStructInit(TIM_ICInitTypeDef* TIM_ICInitStruct)
 762:../Library/STM32F10x_StdPeriph_Driver/src/stm32f10x_tim.c **** {
 19034              		.loc 1 762 0
 19035              		.cfi_startproc
 19036              		@ args = 0, pretend = 0, frame = 0
 19037              		@ frame_needed = 0, uses_anonymous_args = 0
 19038              		@ link register save eliminated.
 19039              	.LVL120:
 763:../Library/STM32F10x_StdPeriph_Driver/src/stm32f10x_tim.c ****   /* Set the default configuration */
 764:../Library/STM32F10x_StdPeriph_Driver/src/stm32f10x_tim.c ****   TIM_ICInitStruct->TIM_Channel = TIM_Channel_1;
 19040              		.loc 1 764 0
 19041 0000 4FF00003 		mov	r3, #0
 19042 0004 0380     		strh	r3, [r0, #0]	@ movhi
 765:../Library/STM32F10x_StdPeriph_Driver/src/stm32f10x_tim.c ****   TIM_ICInitStruct->TIM_ICPolarity = TIM_ICPolarity_Rising;
 19043              		.loc 1 765 0
 19044 0006 4380     		strh	r3, [r0, #2]	@ movhi
 766:../Library/STM32F10x_StdPeriph_Driver/src/stm32f10x_tim.c ****   TIM_ICInitStruct->TIM_ICSelection = TIM_ICSelection_DirectTI;
 19045              		.loc 1 766 0
 19046 0008 4FF00102 		mov	r2, #1	@ movhi
 19047 000c 8280     		strh	r2, [r0, #4]	@ movhi
 767:../Library/STM32F10x_StdPeriph_Driver/src/stm32f10x_tim.c ****   TIM_ICInitStruct->TIM_ICPrescaler = TIM_ICPSC_DIV1;
 19048              		.loc 1 767 0
 19049 000e C380     		strh	r3, [r0, #6]	@ movhi
 768:../Library/STM32F10x_StdPeriph_Driver/src/stm32f10x_tim.c ****   TIM_ICInitStruct->TIM_ICFilter = 0x00;
 19050              		.loc 1 768 0
 19051 0010 0381     		strh	r3, [r0, #8]	@ movhi
 769:../Library/STM32F10x_StdPeriph_Driver/src/stm32f10x_tim.c **** }
 19052              		.loc 1 769 0
 19053 0012 7047     		bx	lr
 19054              		.cfi_endproc
 19055              	.LFE40:
 19057              		.section	.text.TIM_BDTRStructInit,"ax",%progbits
 19058              		.align	2
 19059              		.global	TIM_BDTRStructInit
 19060              		.thumb
 19061              		.thumb_func
 19063              	TIM_BDTRStructInit:
 19064              	.LFB41:
 770:../Library/STM32F10x_StdPeriph_Driver/src/stm32f10x_tim.c **** 
 771:../Library/STM32F10x_StdPeriph_Driver/src/stm32f10x_tim.c **** /**
 772:../Library/STM32F10x_StdPeriph_Driver/src/stm32f10x_tim.c ****   * @brief  Fills each TIM_BDTRInitStruct member with its default value.
 773:../Library/STM32F10x_StdPeriph_Driver/src/stm32f10x_tim.c ****   * @param  TIM_BDTRInitStruct: pointer to a TIM_BDTRInitTypeDef structure which
 774:../Library/STM32F10x_StdPeriph_Driver/src/stm32f10x_tim.c ****   *   will be initialized.
 775:../Library/STM32F10x_StdPeriph_Driver/src/stm32f10x_tim.c ****   * @retval None
 776:../Library/STM32F10x_StdPeriph_Driver/src/stm32f10x_tim.c ****   */
 777:../Library/STM32F10x_StdPeriph_Driver/src/stm32f10x_tim.c **** void TIM_BDTRStructInit(TIM_BDTRInitTypeDef* TIM_BDTRInitStruct)
 778:../Library/STM32F10x_StdPeriph_Driver/src/stm32f10x_tim.c **** {
 19065              		.loc 1 778 0
 19066              		.cfi_startproc
 19067              		@ args = 0, pretend = 0, frame = 0
 19068              		@ frame_needed = 0, uses_anonymous_args = 0
 19069              		@ link register save eliminated.
 19070              	.LVL121:
 779:../Library/STM32F10x_StdPeriph_Driver/src/stm32f10x_tim.c ****   /* Set the default configuration */
 780:../Library/STM32F10x_StdPeriph_Driver/src/stm32f10x_tim.c ****   TIM_BDTRInitStruct->TIM_OSSRState = TIM_OSSRState_Disable;
 19071              		.loc 1 780 0
 19072 0000 4FF00003 		mov	r3, #0
 19073 0004 0380     		strh	r3, [r0, #0]	@ movhi
 781:../Library/STM32F10x_StdPeriph_Driver/src/stm32f10x_tim.c ****   TIM_BDTRInitStruct->TIM_OSSIState = TIM_OSSIState_Disable;
 19074              		.loc 1 781 0
 19075 0006 4380     		strh	r3, [r0, #2]	@ movhi
 782:../Library/STM32F10x_StdPeriph_Driver/src/stm32f10x_tim.c ****   TIM_BDTRInitStruct->TIM_LOCKLevel = TIM_LOCKLevel_OFF;
 19076              		.loc 1 782 0
 19077 0008 8380     		strh	r3, [r0, #4]	@ movhi
 783:../Library/STM32F10x_StdPeriph_Driver/src/stm32f10x_tim.c ****   TIM_BDTRInitStruct->TIM_DeadTime = 0x00;
 19078              		.loc 1 783 0
 19079 000a C380     		strh	r3, [r0, #6]	@ movhi
 784:../Library/STM32F10x_StdPeriph_Driver/src/stm32f10x_tim.c ****   TIM_BDTRInitStruct->TIM_Break = TIM_Break_Disable;
 19080              		.loc 1 784 0
 19081 000c 0381     		strh	r3, [r0, #8]	@ movhi
 785:../Library/STM32F10x_StdPeriph_Driver/src/stm32f10x_tim.c ****   TIM_BDTRInitStruct->TIM_BreakPolarity = TIM_BreakPolarity_Low;
 19082              		.loc 1 785 0
 19083 000e 4381     		strh	r3, [r0, #10]	@ movhi
 786:../Library/STM32F10x_StdPeriph_Driver/src/stm32f10x_tim.c ****   TIM_BDTRInitStruct->TIM_AutomaticOutput = TIM_AutomaticOutput_Disable;
 19084              		.loc 1 786 0
 19085 0010 8381     		strh	r3, [r0, #12]	@ movhi
 787:../Library/STM32F10x_StdPeriph_Driver/src/stm32f10x_tim.c **** }
 19086              		.loc 1 787 0
 19087 0012 7047     		bx	lr
 19088              		.cfi_endproc
 19089              	.LFE41:
 19091              		.section	.text.TIM_Cmd,"ax",%progbits
 19092              		.align	2
 19093              		.global	TIM_Cmd
 19094              		.thumb
 19095              		.thumb_func
 19097              	TIM_Cmd:
 19098              	.LFB42:
 788:../Library/STM32F10x_StdPeriph_Driver/src/stm32f10x_tim.c **** 
 789:../Library/STM32F10x_StdPeriph_Driver/src/stm32f10x_tim.c **** /**
 790:../Library/STM32F10x_StdPeriph_Driver/src/stm32f10x_tim.c ****   * @brief  Enables or disables the specified TIM peripheral.
 791:../Library/STM32F10x_StdPeriph_Driver/src/stm32f10x_tim.c ****   * @param  TIMx: where x can be 1 to 17 to select the TIMx peripheral.
 792:../Library/STM32F10x_StdPeriph_Driver/src/stm32f10x_tim.c ****   * @param  NewState: new state of the TIMx peripheral.
 793:../Library/STM32F10x_StdPeriph_Driver/src/stm32f10x_tim.c ****   *   This parameter can be: ENABLE or DISABLE.
 794:../Library/STM32F10x_StdPeriph_Driver/src/stm32f10x_tim.c ****   * @retval None
 795:../Library/STM32F10x_StdPeriph_Driver/src/stm32f10x_tim.c ****   */
 796:../Library/STM32F10x_StdPeriph_Driver/src/stm32f10x_tim.c **** void TIM_Cmd(TIM_TypeDef* TIMx, FunctionalState NewState)
 797:../Library/STM32F10x_StdPeriph_Driver/src/stm32f10x_tim.c **** {
 19099              		.loc 1 797 0
 19100              		.cfi_startproc
 19101              		@ args = 0, pretend = 0, frame = 0
 19102              		@ frame_needed = 0, uses_anonymous_args = 0
 19103              		@ link register save eliminated.
 19104              	.LVL122:
 798:../Library/STM32F10x_StdPeriph_Driver/src/stm32f10x_tim.c ****   /* Check the parameters */
 799:../Library/STM32F10x_StdPeriph_Driver/src/stm32f10x_tim.c ****   assert_param(IS_TIM_ALL_PERIPH(TIMx));
 800:../Library/STM32F10x_StdPeriph_Driver/src/stm32f10x_tim.c ****   assert_param(IS_FUNCTIONAL_STATE(NewState));
 801:../Library/STM32F10x_StdPeriph_Driver/src/stm32f10x_tim.c ****   
 802:../Library/STM32F10x_StdPeriph_Driver/src/stm32f10x_tim.c ****   if (NewState != DISABLE)
 19105              		.loc 1 802 0
 19106 0000 29B1     		cbz	r1, .L32
 803:../Library/STM32F10x_StdPeriph_Driver/src/stm32f10x_tim.c ****   {
 804:../Library/STM32F10x_StdPeriph_Driver/src/stm32f10x_tim.c ****     /* Enable the TIM Counter */
 805:../Library/STM32F10x_StdPeriph_Driver/src/stm32f10x_tim.c ****     TIMx->CR1 |= TIM_CR1_CEN;
 19107              		.loc 1 805 0
 19108 0002 0388     		ldrh	r3, [r0, #0]
 19109 0004 9BB2     		uxth	r3, r3
 19110 0006 43F00103 		orr	r3, r3, #1
 19111 000a 0380     		strh	r3, [r0, #0]	@ movhi
 19112 000c 7047     		bx	lr
 19113              	.L32:
 806:../Library/STM32F10x_StdPeriph_Driver/src/stm32f10x_tim.c ****   }
 807:../Library/STM32F10x_StdPeriph_Driver/src/stm32f10x_tim.c ****   else
 808:../Library/STM32F10x_StdPeriph_Driver/src/stm32f10x_tim.c ****   {
 809:../Library/STM32F10x_StdPeriph_Driver/src/stm32f10x_tim.c ****     /* Disable the TIM Counter */
 810:../Library/STM32F10x_StdPeriph_Driver/src/stm32f10x_tim.c ****     TIMx->CR1 &= (uint16_t)(~((uint16_t)TIM_CR1_CEN));
 19114              		.loc 1 810 0
 19115 000e 0388     		ldrh	r3, [r0, #0]
 19116 0010 23F00103 		bic	r3, r3, #1
 19117 0014 4FEA0343 		lsl	r3, r3, #16
 19118 0018 4FEA1343 		lsr	r3, r3, #16
 19119 001c 0380     		strh	r3, [r0, #0]	@ movhi
 19120 001e 7047     		bx	lr
 19121              		.cfi_endproc
 19122              	.LFE42:
 19124              		.section	.text.TIM_CtrlPWMOutputs,"ax",%progbits
 19125              		.align	2
 19126              		.global	TIM_CtrlPWMOutputs
 19127              		.thumb
 19128              		.thumb_func
 19130              	TIM_CtrlPWMOutputs:
 19131              	.LFB43:
 811:../Library/STM32F10x_StdPeriph_Driver/src/stm32f10x_tim.c ****   }
 812:../Library/STM32F10x_StdPeriph_Driver/src/stm32f10x_tim.c **** }
 813:../Library/STM32F10x_StdPeriph_Driver/src/stm32f10x_tim.c **** 
 814:../Library/STM32F10x_StdPeriph_Driver/src/stm32f10x_tim.c **** /**
 815:../Library/STM32F10x_StdPeriph_Driver/src/stm32f10x_tim.c ****   * @brief  Enables or disables the TIM peripheral Main Outputs.
 816:../Library/STM32F10x_StdPeriph_Driver/src/stm32f10x_tim.c ****   * @param  TIMx: where x can be 1, 8, 15, 16 or 17 to select the TIMx peripheral.
 817:../Library/STM32F10x_StdPeriph_Driver/src/stm32f10x_tim.c ****   * @param  NewState: new state of the TIM peripheral Main Outputs.
 818:../Library/STM32F10x_StdPeriph_Driver/src/stm32f10x_tim.c ****   *   This parameter can be: ENABLE or DISABLE.
 819:../Library/STM32F10x_StdPeriph_Driver/src/stm32f10x_tim.c ****   * @retval None
 820:../Library/STM32F10x_StdPeriph_Driver/src/stm32f10x_tim.c ****   */
 821:../Library/STM32F10x_StdPeriph_Driver/src/stm32f10x_tim.c **** void TIM_CtrlPWMOutputs(TIM_TypeDef* TIMx, FunctionalState NewState)
 822:../Library/STM32F10x_StdPeriph_Driver/src/stm32f10x_tim.c **** {
 19132              		.loc 1 822 0
 19133              		.cfi_startproc
 19134              		@ args = 0, pretend = 0, frame = 0
 19135              		@ frame_needed = 0, uses_anonymous_args = 0
 19136              		@ link register save eliminated.
 19137              	.LVL123:
 823:../Library/STM32F10x_StdPeriph_Driver/src/stm32f10x_tim.c ****   /* Check the parameters */
 824:../Library/STM32F10x_StdPeriph_Driver/src/stm32f10x_tim.c ****   assert_param(IS_TIM_LIST2_PERIPH(TIMx));
 825:../Library/STM32F10x_StdPeriph_Driver/src/stm32f10x_tim.c ****   assert_param(IS_FUNCTIONAL_STATE(NewState));
 826:../Library/STM32F10x_StdPeriph_Driver/src/stm32f10x_tim.c ****   if (NewState != DISABLE)
 19138              		.loc 1 826 0
 19139 0000 49B1     		cbz	r1, .L36
 827:../Library/STM32F10x_StdPeriph_Driver/src/stm32f10x_tim.c ****   {
 828:../Library/STM32F10x_StdPeriph_Driver/src/stm32f10x_tim.c ****     /* Enable the TIM Main Output */
 829:../Library/STM32F10x_StdPeriph_Driver/src/stm32f10x_tim.c ****     TIMx->BDTR |= TIM_BDTR_MOE;
 19140              		.loc 1 829 0
 19141 0002 B0F84430 		ldrh	r3, [r0, #68]
 19142 0006 6FEA4343 		mvn	r3, r3, lsl #17
 19143 000a 6FEA5343 		mvn	r3, r3, lsr #17
 19144 000e 9BB2     		uxth	r3, r3
 19145 0010 A0F84430 		strh	r3, [r0, #68]	@ movhi
 19146 0014 7047     		bx	lr
 19147              	.L36:
 830:../Library/STM32F10x_StdPeriph_Driver/src/stm32f10x_tim.c ****   }
 831:../Library/STM32F10x_StdPeriph_Driver/src/stm32f10x_tim.c ****   else
 832:../Library/STM32F10x_StdPeriph_Driver/src/stm32f10x_tim.c ****   {
 833:../Library/STM32F10x_StdPeriph_Driver/src/stm32f10x_tim.c ****     /* Disable the TIM Main Output */
 834:../Library/STM32F10x_StdPeriph_Driver/src/stm32f10x_tim.c ****     TIMx->BDTR &= (uint16_t)(~((uint16_t)TIM_BDTR_MOE));
 19148              		.loc 1 834 0
 19149 0016 B0F84430 		ldrh	r3, [r0, #68]
 19150 001a 4FEA4343 		lsl	r3, r3, #17
 19151 001e 4FEA5343 		lsr	r3, r3, #17
 19152 0022 A0F84430 		strh	r3, [r0, #68]	@ movhi
 19153 0026 7047     		bx	lr
 19154              		.cfi_endproc
 19155              	.LFE43:
 19157              		.section	.text.TIM_ITConfig,"ax",%progbits
 19158              		.align	2
 19159              		.global	TIM_ITConfig
 19160              		.thumb
 19161              		.thumb_func
 19163              	TIM_ITConfig:
 19164              	.LFB44:
 835:../Library/STM32F10x_StdPeriph_Driver/src/stm32f10x_tim.c ****   }  
 836:../Library/STM32F10x_StdPeriph_Driver/src/stm32f10x_tim.c **** }
 837:../Library/STM32F10x_StdPeriph_Driver/src/stm32f10x_tim.c **** 
 838:../Library/STM32F10x_StdPeriph_Driver/src/stm32f10x_tim.c **** /**
 839:../Library/STM32F10x_StdPeriph_Driver/src/stm32f10x_tim.c ****   * @brief  Enables or disables the specified TIM interrupts.
 840:../Library/STM32F10x_StdPeriph_Driver/src/stm32f10x_tim.c ****   * @param  TIMx: where x can be 1 to 17 to select the TIMx peripheral.
 841:../Library/STM32F10x_StdPeriph_Driver/src/stm32f10x_tim.c ****   * @param  TIM_IT: specifies the TIM interrupts sources to be enabled or disabled.
 842:../Library/STM32F10x_StdPeriph_Driver/src/stm32f10x_tim.c ****   *   This parameter can be any combination of the following values:
 843:../Library/STM32F10x_StdPeriph_Driver/src/stm32f10x_tim.c ****   *     @arg TIM_IT_Update: TIM update Interrupt source
 844:../Library/STM32F10x_StdPeriph_Driver/src/stm32f10x_tim.c ****   *     @arg TIM_IT_CC1: TIM Capture Compare 1 Interrupt source
 845:../Library/STM32F10x_StdPeriph_Driver/src/stm32f10x_tim.c ****   *     @arg TIM_IT_CC2: TIM Capture Compare 2 Interrupt source
 846:../Library/STM32F10x_StdPeriph_Driver/src/stm32f10x_tim.c ****   *     @arg TIM_IT_CC3: TIM Capture Compare 3 Interrupt source
 847:../Library/STM32F10x_StdPeriph_Driver/src/stm32f10x_tim.c ****   *     @arg TIM_IT_CC4: TIM Capture Compare 4 Interrupt source
 848:../Library/STM32F10x_StdPeriph_Driver/src/stm32f10x_tim.c ****   *     @arg TIM_IT_COM: TIM Commutation Interrupt source
 849:../Library/STM32F10x_StdPeriph_Driver/src/stm32f10x_tim.c ****   *     @arg TIM_IT_Trigger: TIM Trigger Interrupt source
 850:../Library/STM32F10x_StdPeriph_Driver/src/stm32f10x_tim.c ****   *     @arg TIM_IT_Break: TIM Break Interrupt source
 851:../Library/STM32F10x_StdPeriph_Driver/src/stm32f10x_tim.c ****   * @note 
 852:../Library/STM32F10x_StdPeriph_Driver/src/stm32f10x_tim.c ****   *   - TIM6 and TIM7 can only generate an update interrupt.
 853:../Library/STM32F10x_StdPeriph_Driver/src/stm32f10x_tim.c ****   *   - TIM9, TIM12 and TIM15 can have only TIM_IT_Update, TIM_IT_CC1,
 854:../Library/STM32F10x_StdPeriph_Driver/src/stm32f10x_tim.c ****   *      TIM_IT_CC2 or TIM_IT_Trigger. 
 855:../Library/STM32F10x_StdPeriph_Driver/src/stm32f10x_tim.c ****   *   - TIM10, TIM11, TIM13, TIM14, TIM16 and TIM17 can have TIM_IT_Update or TIM_IT_CC1.   
 856:../Library/STM32F10x_StdPeriph_Driver/src/stm32f10x_tim.c ****   *   - TIM_IT_Break is used only with TIM1, TIM8 and TIM15. 
 857:../Library/STM32F10x_StdPeriph_Driver/src/stm32f10x_tim.c ****   *   - TIM_IT_COM is used only with TIM1, TIM8, TIM15, TIM16 and TIM17.    
 858:../Library/STM32F10x_StdPeriph_Driver/src/stm32f10x_tim.c ****   * @param  NewState: new state of the TIM interrupts.
 859:../Library/STM32F10x_StdPeriph_Driver/src/stm32f10x_tim.c ****   *   This parameter can be: ENABLE or DISABLE.
 860:../Library/STM32F10x_StdPeriph_Driver/src/stm32f10x_tim.c ****   * @retval None
 861:../Library/STM32F10x_StdPeriph_Driver/src/stm32f10x_tim.c ****   */
 862:../Library/STM32F10x_StdPeriph_Driver/src/stm32f10x_tim.c **** void TIM_ITConfig(TIM_TypeDef* TIMx, uint16_t TIM_IT, FunctionalState NewState)
 863:../Library/STM32F10x_StdPeriph_Driver/src/stm32f10x_tim.c **** {  
 19165              		.loc 1 863 0
 19166              		.cfi_startproc
 19167              		@ args = 0, pretend = 0, frame = 0
 19168              		@ frame_needed = 0, uses_anonymous_args = 0
 19169              		@ link register save eliminated.
 19170              	.LVL124:
 864:../Library/STM32F10x_StdPeriph_Driver/src/stm32f10x_tim.c ****   /* Check the parameters */
 865:../Library/STM32F10x_StdPeriph_Driver/src/stm32f10x_tim.c ****   assert_param(IS_TIM_ALL_PERIPH(TIMx));
 866:../Library/STM32F10x_StdPeriph_Driver/src/stm32f10x_tim.c ****   assert_param(IS_TIM_IT(TIM_IT));
 867:../Library/STM32F10x_StdPeriph_Driver/src/stm32f10x_tim.c ****   assert_param(IS_FUNCTIONAL_STATE(NewState));
 868:../Library/STM32F10x_StdPeriph_Driver/src/stm32f10x_tim.c ****   
 869:../Library/STM32F10x_StdPeriph_Driver/src/stm32f10x_tim.c ****   if (NewState != DISABLE)
 19171              		.loc 1 869 0
 19172 0000 2AB1     		cbz	r2, .L40
 870:../Library/STM32F10x_StdPeriph_Driver/src/stm32f10x_tim.c ****   {
 871:../Library/STM32F10x_StdPeriph_Driver/src/stm32f10x_tim.c ****     /* Enable the Interrupt sources */
 872:../Library/STM32F10x_StdPeriph_Driver/src/stm32f10x_tim.c ****     TIMx->DIER |= TIM_IT;
 19173              		.loc 1 872 0
 19174 0002 8389     		ldrh	r3, [r0, #12]
 19175 0004 9BB2     		uxth	r3, r3
 19176 0006 41EA0301 		orr	r1, r1, r3
 19177              	.LVL125:
 19178 000a 8181     		strh	r1, [r0, #12]	@ movhi
 19179 000c 7047     		bx	lr
 19180              	.LVL126:
 19181              	.L40:
 873:../Library/STM32F10x_StdPeriph_Driver/src/stm32f10x_tim.c ****   }
 874:../Library/STM32F10x_StdPeriph_Driver/src/stm32f10x_tim.c ****   else
 875:../Library/STM32F10x_StdPeriph_Driver/src/stm32f10x_tim.c ****   {
 876:../Library/STM32F10x_StdPeriph_Driver/src/stm32f10x_tim.c ****     /* Disable the Interrupt sources */
 877:../Library/STM32F10x_StdPeriph_Driver/src/stm32f10x_tim.c ****     TIMx->DIER &= (uint16_t)~TIM_IT;
 19182              		.loc 1 877 0
 19183 000e 8389     		ldrh	r3, [r0, #12]
 19184 0010 9BB2     		uxth	r3, r3
 19185 0012 23EA0101 		bic	r1, r3, r1
 19186              	.LVL127:
 19187 0016 8181     		strh	r1, [r0, #12]	@ movhi
 19188 0018 7047     		bx	lr
 19189              		.cfi_endproc
 19190              	.LFE44:
 19192 001a 00BF     		.section	.text.TIM_GenerateEvent,"ax",%progbits
 19193              		.align	2
 19194              		.global	TIM_GenerateEvent
 19195              		.thumb
 19196              		.thumb_func
 19198              	TIM_GenerateEvent:
 19199              	.LFB45:
 878:../Library/STM32F10x_StdPeriph_Driver/src/stm32f10x_tim.c ****   }
 879:../Library/STM32F10x_StdPeriph_Driver/src/stm32f10x_tim.c **** }
 880:../Library/STM32F10x_StdPeriph_Driver/src/stm32f10x_tim.c **** 
 881:../Library/STM32F10x_StdPeriph_Driver/src/stm32f10x_tim.c **** /**
 882:../Library/STM32F10x_StdPeriph_Driver/src/stm32f10x_tim.c ****   * @brief  Configures the TIMx event to be generate by software.
 883:../Library/STM32F10x_StdPeriph_Driver/src/stm32f10x_tim.c ****   * @param  TIMx: where x can be 1 to 17 to select the TIM peripheral.
 884:../Library/STM32F10x_StdPeriph_Driver/src/stm32f10x_tim.c ****   * @param  TIM_EventSource: specifies the event source.
 885:../Library/STM32F10x_StdPeriph_Driver/src/stm32f10x_tim.c ****   *   This parameter can be one or more of the following values:	   
 886:../Library/STM32F10x_StdPeriph_Driver/src/stm32f10x_tim.c ****   *     @arg TIM_EventSource_Update: Timer update Event source
 887:../Library/STM32F10x_StdPeriph_Driver/src/stm32f10x_tim.c ****   *     @arg TIM_EventSource_CC1: Timer Capture Compare 1 Event source
 888:../Library/STM32F10x_StdPeriph_Driver/src/stm32f10x_tim.c ****   *     @arg TIM_EventSource_CC2: Timer Capture Compare 2 Event source
 889:../Library/STM32F10x_StdPeriph_Driver/src/stm32f10x_tim.c ****   *     @arg TIM_EventSource_CC3: Timer Capture Compare 3 Event source
 890:../Library/STM32F10x_StdPeriph_Driver/src/stm32f10x_tim.c ****   *     @arg TIM_EventSource_CC4: Timer Capture Compare 4 Event source
 891:../Library/STM32F10x_StdPeriph_Driver/src/stm32f10x_tim.c ****   *     @arg TIM_EventSource_COM: Timer COM event source  
 892:../Library/STM32F10x_StdPeriph_Driver/src/stm32f10x_tim.c ****   *     @arg TIM_EventSource_Trigger: Timer Trigger Event source
 893:../Library/STM32F10x_StdPeriph_Driver/src/stm32f10x_tim.c ****   *     @arg TIM_EventSource_Break: Timer Break event source
 894:../Library/STM32F10x_StdPeriph_Driver/src/stm32f10x_tim.c ****   * @note 
 895:../Library/STM32F10x_StdPeriph_Driver/src/stm32f10x_tim.c ****   *   - TIM6 and TIM7 can only generate an update event. 
 896:../Library/STM32F10x_StdPeriph_Driver/src/stm32f10x_tim.c ****   *   - TIM_EventSource_COM and TIM_EventSource_Break are used only with TIM1 and TIM8.      
 897:../Library/STM32F10x_StdPeriph_Driver/src/stm32f10x_tim.c ****   * @retval None
 898:../Library/STM32F10x_StdPeriph_Driver/src/stm32f10x_tim.c ****   */
 899:../Library/STM32F10x_StdPeriph_Driver/src/stm32f10x_tim.c **** void TIM_GenerateEvent(TIM_TypeDef* TIMx, uint16_t TIM_EventSource)
 900:../Library/STM32F10x_StdPeriph_Driver/src/stm32f10x_tim.c **** { 
 19200              		.loc 1 900 0
 19201              		.cfi_startproc
 19202              		@ args = 0, pretend = 0, frame = 0
 19203              		@ frame_needed = 0, uses_anonymous_args = 0
 19204              		@ link register save eliminated.
 19205              	.LVL128:
 901:../Library/STM32F10x_StdPeriph_Driver/src/stm32f10x_tim.c ****   /* Check the parameters */
 902:../Library/STM32F10x_StdPeriph_Driver/src/stm32f10x_tim.c ****   assert_param(IS_TIM_ALL_PERIPH(TIMx));
 903:../Library/STM32F10x_StdPeriph_Driver/src/stm32f10x_tim.c ****   assert_param(IS_TIM_EVENT_SOURCE(TIM_EventSource));
 904:../Library/STM32F10x_StdPeriph_Driver/src/stm32f10x_tim.c ****   
 905:../Library/STM32F10x_StdPeriph_Driver/src/stm32f10x_tim.c ****   /* Set the event sources */
 906:../Library/STM32F10x_StdPeriph_Driver/src/stm32f10x_tim.c ****   TIMx->EGR = TIM_EventSource;
 19206              		.loc 1 906 0
 19207 0000 8182     		strh	r1, [r0, #20]	@ movhi
 907:../Library/STM32F10x_StdPeriph_Driver/src/stm32f10x_tim.c **** }
 19208              		.loc 1 907 0
 19209 0002 7047     		bx	lr
 19210              		.cfi_endproc
 19211              	.LFE45:
 19213              		.section	.text.TIM_DMAConfig,"ax",%progbits
 19214              		.align	2
 19215              		.global	TIM_DMAConfig
 19216              		.thumb
 19217              		.thumb_func
 19219              	TIM_DMAConfig:
 19220              	.LFB46:
 908:../Library/STM32F10x_StdPeriph_Driver/src/stm32f10x_tim.c **** 
 909:../Library/STM32F10x_StdPeriph_Driver/src/stm32f10x_tim.c **** /**
 910:../Library/STM32F10x_StdPeriph_Driver/src/stm32f10x_tim.c ****   * @brief  Configures the TIMxs DMA interface.
 911:../Library/STM32F10x_StdPeriph_Driver/src/stm32f10x_tim.c ****   * @param  TIMx: where x can be  1, 2, 3, 4, 5, 8, 15, 16 or 17 to select 
 912:../Library/STM32F10x_StdPeriph_Driver/src/stm32f10x_tim.c ****   *   the TIM peripheral.
 913:../Library/STM32F10x_StdPeriph_Driver/src/stm32f10x_tim.c ****   * @param  TIM_DMABase: DMA Base address.
 914:../Library/STM32F10x_StdPeriph_Driver/src/stm32f10x_tim.c ****   *   This parameter can be one of the following values:
 915:../Library/STM32F10x_StdPeriph_Driver/src/stm32f10x_tim.c ****   *     @arg TIM_DMABase_CR, TIM_DMABase_CR2, TIM_DMABase_SMCR,
 916:../Library/STM32F10x_StdPeriph_Driver/src/stm32f10x_tim.c ****   *   TIM_DMABase_DIER, TIM1_DMABase_SR, TIM_DMABase_EGR,
 917:../Library/STM32F10x_StdPeriph_Driver/src/stm32f10x_tim.c ****   *   TIM_DMABase_CCMR1, TIM_DMABase_CCMR2, TIM_DMABase_CCER,
 918:../Library/STM32F10x_StdPeriph_Driver/src/stm32f10x_tim.c ****   *   TIM_DMABase_CNT, TIM_DMABase_PSC, TIM_DMABase_ARR,
 919:../Library/STM32F10x_StdPeriph_Driver/src/stm32f10x_tim.c ****   *   TIM_DMABase_RCR, TIM_DMABase_CCR1, TIM_DMABase_CCR2,
 920:../Library/STM32F10x_StdPeriph_Driver/src/stm32f10x_tim.c ****   *   TIM_DMABase_CCR3, TIM_DMABase_CCR4, TIM_DMABase_BDTR,
 921:../Library/STM32F10x_StdPeriph_Driver/src/stm32f10x_tim.c ****   *   TIM_DMABase_DCR.
 922:../Library/STM32F10x_StdPeriph_Driver/src/stm32f10x_tim.c ****   * @param  TIM_DMABurstLength: DMA Burst length.
 923:../Library/STM32F10x_StdPeriph_Driver/src/stm32f10x_tim.c ****   *   This parameter can be one value between:
 924:../Library/STM32F10x_StdPeriph_Driver/src/stm32f10x_tim.c ****   *   TIM_DMABurstLength_1Byte and TIM_DMABurstLength_18Bytes.
 925:../Library/STM32F10x_StdPeriph_Driver/src/stm32f10x_tim.c ****   * @retval None
 926:../Library/STM32F10x_StdPeriph_Driver/src/stm32f10x_tim.c ****   */
 927:../Library/STM32F10x_StdPeriph_Driver/src/stm32f10x_tim.c **** void TIM_DMAConfig(TIM_TypeDef* TIMx, uint16_t TIM_DMABase, uint16_t TIM_DMABurstLength)
 928:../Library/STM32F10x_StdPeriph_Driver/src/stm32f10x_tim.c **** {
 19221              		.loc 1 928 0
 19222              		.cfi_startproc
 19223              		@ args = 0, pretend = 0, frame = 0
 19224              		@ frame_needed = 0, uses_anonymous_args = 0
 19225              		@ link register save eliminated.
 19226              	.LVL129:
 929:../Library/STM32F10x_StdPeriph_Driver/src/stm32f10x_tim.c ****   /* Check the parameters */
 930:../Library/STM32F10x_StdPeriph_Driver/src/stm32f10x_tim.c ****   assert_param(IS_TIM_LIST4_PERIPH(TIMx));
 931:../Library/STM32F10x_StdPeriph_Driver/src/stm32f10x_tim.c ****   assert_param(IS_TIM_DMA_BASE(TIM_DMABase));
 932:../Library/STM32F10x_StdPeriph_Driver/src/stm32f10x_tim.c ****   assert_param(IS_TIM_DMA_LENGTH(TIM_DMABurstLength));
 933:../Library/STM32F10x_StdPeriph_Driver/src/stm32f10x_tim.c ****   /* Set the DMA Base and the DMA Burst Length */
 934:../Library/STM32F10x_StdPeriph_Driver/src/stm32f10x_tim.c ****   TIMx->DCR = TIM_DMABase | TIM_DMABurstLength;
 19227              		.loc 1 934 0
 19228 0000 42EA0102 		orr	r2, r2, r1
 19229              	.LVL130:
 19230 0004 A0F84820 		strh	r2, [r0, #72]	@ movhi
 935:../Library/STM32F10x_StdPeriph_Driver/src/stm32f10x_tim.c **** }
 19231              		.loc 1 935 0
 19232 0008 7047     		bx	lr
 19233              		.cfi_endproc
 19234              	.LFE46:
 19236 000a 00BF     		.section	.text.TIM_DMACmd,"ax",%progbits
 19237              		.align	2
 19238              		.global	TIM_DMACmd
 19239              		.thumb
 19240              		.thumb_func
 19242              	TIM_DMACmd:
 19243              	.LFB47:
 936:../Library/STM32F10x_StdPeriph_Driver/src/stm32f10x_tim.c **** 
 937:../Library/STM32F10x_StdPeriph_Driver/src/stm32f10x_tim.c **** /**
 938:../Library/STM32F10x_StdPeriph_Driver/src/stm32f10x_tim.c ****   * @brief  Enables or disables the TIMxs DMA Requests.
 939:../Library/STM32F10x_StdPeriph_Driver/src/stm32f10x_tim.c ****   * @param  TIMx: where x can be  1, 2, 3, 4, 5, 6, 7, 8, 15, 16 or 17 
 940:../Library/STM32F10x_StdPeriph_Driver/src/stm32f10x_tim.c ****   *   to select the TIM peripheral. 
 941:../Library/STM32F10x_StdPeriph_Driver/src/stm32f10x_tim.c ****   * @param  TIM_DMASource: specifies the DMA Request sources.
 942:../Library/STM32F10x_StdPeriph_Driver/src/stm32f10x_tim.c ****   *   This parameter can be any combination of the following values:
 943:../Library/STM32F10x_StdPeriph_Driver/src/stm32f10x_tim.c ****   *     @arg TIM_DMA_Update: TIM update Interrupt source
 944:../Library/STM32F10x_StdPeriph_Driver/src/stm32f10x_tim.c ****   *     @arg TIM_DMA_CC1: TIM Capture Compare 1 DMA source
 945:../Library/STM32F10x_StdPeriph_Driver/src/stm32f10x_tim.c ****   *     @arg TIM_DMA_CC2: TIM Capture Compare 2 DMA source
 946:../Library/STM32F10x_StdPeriph_Driver/src/stm32f10x_tim.c ****   *     @arg TIM_DMA_CC3: TIM Capture Compare 3 DMA source
 947:../Library/STM32F10x_StdPeriph_Driver/src/stm32f10x_tim.c ****   *     @arg TIM_DMA_CC4: TIM Capture Compare 4 DMA source
 948:../Library/STM32F10x_StdPeriph_Driver/src/stm32f10x_tim.c ****   *     @arg TIM_DMA_COM: TIM Commutation DMA source
 949:../Library/STM32F10x_StdPeriph_Driver/src/stm32f10x_tim.c ****   *     @arg TIM_DMA_Trigger: TIM Trigger DMA source
 950:../Library/STM32F10x_StdPeriph_Driver/src/stm32f10x_tim.c ****   * @param  NewState: new state of the DMA Request sources.
 951:../Library/STM32F10x_StdPeriph_Driver/src/stm32f10x_tim.c ****   *   This parameter can be: ENABLE or DISABLE.
 952:../Library/STM32F10x_StdPeriph_Driver/src/stm32f10x_tim.c ****   * @retval None
 953:../Library/STM32F10x_StdPeriph_Driver/src/stm32f10x_tim.c ****   */
 954:../Library/STM32F10x_StdPeriph_Driver/src/stm32f10x_tim.c **** void TIM_DMACmd(TIM_TypeDef* TIMx, uint16_t TIM_DMASource, FunctionalState NewState)
 955:../Library/STM32F10x_StdPeriph_Driver/src/stm32f10x_tim.c **** { 
 19244              		.loc 1 955 0
 19245              		.cfi_startproc
 19246              		@ args = 0, pretend = 0, frame = 0
 19247              		@ frame_needed = 0, uses_anonymous_args = 0
 19248              		@ link register save eliminated.
 19249              	.LVL131:
 956:../Library/STM32F10x_StdPeriph_Driver/src/stm32f10x_tim.c ****   /* Check the parameters */
 957:../Library/STM32F10x_StdPeriph_Driver/src/stm32f10x_tim.c ****   assert_param(IS_TIM_LIST9_PERIPH(TIMx));
 958:../Library/STM32F10x_StdPeriph_Driver/src/stm32f10x_tim.c ****   assert_param(IS_TIM_DMA_SOURCE(TIM_DMASource));
 959:../Library/STM32F10x_StdPeriph_Driver/src/stm32f10x_tim.c ****   assert_param(IS_FUNCTIONAL_STATE(NewState));
 960:../Library/STM32F10x_StdPeriph_Driver/src/stm32f10x_tim.c ****   
 961:../Library/STM32F10x_StdPeriph_Driver/src/stm32f10x_tim.c ****   if (NewState != DISABLE)
 19250              		.loc 1 961 0
 19251 0000 2AB1     		cbz	r2, .L48
 962:../Library/STM32F10x_StdPeriph_Driver/src/stm32f10x_tim.c ****   {
 963:../Library/STM32F10x_StdPeriph_Driver/src/stm32f10x_tim.c ****     /* Enable the DMA sources */
 964:../Library/STM32F10x_StdPeriph_Driver/src/stm32f10x_tim.c ****     TIMx->DIER |= TIM_DMASource; 
 19252              		.loc 1 964 0
 19253 0002 8389     		ldrh	r3, [r0, #12]
 19254 0004 9BB2     		uxth	r3, r3
 19255 0006 41EA0301 		orr	r1, r1, r3
 19256              	.LVL132:
 19257 000a 8181     		strh	r1, [r0, #12]	@ movhi
 19258 000c 7047     		bx	lr
 19259              	.LVL133:
 19260              	.L48:
 965:../Library/STM32F10x_StdPeriph_Driver/src/stm32f10x_tim.c ****   }
 966:../Library/STM32F10x_StdPeriph_Driver/src/stm32f10x_tim.c ****   else
 967:../Library/STM32F10x_StdPeriph_Driver/src/stm32f10x_tim.c ****   {
 968:../Library/STM32F10x_StdPeriph_Driver/src/stm32f10x_tim.c ****     /* Disable the DMA sources */
 969:../Library/STM32F10x_StdPeriph_Driver/src/stm32f10x_tim.c ****     TIMx->DIER &= (uint16_t)~TIM_DMASource;
 19261              		.loc 1 969 0
 19262 000e 8389     		ldrh	r3, [r0, #12]
 19263 0010 9BB2     		uxth	r3, r3
 19264 0012 23EA0101 		bic	r1, r3, r1
 19265              	.LVL134:
 19266 0016 8181     		strh	r1, [r0, #12]	@ movhi
 19267 0018 7047     		bx	lr
 19268              		.cfi_endproc
 19269              	.LFE47:
 19271 001a 00BF     		.section	.text.TIM_InternalClockConfig,"ax",%progbits
 19272              		.align	2
 19273              		.global	TIM_InternalClockConfig
 19274              		.thumb
 19275              		.thumb_func
 19277              	TIM_InternalClockConfig:
 19278              	.LFB48:
 970:../Library/STM32F10x_StdPeriph_Driver/src/stm32f10x_tim.c ****   }
 971:../Library/STM32F10x_StdPeriph_Driver/src/stm32f10x_tim.c **** }
 972:../Library/STM32F10x_StdPeriph_Driver/src/stm32f10x_tim.c **** 
 973:../Library/STM32F10x_StdPeriph_Driver/src/stm32f10x_tim.c **** /**
 974:../Library/STM32F10x_StdPeriph_Driver/src/stm32f10x_tim.c ****   * @brief  Configures the TIMx interrnal Clock
 975:../Library/STM32F10x_StdPeriph_Driver/src/stm32f10x_tim.c ****   * @param  TIMx: where x can be  1, 2, 3, 4, 5, 8, 9, 12 or 15
 976:../Library/STM32F10x_StdPeriph_Driver/src/stm32f10x_tim.c ****   *   to select the TIM peripheral.
 977:../Library/STM32F10x_StdPeriph_Driver/src/stm32f10x_tim.c ****   * @retval None
 978:../Library/STM32F10x_StdPeriph_Driver/src/stm32f10x_tim.c ****   */
 979:../Library/STM32F10x_StdPeriph_Driver/src/stm32f10x_tim.c **** void TIM_InternalClockConfig(TIM_TypeDef* TIMx)
 980:../Library/STM32F10x_StdPeriph_Driver/src/stm32f10x_tim.c **** {
 19279              		.loc 1 980 0
 19280              		.cfi_startproc
 19281              		@ args = 0, pretend = 0, frame = 0
 19282              		@ frame_needed = 0, uses_anonymous_args = 0
 19283              		@ link register save eliminated.
 19284              	.LVL135:
 981:../Library/STM32F10x_StdPeriph_Driver/src/stm32f10x_tim.c ****   /* Check the parameters */
 982:../Library/STM32F10x_StdPeriph_Driver/src/stm32f10x_tim.c ****   assert_param(IS_TIM_LIST6_PERIPH(TIMx));
 983:../Library/STM32F10x_StdPeriph_Driver/src/stm32f10x_tim.c ****   /* Disable slave mode to clock the prescaler directly with the internal clock */
 984:../Library/STM32F10x_StdPeriph_Driver/src/stm32f10x_tim.c ****   TIMx->SMCR &=  (uint16_t)(~((uint16_t)TIM_SMCR_SMS));
 19285              		.loc 1 984 0
 19286 0000 0389     		ldrh	r3, [r0, #8]
 19287 0002 23F00703 		bic	r3, r3, #7
 19288 0006 4FEA0343 		lsl	r3, r3, #16
 19289 000a 4FEA1343 		lsr	r3, r3, #16
 19290 000e 0381     		strh	r3, [r0, #8]	@ movhi
 985:../Library/STM32F10x_StdPeriph_Driver/src/stm32f10x_tim.c **** }
 19291              		.loc 1 985 0
 19292 0010 7047     		bx	lr
 19293              		.cfi_endproc
 19294              	.LFE48:
 19296 0012 00BF     		.section	.text.TIM_ETRConfig,"ax",%progbits
 19297              		.align	2
 19298              		.global	TIM_ETRConfig
 19299              		.thumb
 19300              		.thumb_func
 19302              	TIM_ETRConfig:
 19303              	.LFB53:
 986:../Library/STM32F10x_StdPeriph_Driver/src/stm32f10x_tim.c **** 
 987:../Library/STM32F10x_StdPeriph_Driver/src/stm32f10x_tim.c **** /**
 988:../Library/STM32F10x_StdPeriph_Driver/src/stm32f10x_tim.c ****   * @brief  Configures the TIMx Internal Trigger as External Clock
 989:../Library/STM32F10x_StdPeriph_Driver/src/stm32f10x_tim.c ****   * @param  TIMx: where x can be  1, 2, 3, 4, 5, 9, 12 or 15 to select the TIM peripheral.
 990:../Library/STM32F10x_StdPeriph_Driver/src/stm32f10x_tim.c ****   * @param  TIM_ITRSource: Trigger source.
 991:../Library/STM32F10x_StdPeriph_Driver/src/stm32f10x_tim.c ****   *   This parameter can be one of the following values:
 992:../Library/STM32F10x_StdPeriph_Driver/src/stm32f10x_tim.c ****   * @param  TIM_TS_ITR0: Internal Trigger 0
 993:../Library/STM32F10x_StdPeriph_Driver/src/stm32f10x_tim.c ****   * @param  TIM_TS_ITR1: Internal Trigger 1
 994:../Library/STM32F10x_StdPeriph_Driver/src/stm32f10x_tim.c ****   * @param  TIM_TS_ITR2: Internal Trigger 2
 995:../Library/STM32F10x_StdPeriph_Driver/src/stm32f10x_tim.c ****   * @param  TIM_TS_ITR3: Internal Trigger 3
 996:../Library/STM32F10x_StdPeriph_Driver/src/stm32f10x_tim.c ****   * @retval None
 997:../Library/STM32F10x_StdPeriph_Driver/src/stm32f10x_tim.c ****   */
 998:../Library/STM32F10x_StdPeriph_Driver/src/stm32f10x_tim.c **** void TIM_ITRxExternalClockConfig(TIM_TypeDef* TIMx, uint16_t TIM_InputTriggerSource)
 999:../Library/STM32F10x_StdPeriph_Driver/src/stm32f10x_tim.c **** {
1000:../Library/STM32F10x_StdPeriph_Driver/src/stm32f10x_tim.c ****   /* Check the parameters */
1001:../Library/STM32F10x_StdPeriph_Driver/src/stm32f10x_tim.c ****   assert_param(IS_TIM_LIST6_PERIPH(TIMx));
1002:../Library/STM32F10x_StdPeriph_Driver/src/stm32f10x_tim.c ****   assert_param(IS_TIM_INTERNAL_TRIGGER_SELECTION(TIM_InputTriggerSource));
1003:../Library/STM32F10x_StdPeriph_Driver/src/stm32f10x_tim.c ****   /* Select the Internal Trigger */
1004:../Library/STM32F10x_StdPeriph_Driver/src/stm32f10x_tim.c ****   TIM_SelectInputTrigger(TIMx, TIM_InputTriggerSource);
1005:../Library/STM32F10x_StdPeriph_Driver/src/stm32f10x_tim.c ****   /* Select the External clock mode1 */
1006:../Library/STM32F10x_StdPeriph_Driver/src/stm32f10x_tim.c ****   TIMx->SMCR |= TIM_SlaveMode_External1;
1007:../Library/STM32F10x_StdPeriph_Driver/src/stm32f10x_tim.c **** }
1008:../Library/STM32F10x_StdPeriph_Driver/src/stm32f10x_tim.c **** 
1009:../Library/STM32F10x_StdPeriph_Driver/src/stm32f10x_tim.c **** /**
1010:../Library/STM32F10x_StdPeriph_Driver/src/stm32f10x_tim.c ****   * @brief  Configures the TIMx Trigger as External Clock
1011:../Library/STM32F10x_StdPeriph_Driver/src/stm32f10x_tim.c ****   * @param  TIMx: where x can be  1, 2, 3, 4, 5, 9, 12 or 15 to select the TIM peripheral.
1012:../Library/STM32F10x_StdPeriph_Driver/src/stm32f10x_tim.c ****   * @param  TIM_TIxExternalCLKSource: Trigger source.
1013:../Library/STM32F10x_StdPeriph_Driver/src/stm32f10x_tim.c ****   *   This parameter can be one of the following values:
1014:../Library/STM32F10x_StdPeriph_Driver/src/stm32f10x_tim.c ****   *     @arg TIM_TIxExternalCLK1Source_TI1ED: TI1 Edge Detector
1015:../Library/STM32F10x_StdPeriph_Driver/src/stm32f10x_tim.c ****   *     @arg TIM_TIxExternalCLK1Source_TI1: Filtered Timer Input 1
1016:../Library/STM32F10x_StdPeriph_Driver/src/stm32f10x_tim.c ****   *     @arg TIM_TIxExternalCLK1Source_TI2: Filtered Timer Input 2
1017:../Library/STM32F10x_StdPeriph_Driver/src/stm32f10x_tim.c ****   * @param  TIM_ICPolarity: specifies the TIx Polarity.
1018:../Library/STM32F10x_StdPeriph_Driver/src/stm32f10x_tim.c ****   *   This parameter can be one of the following values:
1019:../Library/STM32F10x_StdPeriph_Driver/src/stm32f10x_tim.c ****   *     @arg TIM_ICPolarity_Rising
1020:../Library/STM32F10x_StdPeriph_Driver/src/stm32f10x_tim.c ****   *     @arg TIM_ICPolarity_Falling
1021:../Library/STM32F10x_StdPeriph_Driver/src/stm32f10x_tim.c ****   * @param  ICFilter : specifies the filter value.
1022:../Library/STM32F10x_StdPeriph_Driver/src/stm32f10x_tim.c ****   *   This parameter must be a value between 0x0 and 0xF.
1023:../Library/STM32F10x_StdPeriph_Driver/src/stm32f10x_tim.c ****   * @retval None
1024:../Library/STM32F10x_StdPeriph_Driver/src/stm32f10x_tim.c ****   */
1025:../Library/STM32F10x_StdPeriph_Driver/src/stm32f10x_tim.c **** void TIM_TIxExternalClockConfig(TIM_TypeDef* TIMx, uint16_t TIM_TIxExternalCLKSource,
1026:../Library/STM32F10x_StdPeriph_Driver/src/stm32f10x_tim.c ****                                 uint16_t TIM_ICPolarity, uint16_t ICFilter)
1027:../Library/STM32F10x_StdPeriph_Driver/src/stm32f10x_tim.c **** {
1028:../Library/STM32F10x_StdPeriph_Driver/src/stm32f10x_tim.c ****   /* Check the parameters */
1029:../Library/STM32F10x_StdPeriph_Driver/src/stm32f10x_tim.c ****   assert_param(IS_TIM_LIST6_PERIPH(TIMx));
1030:../Library/STM32F10x_StdPeriph_Driver/src/stm32f10x_tim.c ****   assert_param(IS_TIM_TIXCLK_SOURCE(TIM_TIxExternalCLKSource));
1031:../Library/STM32F10x_StdPeriph_Driver/src/stm32f10x_tim.c ****   assert_param(IS_TIM_IC_POLARITY(TIM_ICPolarity));
1032:../Library/STM32F10x_StdPeriph_Driver/src/stm32f10x_tim.c ****   assert_param(IS_TIM_IC_FILTER(ICFilter));
1033:../Library/STM32F10x_StdPeriph_Driver/src/stm32f10x_tim.c ****   /* Configure the Timer Input Clock Source */
1034:../Library/STM32F10x_StdPeriph_Driver/src/stm32f10x_tim.c ****   if (TIM_TIxExternalCLKSource == TIM_TIxExternalCLK1Source_TI2)
1035:../Library/STM32F10x_StdPeriph_Driver/src/stm32f10x_tim.c ****   {
1036:../Library/STM32F10x_StdPeriph_Driver/src/stm32f10x_tim.c ****     TI2_Config(TIMx, TIM_ICPolarity, TIM_ICSelection_DirectTI, ICFilter);
1037:../Library/STM32F10x_StdPeriph_Driver/src/stm32f10x_tim.c ****   }
1038:../Library/STM32F10x_StdPeriph_Driver/src/stm32f10x_tim.c ****   else
1039:../Library/STM32F10x_StdPeriph_Driver/src/stm32f10x_tim.c ****   {
1040:../Library/STM32F10x_StdPeriph_Driver/src/stm32f10x_tim.c ****     TI1_Config(TIMx, TIM_ICPolarity, TIM_ICSelection_DirectTI, ICFilter);
1041:../Library/STM32F10x_StdPeriph_Driver/src/stm32f10x_tim.c ****   }
1042:../Library/STM32F10x_StdPeriph_Driver/src/stm32f10x_tim.c ****   /* Select the Trigger source */
1043:../Library/STM32F10x_StdPeriph_Driver/src/stm32f10x_tim.c ****   TIM_SelectInputTrigger(TIMx, TIM_TIxExternalCLKSource);
1044:../Library/STM32F10x_StdPeriph_Driver/src/stm32f10x_tim.c ****   /* Select the External clock mode1 */
1045:../Library/STM32F10x_StdPeriph_Driver/src/stm32f10x_tim.c ****   TIMx->SMCR |= TIM_SlaveMode_External1;
1046:../Library/STM32F10x_StdPeriph_Driver/src/stm32f10x_tim.c **** }
1047:../Library/STM32F10x_StdPeriph_Driver/src/stm32f10x_tim.c **** 
1048:../Library/STM32F10x_StdPeriph_Driver/src/stm32f10x_tim.c **** /**
1049:../Library/STM32F10x_StdPeriph_Driver/src/stm32f10x_tim.c ****   * @brief  Configures the External clock Mode1
1050:../Library/STM32F10x_StdPeriph_Driver/src/stm32f10x_tim.c ****   * @param  TIMx: where x can be  1, 2, 3, 4, 5 or 8 to select the TIM peripheral.
1051:../Library/STM32F10x_StdPeriph_Driver/src/stm32f10x_tim.c ****   * @param  TIM_ExtTRGPrescaler: The external Trigger Prescaler.
1052:../Library/STM32F10x_StdPeriph_Driver/src/stm32f10x_tim.c ****   *   This parameter can be one of the following values:
1053:../Library/STM32F10x_StdPeriph_Driver/src/stm32f10x_tim.c ****   *     @arg TIM_ExtTRGPSC_OFF: ETRP Prescaler OFF.
1054:../Library/STM32F10x_StdPeriph_Driver/src/stm32f10x_tim.c ****   *     @arg TIM_ExtTRGPSC_DIV2: ETRP frequency divided by 2.
1055:../Library/STM32F10x_StdPeriph_Driver/src/stm32f10x_tim.c ****   *     @arg TIM_ExtTRGPSC_DIV4: ETRP frequency divided by 4.
1056:../Library/STM32F10x_StdPeriph_Driver/src/stm32f10x_tim.c ****   *     @arg TIM_ExtTRGPSC_DIV8: ETRP frequency divided by 8.
1057:../Library/STM32F10x_StdPeriph_Driver/src/stm32f10x_tim.c ****   * @param  TIM_ExtTRGPolarity: The external Trigger Polarity.
1058:../Library/STM32F10x_StdPeriph_Driver/src/stm32f10x_tim.c ****   *   This parameter can be one of the following values:
1059:../Library/STM32F10x_StdPeriph_Driver/src/stm32f10x_tim.c ****   *     @arg TIM_ExtTRGPolarity_Inverted: active low or falling edge active.
1060:../Library/STM32F10x_StdPeriph_Driver/src/stm32f10x_tim.c ****   *     @arg TIM_ExtTRGPolarity_NonInverted: active high or rising edge active.
1061:../Library/STM32F10x_StdPeriph_Driver/src/stm32f10x_tim.c ****   * @param  ExtTRGFilter: External Trigger Filter.
1062:../Library/STM32F10x_StdPeriph_Driver/src/stm32f10x_tim.c ****   *   This parameter must be a value between 0x00 and 0x0F
1063:../Library/STM32F10x_StdPeriph_Driver/src/stm32f10x_tim.c ****   * @retval None
1064:../Library/STM32F10x_StdPeriph_Driver/src/stm32f10x_tim.c ****   */
1065:../Library/STM32F10x_StdPeriph_Driver/src/stm32f10x_tim.c **** void TIM_ETRClockMode1Config(TIM_TypeDef* TIMx, uint16_t TIM_ExtTRGPrescaler, uint16_t TIM_ExtTRGPo
1066:../Library/STM32F10x_StdPeriph_Driver/src/stm32f10x_tim.c ****                              uint16_t ExtTRGFilter)
1067:../Library/STM32F10x_StdPeriph_Driver/src/stm32f10x_tim.c **** {
1068:../Library/STM32F10x_StdPeriph_Driver/src/stm32f10x_tim.c ****   uint16_t tmpsmcr = 0;
1069:../Library/STM32F10x_StdPeriph_Driver/src/stm32f10x_tim.c ****   /* Check the parameters */
1070:../Library/STM32F10x_StdPeriph_Driver/src/stm32f10x_tim.c ****   assert_param(IS_TIM_LIST3_PERIPH(TIMx));
1071:../Library/STM32F10x_StdPeriph_Driver/src/stm32f10x_tim.c ****   assert_param(IS_TIM_EXT_PRESCALER(TIM_ExtTRGPrescaler));
1072:../Library/STM32F10x_StdPeriph_Driver/src/stm32f10x_tim.c ****   assert_param(IS_TIM_EXT_POLARITY(TIM_ExtTRGPolarity));
1073:../Library/STM32F10x_StdPeriph_Driver/src/stm32f10x_tim.c ****   assert_param(IS_TIM_EXT_FILTER(ExtTRGFilter));
1074:../Library/STM32F10x_StdPeriph_Driver/src/stm32f10x_tim.c ****   /* Configure the ETR Clock source */
1075:../Library/STM32F10x_StdPeriph_Driver/src/stm32f10x_tim.c ****   TIM_ETRConfig(TIMx, TIM_ExtTRGPrescaler, TIM_ExtTRGPolarity, ExtTRGFilter);
1076:../Library/STM32F10x_StdPeriph_Driver/src/stm32f10x_tim.c ****   
1077:../Library/STM32F10x_StdPeriph_Driver/src/stm32f10x_tim.c ****   /* Get the TIMx SMCR register value */
1078:../Library/STM32F10x_StdPeriph_Driver/src/stm32f10x_tim.c ****   tmpsmcr = TIMx->SMCR;
1079:../Library/STM32F10x_StdPeriph_Driver/src/stm32f10x_tim.c ****   /* Reset the SMS Bits */
1080:../Library/STM32F10x_StdPeriph_Driver/src/stm32f10x_tim.c ****   tmpsmcr &= (uint16_t)(~((uint16_t)TIM_SMCR_SMS));
1081:../Library/STM32F10x_StdPeriph_Driver/src/stm32f10x_tim.c ****   /* Select the External clock mode1 */
1082:../Library/STM32F10x_StdPeriph_Driver/src/stm32f10x_tim.c ****   tmpsmcr |= TIM_SlaveMode_External1;
1083:../Library/STM32F10x_StdPeriph_Driver/src/stm32f10x_tim.c ****   /* Select the Trigger selection : ETRF */
1084:../Library/STM32F10x_StdPeriph_Driver/src/stm32f10x_tim.c ****   tmpsmcr &= (uint16_t)(~((uint16_t)TIM_SMCR_TS));
1085:../Library/STM32F10x_StdPeriph_Driver/src/stm32f10x_tim.c ****   tmpsmcr |= TIM_TS_ETRF;
1086:../Library/STM32F10x_StdPeriph_Driver/src/stm32f10x_tim.c ****   /* Write to TIMx SMCR */
1087:../Library/STM32F10x_StdPeriph_Driver/src/stm32f10x_tim.c ****   TIMx->SMCR = tmpsmcr;
1088:../Library/STM32F10x_StdPeriph_Driver/src/stm32f10x_tim.c **** }
1089:../Library/STM32F10x_StdPeriph_Driver/src/stm32f10x_tim.c **** 
1090:../Library/STM32F10x_StdPeriph_Driver/src/stm32f10x_tim.c **** /**
1091:../Library/STM32F10x_StdPeriph_Driver/src/stm32f10x_tim.c ****   * @brief  Configures the External clock Mode2
1092:../Library/STM32F10x_StdPeriph_Driver/src/stm32f10x_tim.c ****   * @param  TIMx: where x can be  1, 2, 3, 4, 5 or 8 to select the TIM peripheral.
1093:../Library/STM32F10x_StdPeriph_Driver/src/stm32f10x_tim.c ****   * @param  TIM_ExtTRGPrescaler: The external Trigger Prescaler.
1094:../Library/STM32F10x_StdPeriph_Driver/src/stm32f10x_tim.c ****   *   This parameter can be one of the following values:
1095:../Library/STM32F10x_StdPeriph_Driver/src/stm32f10x_tim.c ****   *     @arg TIM_ExtTRGPSC_OFF: ETRP Prescaler OFF.
1096:../Library/STM32F10x_StdPeriph_Driver/src/stm32f10x_tim.c ****   *     @arg TIM_ExtTRGPSC_DIV2: ETRP frequency divided by 2.
1097:../Library/STM32F10x_StdPeriph_Driver/src/stm32f10x_tim.c ****   *     @arg TIM_ExtTRGPSC_DIV4: ETRP frequency divided by 4.
1098:../Library/STM32F10x_StdPeriph_Driver/src/stm32f10x_tim.c ****   *     @arg TIM_ExtTRGPSC_DIV8: ETRP frequency divided by 8.
1099:../Library/STM32F10x_StdPeriph_Driver/src/stm32f10x_tim.c ****   * @param  TIM_ExtTRGPolarity: The external Trigger Polarity.
1100:../Library/STM32F10x_StdPeriph_Driver/src/stm32f10x_tim.c ****   *   This parameter can be one of the following values:
1101:../Library/STM32F10x_StdPeriph_Driver/src/stm32f10x_tim.c ****   *     @arg TIM_ExtTRGPolarity_Inverted: active low or falling edge active.
1102:../Library/STM32F10x_StdPeriph_Driver/src/stm32f10x_tim.c ****   *     @arg TIM_ExtTRGPolarity_NonInverted: active high or rising edge active.
1103:../Library/STM32F10x_StdPeriph_Driver/src/stm32f10x_tim.c ****   * @param  ExtTRGFilter: External Trigger Filter.
1104:../Library/STM32F10x_StdPeriph_Driver/src/stm32f10x_tim.c ****   *   This parameter must be a value between 0x00 and 0x0F
1105:../Library/STM32F10x_StdPeriph_Driver/src/stm32f10x_tim.c ****   * @retval None
1106:../Library/STM32F10x_StdPeriph_Driver/src/stm32f10x_tim.c ****   */
1107:../Library/STM32F10x_StdPeriph_Driver/src/stm32f10x_tim.c **** void TIM_ETRClockMode2Config(TIM_TypeDef* TIMx, uint16_t TIM_ExtTRGPrescaler, 
1108:../Library/STM32F10x_StdPeriph_Driver/src/stm32f10x_tim.c ****                              uint16_t TIM_ExtTRGPolarity, uint16_t ExtTRGFilter)
1109:../Library/STM32F10x_StdPeriph_Driver/src/stm32f10x_tim.c **** {
1110:../Library/STM32F10x_StdPeriph_Driver/src/stm32f10x_tim.c ****   /* Check the parameters */
1111:../Library/STM32F10x_StdPeriph_Driver/src/stm32f10x_tim.c ****   assert_param(IS_TIM_LIST3_PERIPH(TIMx));
1112:../Library/STM32F10x_StdPeriph_Driver/src/stm32f10x_tim.c ****   assert_param(IS_TIM_EXT_PRESCALER(TIM_ExtTRGPrescaler));
1113:../Library/STM32F10x_StdPeriph_Driver/src/stm32f10x_tim.c ****   assert_param(IS_TIM_EXT_POLARITY(TIM_ExtTRGPolarity));
1114:../Library/STM32F10x_StdPeriph_Driver/src/stm32f10x_tim.c ****   assert_param(IS_TIM_EXT_FILTER(ExtTRGFilter));
1115:../Library/STM32F10x_StdPeriph_Driver/src/stm32f10x_tim.c ****   /* Configure the ETR Clock source */
1116:../Library/STM32F10x_StdPeriph_Driver/src/stm32f10x_tim.c ****   TIM_ETRConfig(TIMx, TIM_ExtTRGPrescaler, TIM_ExtTRGPolarity, ExtTRGFilter);
1117:../Library/STM32F10x_StdPeriph_Driver/src/stm32f10x_tim.c ****   /* Enable the External clock mode2 */
1118:../Library/STM32F10x_StdPeriph_Driver/src/stm32f10x_tim.c ****   TIMx->SMCR |= TIM_SMCR_ECE;
1119:../Library/STM32F10x_StdPeriph_Driver/src/stm32f10x_tim.c **** }
1120:../Library/STM32F10x_StdPeriph_Driver/src/stm32f10x_tim.c **** 
1121:../Library/STM32F10x_StdPeriph_Driver/src/stm32f10x_tim.c **** /**
1122:../Library/STM32F10x_StdPeriph_Driver/src/stm32f10x_tim.c ****   * @brief  Configures the TIMx External Trigger (ETR).
1123:../Library/STM32F10x_StdPeriph_Driver/src/stm32f10x_tim.c ****   * @param  TIMx: where x can be  1, 2, 3, 4, 5 or 8 to select the TIM peripheral.
1124:../Library/STM32F10x_StdPeriph_Driver/src/stm32f10x_tim.c ****   * @param  TIM_ExtTRGPrescaler: The external Trigger Prescaler.
1125:../Library/STM32F10x_StdPeriph_Driver/src/stm32f10x_tim.c ****   *   This parameter can be one of the following values:
1126:../Library/STM32F10x_StdPeriph_Driver/src/stm32f10x_tim.c ****   *     @arg TIM_ExtTRGPSC_OFF: ETRP Prescaler OFF.
1127:../Library/STM32F10x_StdPeriph_Driver/src/stm32f10x_tim.c ****   *     @arg TIM_ExtTRGPSC_DIV2: ETRP frequency divided by 2.
1128:../Library/STM32F10x_StdPeriph_Driver/src/stm32f10x_tim.c ****   *     @arg TIM_ExtTRGPSC_DIV4: ETRP frequency divided by 4.
1129:../Library/STM32F10x_StdPeriph_Driver/src/stm32f10x_tim.c ****   *     @arg TIM_ExtTRGPSC_DIV8: ETRP frequency divided by 8.
1130:../Library/STM32F10x_StdPeriph_Driver/src/stm32f10x_tim.c ****   * @param  TIM_ExtTRGPolarity: The external Trigger Polarity.
1131:../Library/STM32F10x_StdPeriph_Driver/src/stm32f10x_tim.c ****   *   This parameter can be one of the following values:
1132:../Library/STM32F10x_StdPeriph_Driver/src/stm32f10x_tim.c ****   *     @arg TIM_ExtTRGPolarity_Inverted: active low or falling edge active.
1133:../Library/STM32F10x_StdPeriph_Driver/src/stm32f10x_tim.c ****   *     @arg TIM_ExtTRGPolarity_NonInverted: active high or rising edge active.
1134:../Library/STM32F10x_StdPeriph_Driver/src/stm32f10x_tim.c ****   * @param  ExtTRGFilter: External Trigger Filter.
1135:../Library/STM32F10x_StdPeriph_Driver/src/stm32f10x_tim.c ****   *   This parameter must be a value between 0x00 and 0x0F
1136:../Library/STM32F10x_StdPeriph_Driver/src/stm32f10x_tim.c ****   * @retval None
1137:../Library/STM32F10x_StdPeriph_Driver/src/stm32f10x_tim.c ****   */
1138:../Library/STM32F10x_StdPeriph_Driver/src/stm32f10x_tim.c **** void TIM_ETRConfig(TIM_TypeDef* TIMx, uint16_t TIM_ExtTRGPrescaler, uint16_t TIM_ExtTRGPolarity,
1139:../Library/STM32F10x_StdPeriph_Driver/src/stm32f10x_tim.c ****                    uint16_t ExtTRGFilter)
1140:../Library/STM32F10x_StdPeriph_Driver/src/stm32f10x_tim.c **** {
 19304              		.loc 1 1140 0
 19305              		.cfi_startproc
 19306              		@ args = 0, pretend = 0, frame = 0
 19307              		@ frame_needed = 0, uses_anonymous_args = 0
 19308              		@ link register save eliminated.
 19309              	.LVL136:
1141:../Library/STM32F10x_StdPeriph_Driver/src/stm32f10x_tim.c ****   uint16_t tmpsmcr = 0;
1142:../Library/STM32F10x_StdPeriph_Driver/src/stm32f10x_tim.c ****   /* Check the parameters */
1143:../Library/STM32F10x_StdPeriph_Driver/src/stm32f10x_tim.c ****   assert_param(IS_TIM_LIST3_PERIPH(TIMx));
1144:../Library/STM32F10x_StdPeriph_Driver/src/stm32f10x_tim.c ****   assert_param(IS_TIM_EXT_PRESCALER(TIM_ExtTRGPrescaler));
1145:../Library/STM32F10x_StdPeriph_Driver/src/stm32f10x_tim.c ****   assert_param(IS_TIM_EXT_POLARITY(TIM_ExtTRGPolarity));
1146:../Library/STM32F10x_StdPeriph_Driver/src/stm32f10x_tim.c ****   assert_param(IS_TIM_EXT_FILTER(ExtTRGFilter));
1147:../Library/STM32F10x_StdPeriph_Driver/src/stm32f10x_tim.c ****   tmpsmcr = TIMx->SMCR;
 19310              		.loc 1 1147 0
 19311 0000 B0F808C0 		ldrh	ip, [r0, #8]
1148:../Library/STM32F10x_StdPeriph_Driver/src/stm32f10x_tim.c ****   /* Reset the ETR Bits */
1149:../Library/STM32F10x_StdPeriph_Driver/src/stm32f10x_tim.c ****   tmpsmcr &= SMCR_ETR_Mask;
1150:../Library/STM32F10x_StdPeriph_Driver/src/stm32f10x_tim.c ****   /* Set the Prescaler, the Filter value and the Polarity */
1151:../Library/STM32F10x_StdPeriph_Driver/src/stm32f10x_tim.c ****   tmpsmcr |= (uint16_t)(TIM_ExtTRGPrescaler | (uint16_t)(TIM_ExtTRGPolarity | (uint16_t)(ExtTRGFilt
 19312              		.loc 1 1151 0
 19313 0004 5FFA8CFC 		uxtb	ip, ip
 19314 0008 41EA0C0C 		orr	ip, r1, ip
 19315 000c 4CEA020C 		orr	ip, ip, r2
 19316 0010 4CEA032C 		orr	ip, ip, r3, lsl #8
 19317 0014 1FFA8CFC 		uxth	ip, ip
 19318              	.LVL137:
1152:../Library/STM32F10x_StdPeriph_Driver/src/stm32f10x_tim.c ****   /* Write to TIMx SMCR */
1153:../Library/STM32F10x_StdPeriph_Driver/src/stm32f10x_tim.c ****   TIMx->SMCR = tmpsmcr;
 19319              		.loc 1 1153 0
 19320 0018 A0F808C0 		strh	ip, [r0, #8]	@ movhi
1154:../Library/STM32F10x_StdPeriph_Driver/src/stm32f10x_tim.c **** }
 19321              		.loc 1 1154 0
 19322 001c 7047     		bx	lr
 19323              		.cfi_endproc
 19324              	.LFE53:
 19326 001e 00BF     		.section	.text.TIM_ETRClockMode2Config,"ax",%progbits
 19327              		.align	2
 19328              		.global	TIM_ETRClockMode2Config
 19329              		.thumb
 19330              		.thumb_func
 19332              	TIM_ETRClockMode2Config:
 19333              	.LFB52:
 19334              		.loc 1 1109 0
 19335              		.cfi_startproc
 19336              		@ args = 0, pretend = 0, frame = 0
 19337              		@ frame_needed = 0, uses_anonymous_args = 0
 19338              	.LVL138:
 19339 0000 10B5     		push	{r4, lr}
 19340              	.LCFI5:
 19341              		.cfi_def_cfa_offset 8
 19342 0002 0446     		mov	r4, r0
 19343              		.cfi_offset 14, -4
 19344              		.cfi_offset 4, -8
 19345              		.loc 1 1116 0
 19346 0004 FFF7FEFF 		bl	TIM_ETRConfig
 19347              	.LVL139:
 19348              		.loc 1 1118 0
 19349 0008 2389     		ldrh	r3, [r4, #8]
 19350 000a 9BB2     		uxth	r3, r3
 19351 000c 43F48043 		orr	r3, r3, #16384
 19352 0010 2381     		strh	r3, [r4, #8]	@ movhi
 19353              		.loc 1 1119 0
 19354 0012 10BD     		pop	{r4, pc}
 19355              		.cfi_endproc
 19356              	.LFE52:
 19358              		.section	.text.TIM_ETRClockMode1Config,"ax",%progbits
 19359              		.align	2
 19360              		.global	TIM_ETRClockMode1Config
 19361              		.thumb
 19362              		.thumb_func
 19364              	TIM_ETRClockMode1Config:
 19365              	.LFB51:
 19366              		.loc 1 1067 0
 19367              		.cfi_startproc
 19368              		@ args = 0, pretend = 0, frame = 0
 19369              		@ frame_needed = 0, uses_anonymous_args = 0
 19370              	.LVL140:
 19371 0000 10B5     		push	{r4, lr}
 19372              	.LCFI6:
 19373              		.cfi_def_cfa_offset 8
 19374 0002 0446     		mov	r4, r0
 19375              		.cfi_offset 14, -4
 19376              		.cfi_offset 4, -8
 19377              		.loc 1 1075 0
 19378 0004 FFF7FEFF 		bl	TIM_ETRConfig
 19379              	.LVL141:
 19380              		.loc 1 1078 0
 19381 0008 2389     		ldrh	r3, [r4, #8]
 19382              		.loc 1 1082 0
 19383 000a 23F07703 		bic	r3, r3, #119
 19384              	.LVL142:
 19385 000e 4FEA0343 		lsl	r3, r3, #16
 19386              	.LVL143:
 19387 0012 4FEA1343 		lsr	r3, r3, #16
 19388              	.LVL144:
 19389              		.loc 1 1085 0
 19390 0016 43F07703 		orr	r3, r3, #119
 19391              	.LVL145:
 19392              		.loc 1 1087 0
 19393 001a 2381     		strh	r3, [r4, #8]	@ movhi
 19394              		.loc 1 1088 0
 19395 001c 10BD     		pop	{r4, pc}
 19396              		.cfi_endproc
 19397              	.LFE51:
 19399 001e 00BF     		.section	.text.TIM_PrescalerConfig,"ax",%progbits
 19400              		.align	2
 19401              		.global	TIM_PrescalerConfig
 19402              		.thumb
 19403              		.thumb_func
 19405              	TIM_PrescalerConfig:
 19406              	.LFB54:
1155:../Library/STM32F10x_StdPeriph_Driver/src/stm32f10x_tim.c **** 
1156:../Library/STM32F10x_StdPeriph_Driver/src/stm32f10x_tim.c **** /**
1157:../Library/STM32F10x_StdPeriph_Driver/src/stm32f10x_tim.c ****   * @brief  Configures the TIMx Prescaler.
1158:../Library/STM32F10x_StdPeriph_Driver/src/stm32f10x_tim.c ****   * @param  TIMx: where x can be 1 to 17 to select the TIM peripheral.
1159:../Library/STM32F10x_StdPeriph_Driver/src/stm32f10x_tim.c ****   * @param  Prescaler: specifies the Prescaler Register value
1160:../Library/STM32F10x_StdPeriph_Driver/src/stm32f10x_tim.c ****   * @param  TIM_PSCReloadMode: specifies the TIM Prescaler Reload mode
1161:../Library/STM32F10x_StdPeriph_Driver/src/stm32f10x_tim.c ****   *   This parameter can be one of the following values:
1162:../Library/STM32F10x_StdPeriph_Driver/src/stm32f10x_tim.c ****   *     @arg TIM_PSCReloadMode_Update: The Prescaler is loaded at the update event.
1163:../Library/STM32F10x_StdPeriph_Driver/src/stm32f10x_tim.c ****   *     @arg TIM_PSCReloadMode_Immediate: The Prescaler is loaded immediately.
1164:../Library/STM32F10x_StdPeriph_Driver/src/stm32f10x_tim.c ****   * @retval None
1165:../Library/STM32F10x_StdPeriph_Driver/src/stm32f10x_tim.c ****   */
1166:../Library/STM32F10x_StdPeriph_Driver/src/stm32f10x_tim.c **** void TIM_PrescalerConfig(TIM_TypeDef* TIMx, uint16_t Prescaler, uint16_t TIM_PSCReloadMode)
1167:../Library/STM32F10x_StdPeriph_Driver/src/stm32f10x_tim.c **** {
 19407              		.loc 1 1167 0
 19408              		.cfi_startproc
 19409              		@ args = 0, pretend = 0, frame = 0
 19410              		@ frame_needed = 0, uses_anonymous_args = 0
 19411              		@ link register save eliminated.
 19412              	.LVL146:
1168:../Library/STM32F10x_StdPeriph_Driver/src/stm32f10x_tim.c ****   /* Check the parameters */
1169:../Library/STM32F10x_StdPeriph_Driver/src/stm32f10x_tim.c ****   assert_param(IS_TIM_ALL_PERIPH(TIMx));
1170:../Library/STM32F10x_StdPeriph_Driver/src/stm32f10x_tim.c ****   assert_param(IS_TIM_PRESCALER_RELOAD(TIM_PSCReloadMode));
1171:../Library/STM32F10x_StdPeriph_Driver/src/stm32f10x_tim.c ****   /* Set the Prescaler value */
1172:../Library/STM32F10x_StdPeriph_Driver/src/stm32f10x_tim.c ****   TIMx->PSC = Prescaler;
 19413              		.loc 1 1172 0
 19414 0000 0185     		strh	r1, [r0, #40]	@ movhi
1173:../Library/STM32F10x_StdPeriph_Driver/src/stm32f10x_tim.c ****   /* Set or reset the UG Bit */
1174:../Library/STM32F10x_StdPeriph_Driver/src/stm32f10x_tim.c ****   TIMx->EGR = TIM_PSCReloadMode;
 19415              		.loc 1 1174 0
 19416 0002 8282     		strh	r2, [r0, #20]	@ movhi
1175:../Library/STM32F10x_StdPeriph_Driver/src/stm32f10x_tim.c **** }
 19417              		.loc 1 1175 0
 19418 0004 7047     		bx	lr
 19419              		.cfi_endproc
 19420              	.LFE54:
 19422              		.section	.text.TIM_CounterModeConfig,"ax",%progbits
 19423              		.align	2
 19424              		.global	TIM_CounterModeConfig
 19425              		.thumb
 19426              		.thumb_func
 19428              	TIM_CounterModeConfig:
 19429              	.LFB55:
1176:../Library/STM32F10x_StdPeriph_Driver/src/stm32f10x_tim.c **** 
1177:../Library/STM32F10x_StdPeriph_Driver/src/stm32f10x_tim.c **** /**
1178:../Library/STM32F10x_StdPeriph_Driver/src/stm32f10x_tim.c ****   * @brief  Specifies the TIMx Counter Mode to be used.
1179:../Library/STM32F10x_StdPeriph_Driver/src/stm32f10x_tim.c ****   * @param  TIMx: where x can be  1, 2, 3, 4, 5 or 8 to select the TIM peripheral.
1180:../Library/STM32F10x_StdPeriph_Driver/src/stm32f10x_tim.c ****   * @param  TIM_CounterMode: specifies the Counter Mode to be used
1181:../Library/STM32F10x_StdPeriph_Driver/src/stm32f10x_tim.c ****   *   This parameter can be one of the following values:
1182:../Library/STM32F10x_StdPeriph_Driver/src/stm32f10x_tim.c ****   *     @arg TIM_CounterMode_Up: TIM Up Counting Mode
1183:../Library/STM32F10x_StdPeriph_Driver/src/stm32f10x_tim.c ****   *     @arg TIM_CounterMode_Down: TIM Down Counting Mode
1184:../Library/STM32F10x_StdPeriph_Driver/src/stm32f10x_tim.c ****   *     @arg TIM_CounterMode_CenterAligned1: TIM Center Aligned Mode1
1185:../Library/STM32F10x_StdPeriph_Driver/src/stm32f10x_tim.c ****   *     @arg TIM_CounterMode_CenterAligned2: TIM Center Aligned Mode2
1186:../Library/STM32F10x_StdPeriph_Driver/src/stm32f10x_tim.c ****   *     @arg TIM_CounterMode_CenterAligned3: TIM Center Aligned Mode3
1187:../Library/STM32F10x_StdPeriph_Driver/src/stm32f10x_tim.c ****   * @retval None
1188:../Library/STM32F10x_StdPeriph_Driver/src/stm32f10x_tim.c ****   */
1189:../Library/STM32F10x_StdPeriph_Driver/src/stm32f10x_tim.c **** void TIM_CounterModeConfig(TIM_TypeDef* TIMx, uint16_t TIM_CounterMode)
1190:../Library/STM32F10x_StdPeriph_Driver/src/stm32f10x_tim.c **** {
 19430              		.loc 1 1190 0
 19431              		.cfi_startproc
 19432              		@ args = 0, pretend = 0, frame = 0
 19433              		@ frame_needed = 0, uses_anonymous_args = 0
 19434              		@ link register save eliminated.
 19435              	.LVL147:
1191:../Library/STM32F10x_StdPeriph_Driver/src/stm32f10x_tim.c ****   uint16_t tmpcr1 = 0;
1192:../Library/STM32F10x_StdPeriph_Driver/src/stm32f10x_tim.c ****   /* Check the parameters */
1193:../Library/STM32F10x_StdPeriph_Driver/src/stm32f10x_tim.c ****   assert_param(IS_TIM_LIST3_PERIPH(TIMx));
1194:../Library/STM32F10x_StdPeriph_Driver/src/stm32f10x_tim.c ****   assert_param(IS_TIM_COUNTER_MODE(TIM_CounterMode));
1195:../Library/STM32F10x_StdPeriph_Driver/src/stm32f10x_tim.c ****   tmpcr1 = TIMx->CR1;
 19436              		.loc 1 1195 0
 19437 0000 0388     		ldrh	r3, [r0, #0]
1196:../Library/STM32F10x_StdPeriph_Driver/src/stm32f10x_tim.c ****   /* Reset the CMS and DIR Bits */
1197:../Library/STM32F10x_StdPeriph_Driver/src/stm32f10x_tim.c ****   tmpcr1 &= (uint16_t)(~((uint16_t)(TIM_CR1_DIR | TIM_CR1_CMS)));
 19438              		.loc 1 1197 0
 19439 0002 23F07003 		bic	r3, r3, #112
 19440              	.LVL148:
 19441 0006 4FEA0343 		lsl	r3, r3, #16
 19442              	.LVL149:
 19443 000a 4FEA1343 		lsr	r3, r3, #16
 19444              	.LVL150:
1198:../Library/STM32F10x_StdPeriph_Driver/src/stm32f10x_tim.c ****   /* Set the Counter Mode */
1199:../Library/STM32F10x_StdPeriph_Driver/src/stm32f10x_tim.c ****   tmpcr1 |= TIM_CounterMode;
 19445              		.loc 1 1199 0
 19446 000e 41EA0303 		orr	r3, r1, r3
 19447              	.LVL151:
1200:../Library/STM32F10x_StdPeriph_Driver/src/stm32f10x_tim.c ****   /* Write to TIMx CR1 register */
1201:../Library/STM32F10x_StdPeriph_Driver/src/stm32f10x_tim.c ****   TIMx->CR1 = tmpcr1;
 19448              		.loc 1 1201 0
 19449 0012 0380     		strh	r3, [r0, #0]	@ movhi
1202:../Library/STM32F10x_StdPeriph_Driver/src/stm32f10x_tim.c **** }
 19450              		.loc 1 1202 0
 19451 0014 7047     		bx	lr
 19452              		.cfi_endproc
 19453              	.LFE55:
 19455 0016 00BF     		.section	.text.TIM_SelectInputTrigger,"ax",%progbits
 19456              		.align	2
 19457              		.global	TIM_SelectInputTrigger
 19458              		.thumb
 19459              		.thumb_func
 19461              	TIM_SelectInputTrigger:
 19462              	.LFB56:
1203:../Library/STM32F10x_StdPeriph_Driver/src/stm32f10x_tim.c **** 
1204:../Library/STM32F10x_StdPeriph_Driver/src/stm32f10x_tim.c **** /**
1205:../Library/STM32F10x_StdPeriph_Driver/src/stm32f10x_tim.c ****   * @brief  Selects the Input Trigger source
1206:../Library/STM32F10x_StdPeriph_Driver/src/stm32f10x_tim.c ****   * @param  TIMx: where x can be  1, 2, 3, 4, 5, 8, 9, 12 or 15 to select the TIM peripheral.
1207:../Library/STM32F10x_StdPeriph_Driver/src/stm32f10x_tim.c ****   * @param  TIM_InputTriggerSource: The Input Trigger source.
1208:../Library/STM32F10x_StdPeriph_Driver/src/stm32f10x_tim.c ****   *   This parameter can be one of the following values:
1209:../Library/STM32F10x_StdPeriph_Driver/src/stm32f10x_tim.c ****   *     @arg TIM_TS_ITR0: Internal Trigger 0
1210:../Library/STM32F10x_StdPeriph_Driver/src/stm32f10x_tim.c ****   *     @arg TIM_TS_ITR1: Internal Trigger 1
1211:../Library/STM32F10x_StdPeriph_Driver/src/stm32f10x_tim.c ****   *     @arg TIM_TS_ITR2: Internal Trigger 2
1212:../Library/STM32F10x_StdPeriph_Driver/src/stm32f10x_tim.c ****   *     @arg TIM_TS_ITR3: Internal Trigger 3
1213:../Library/STM32F10x_StdPeriph_Driver/src/stm32f10x_tim.c ****   *     @arg TIM_TS_TI1F_ED: TI1 Edge Detector
1214:../Library/STM32F10x_StdPeriph_Driver/src/stm32f10x_tim.c ****   *     @arg TIM_TS_TI1FP1: Filtered Timer Input 1
1215:../Library/STM32F10x_StdPeriph_Driver/src/stm32f10x_tim.c ****   *     @arg TIM_TS_TI2FP2: Filtered Timer Input 2
1216:../Library/STM32F10x_StdPeriph_Driver/src/stm32f10x_tim.c ****   *     @arg TIM_TS_ETRF: External Trigger input
1217:../Library/STM32F10x_StdPeriph_Driver/src/stm32f10x_tim.c ****   * @retval None
1218:../Library/STM32F10x_StdPeriph_Driver/src/stm32f10x_tim.c ****   */
1219:../Library/STM32F10x_StdPeriph_Driver/src/stm32f10x_tim.c **** void TIM_SelectInputTrigger(TIM_TypeDef* TIMx, uint16_t TIM_InputTriggerSource)
1220:../Library/STM32F10x_StdPeriph_Driver/src/stm32f10x_tim.c **** {
 19463              		.loc 1 1220 0
 19464              		.cfi_startproc
 19465              		@ args = 0, pretend = 0, frame = 0
 19466              		@ frame_needed = 0, uses_anonymous_args = 0
 19467              		@ link register save eliminated.
 19468              	.LVL152:
1221:../Library/STM32F10x_StdPeriph_Driver/src/stm32f10x_tim.c ****   uint16_t tmpsmcr = 0;
1222:../Library/STM32F10x_StdPeriph_Driver/src/stm32f10x_tim.c ****   /* Check the parameters */
1223:../Library/STM32F10x_StdPeriph_Driver/src/stm32f10x_tim.c ****   assert_param(IS_TIM_LIST6_PERIPH(TIMx));
1224:../Library/STM32F10x_StdPeriph_Driver/src/stm32f10x_tim.c ****   assert_param(IS_TIM_TRIGGER_SELECTION(TIM_InputTriggerSource));
1225:../Library/STM32F10x_StdPeriph_Driver/src/stm32f10x_tim.c ****   /* Get the TIMx SMCR register value */
1226:../Library/STM32F10x_StdPeriph_Driver/src/stm32f10x_tim.c ****   tmpsmcr = TIMx->SMCR;
 19469              		.loc 1 1226 0
 19470 0000 0389     		ldrh	r3, [r0, #8]
1227:../Library/STM32F10x_StdPeriph_Driver/src/stm32f10x_tim.c ****   /* Reset the TS Bits */
1228:../Library/STM32F10x_StdPeriph_Driver/src/stm32f10x_tim.c ****   tmpsmcr &= (uint16_t)(~((uint16_t)TIM_SMCR_TS));
 19471              		.loc 1 1228 0
 19472 0002 23F07003 		bic	r3, r3, #112
 19473              	.LVL153:
 19474 0006 4FEA0343 		lsl	r3, r3, #16
 19475              	.LVL154:
 19476 000a 4FEA1343 		lsr	r3, r3, #16
 19477              	.LVL155:
1229:../Library/STM32F10x_StdPeriph_Driver/src/stm32f10x_tim.c ****   /* Set the Input Trigger source */
1230:../Library/STM32F10x_StdPeriph_Driver/src/stm32f10x_tim.c ****   tmpsmcr |= TIM_InputTriggerSource;
 19478              		.loc 1 1230 0
 19479 000e 41EA0303 		orr	r3, r1, r3
 19480              	.LVL156:
1231:../Library/STM32F10x_StdPeriph_Driver/src/stm32f10x_tim.c ****   /* Write to TIMx SMCR */
1232:../Library/STM32F10x_StdPeriph_Driver/src/stm32f10x_tim.c ****   TIMx->SMCR = tmpsmcr;
 19481              		.loc 1 1232 0
 19482 0012 0381     		strh	r3, [r0, #8]	@ movhi
1233:../Library/STM32F10x_StdPeriph_Driver/src/stm32f10x_tim.c **** }
 19483              		.loc 1 1233 0
 19484 0014 7047     		bx	lr
 19485              		.cfi_endproc
 19486              	.LFE56:
 19488 0016 00BF     		.section	.text.TIM_ITRxExternalClockConfig,"ax",%progbits
 19489              		.align	2
 19490              		.global	TIM_ITRxExternalClockConfig
 19491              		.thumb
 19492              		.thumb_func
 19494              	TIM_ITRxExternalClockConfig:
 19495              	.LFB49:
 19496              		.loc 1 999 0
 19497              		.cfi_startproc
 19498              		@ args = 0, pretend = 0, frame = 0
 19499              		@ frame_needed = 0, uses_anonymous_args = 0
 19500              	.LVL157:
 19501 0000 10B5     		push	{r4, lr}
 19502              	.LCFI7:
 19503              		.cfi_def_cfa_offset 8
 19504 0002 0446     		mov	r4, r0
 19505              		.cfi_offset 14, -4
 19506              		.cfi_offset 4, -8
 19507              		.loc 1 1004 0
 19508 0004 FFF7FEFF 		bl	TIM_SelectInputTrigger
 19509              	.LVL158:
 19510              		.loc 1 1006 0
 19511 0008 2389     		ldrh	r3, [r4, #8]
 19512 000a 9BB2     		uxth	r3, r3
 19513 000c 43F00703 		orr	r3, r3, #7
 19514 0010 2381     		strh	r3, [r4, #8]	@ movhi
 19515              		.loc 1 1007 0
 19516 0012 10BD     		pop	{r4, pc}
 19517              		.cfi_endproc
 19518              	.LFE49:
 19520              		.section	.text.TIM_EncoderInterfaceConfig,"ax",%progbits
 19521              		.align	2
 19522              		.global	TIM_EncoderInterfaceConfig
 19523              		.thumb
 19524              		.thumb_func
 19526              	TIM_EncoderInterfaceConfig:
 19527              	.LFB57:
1234:../Library/STM32F10x_StdPeriph_Driver/src/stm32f10x_tim.c **** 
1235:../Library/STM32F10x_StdPeriph_Driver/src/stm32f10x_tim.c **** /**
1236:../Library/STM32F10x_StdPeriph_Driver/src/stm32f10x_tim.c ****   * @brief  Configures the TIMx Encoder Interface.
1237:../Library/STM32F10x_StdPeriph_Driver/src/stm32f10x_tim.c ****   * @param  TIMx: where x can be  1, 2, 3, 4, 5 or 8 to select the TIM peripheral.
1238:../Library/STM32F10x_StdPeriph_Driver/src/stm32f10x_tim.c ****   * @param  TIM_EncoderMode: specifies the TIMx Encoder Mode.
1239:../Library/STM32F10x_StdPeriph_Driver/src/stm32f10x_tim.c ****   *   This parameter can be one of the following values:
1240:../Library/STM32F10x_StdPeriph_Driver/src/stm32f10x_tim.c ****   *     @arg TIM_EncoderMode_TI1: Counter counts on TI1FP1 edge depending on TI2FP2 level.
1241:../Library/STM32F10x_StdPeriph_Driver/src/stm32f10x_tim.c ****   *     @arg TIM_EncoderMode_TI2: Counter counts on TI2FP2 edge depending on TI1FP1 level.
1242:../Library/STM32F10x_StdPeriph_Driver/src/stm32f10x_tim.c ****   *     @arg TIM_EncoderMode_TI12: Counter counts on both TI1FP1 and TI2FP2 edges depending
1243:../Library/STM32F10x_StdPeriph_Driver/src/stm32f10x_tim.c ****   *                                on the level of the other input.
1244:../Library/STM32F10x_StdPeriph_Driver/src/stm32f10x_tim.c ****   * @param  TIM_IC1Polarity: specifies the IC1 Polarity
1245:../Library/STM32F10x_StdPeriph_Driver/src/stm32f10x_tim.c ****   *   This parmeter can be one of the following values:
1246:../Library/STM32F10x_StdPeriph_Driver/src/stm32f10x_tim.c ****   *     @arg TIM_ICPolarity_Falling: IC Falling edge.
1247:../Library/STM32F10x_StdPeriph_Driver/src/stm32f10x_tim.c ****   *     @arg TIM_ICPolarity_Rising: IC Rising edge.
1248:../Library/STM32F10x_StdPeriph_Driver/src/stm32f10x_tim.c ****   * @param  TIM_IC2Polarity: specifies the IC2 Polarity
1249:../Library/STM32F10x_StdPeriph_Driver/src/stm32f10x_tim.c ****   *   This parmeter can be one of the following values:
1250:../Library/STM32F10x_StdPeriph_Driver/src/stm32f10x_tim.c ****   *     @arg TIM_ICPolarity_Falling: IC Falling edge.
1251:../Library/STM32F10x_StdPeriph_Driver/src/stm32f10x_tim.c ****   *     @arg TIM_ICPolarity_Rising: IC Rising edge.
1252:../Library/STM32F10x_StdPeriph_Driver/src/stm32f10x_tim.c ****   * @retval None
1253:../Library/STM32F10x_StdPeriph_Driver/src/stm32f10x_tim.c ****   */
1254:../Library/STM32F10x_StdPeriph_Driver/src/stm32f10x_tim.c **** void TIM_EncoderInterfaceConfig(TIM_TypeDef* TIMx, uint16_t TIM_EncoderMode,
1255:../Library/STM32F10x_StdPeriph_Driver/src/stm32f10x_tim.c ****                                 uint16_t TIM_IC1Polarity, uint16_t TIM_IC2Polarity)
1256:../Library/STM32F10x_StdPeriph_Driver/src/stm32f10x_tim.c **** {
 19528              		.loc 1 1256 0
 19529              		.cfi_startproc
 19530              		@ args = 0, pretend = 0, frame = 0
 19531              		@ frame_needed = 0, uses_anonymous_args = 0
 19532              		@ link register save eliminated.
 19533              	.LVL159:
 19534 0000 30B4     		push	{r4, r5}
 19535              	.LCFI8:
 19536              		.cfi_def_cfa_offset 8
1257:../Library/STM32F10x_StdPeriph_Driver/src/stm32f10x_tim.c ****   uint16_t tmpsmcr = 0;
1258:../Library/STM32F10x_StdPeriph_Driver/src/stm32f10x_tim.c ****   uint16_t tmpccmr1 = 0;
1259:../Library/STM32F10x_StdPeriph_Driver/src/stm32f10x_tim.c ****   uint16_t tmpccer = 0;
1260:../Library/STM32F10x_StdPeriph_Driver/src/stm32f10x_tim.c ****     
1261:../Library/STM32F10x_StdPeriph_Driver/src/stm32f10x_tim.c ****   /* Check the parameters */
1262:../Library/STM32F10x_StdPeriph_Driver/src/stm32f10x_tim.c ****   assert_param(IS_TIM_LIST5_PERIPH(TIMx));
1263:../Library/STM32F10x_StdPeriph_Driver/src/stm32f10x_tim.c ****   assert_param(IS_TIM_ENCODER_MODE(TIM_EncoderMode));
1264:../Library/STM32F10x_StdPeriph_Driver/src/stm32f10x_tim.c ****   assert_param(IS_TIM_IC_POLARITY(TIM_IC1Polarity));
1265:../Library/STM32F10x_StdPeriph_Driver/src/stm32f10x_tim.c ****   assert_param(IS_TIM_IC_POLARITY(TIM_IC2Polarity));
1266:../Library/STM32F10x_StdPeriph_Driver/src/stm32f10x_tim.c **** 
1267:../Library/STM32F10x_StdPeriph_Driver/src/stm32f10x_tim.c ****   /* Get the TIMx SMCR register value */
1268:../Library/STM32F10x_StdPeriph_Driver/src/stm32f10x_tim.c ****   tmpsmcr = TIMx->SMCR;
 19537              		.loc 1 1268 0
 19538 0002 B0F808C0 		ldrh	ip, [r0, #8]
1269:../Library/STM32F10x_StdPeriph_Driver/src/stm32f10x_tim.c ****   
1270:../Library/STM32F10x_StdPeriph_Driver/src/stm32f10x_tim.c ****   /* Get the TIMx CCMR1 register value */
1271:../Library/STM32F10x_StdPeriph_Driver/src/stm32f10x_tim.c ****   tmpccmr1 = TIMx->CCMR1;
 19539              		.loc 1 1271 0
 19540 0006 058B     		ldrh	r5, [r0, #24]
 19541              		.cfi_offset 5, -4
 19542              		.cfi_offset 4, -8
1272:../Library/STM32F10x_StdPeriph_Driver/src/stm32f10x_tim.c ****   
1273:../Library/STM32F10x_StdPeriph_Driver/src/stm32f10x_tim.c ****   /* Get the TIMx CCER register value */
1274:../Library/STM32F10x_StdPeriph_Driver/src/stm32f10x_tim.c ****   tmpccer = TIMx->CCER;
 19543              		.loc 1 1274 0
 19544 0008 048C     		ldrh	r4, [r0, #32]
1275:../Library/STM32F10x_StdPeriph_Driver/src/stm32f10x_tim.c ****   
1276:../Library/STM32F10x_StdPeriph_Driver/src/stm32f10x_tim.c ****   /* Set the encoder Mode */
1277:../Library/STM32F10x_StdPeriph_Driver/src/stm32f10x_tim.c ****   tmpsmcr &= (uint16_t)(~((uint16_t)TIM_SMCR_SMS));
 19545              		.loc 1 1277 0
 19546 000a 2CF0070C 		bic	ip, ip, #7
 19547              	.LVL160:
 19548 000e 4FEA0C4C 		lsl	ip, ip, #16
 19549              	.LVL161:
 19550 0012 4FEA1C4C 		lsr	ip, ip, #16
 19551              	.LVL162:
1278:../Library/STM32F10x_StdPeriph_Driver/src/stm32f10x_tim.c ****   tmpsmcr |= TIM_EncoderMode;
 19552              		.loc 1 1278 0
 19553 0016 41EA0C01 		orr	r1, r1, ip
 19554              	.LVL163:
1279:../Library/STM32F10x_StdPeriph_Driver/src/stm32f10x_tim.c ****   
1280:../Library/STM32F10x_StdPeriph_Driver/src/stm32f10x_tim.c ****   /* Select the Capture Compare 1 and the Capture Compare 2 as input */
1281:../Library/STM32F10x_StdPeriph_Driver/src/stm32f10x_tim.c ****   tmpccmr1 &= (uint16_t)(((uint16_t)~((uint16_t)TIM_CCMR1_CC1S)) & (uint16_t)(~((uint16_t)TIM_CCMR1
 19555              		.loc 1 1281 0
 19556 001a 25F44075 		bic	r5, r5, #768
 19557              	.LVL164:
 19558 001e 25F00305 		bic	r5, r5, #3
 19559              	.LVL165:
 19560 0022 4FEA0545 		lsl	r5, r5, #16
 19561              	.LVL166:
 19562 0026 4FEA1545 		lsr	r5, r5, #16
 19563              	.LVL167:
1282:../Library/STM32F10x_StdPeriph_Driver/src/stm32f10x_tim.c ****   tmpccmr1 |= TIM_CCMR1_CC1S_0 | TIM_CCMR1_CC2S_0;
 19564              		.loc 1 1282 0
 19565 002a 45F48075 		orr	r5, r5, #256
 19566              	.LVL168:
 19567 002e 45F00105 		orr	r5, r5, #1
 19568              	.LVL169:
1283:../Library/STM32F10x_StdPeriph_Driver/src/stm32f10x_tim.c ****   
1284:../Library/STM32F10x_StdPeriph_Driver/src/stm32f10x_tim.c ****   /* Set the TI1 and the TI2 Polarities */
1285:../Library/STM32F10x_StdPeriph_Driver/src/stm32f10x_tim.c ****   tmpccer &= (uint16_t)(((uint16_t)~((uint16_t)TIM_CCER_CC1P)) & ((uint16_t)~((uint16_t)TIM_CCER_CC
1286:../Library/STM32F10x_StdPeriph_Driver/src/stm32f10x_tim.c ****   tmpccer |= (uint16_t)(TIM_IC1Polarity | (uint16_t)(TIM_IC2Polarity << (uint16_t)4));
 19569              		.loc 1 1286 0
 19570 0032 24F02204 		bic	r4, r4, #34
 19571 0036 4FEA0444 		lsl	r4, r4, #16
 19572 003a 4FEA1444 		lsr	r4, r4, #16
 19573 003e 44EA0204 		orr	r4, r4, r2
 19574 0042 44EA0314 		orr	r4, r4, r3, lsl #4
 19575 0046 A4B2     		uxth	r4, r4
 19576              	.LVL170:
1287:../Library/STM32F10x_StdPeriph_Driver/src/stm32f10x_tim.c ****   
1288:../Library/STM32F10x_StdPeriph_Driver/src/stm32f10x_tim.c ****   /* Write to TIMx SMCR */
1289:../Library/STM32F10x_StdPeriph_Driver/src/stm32f10x_tim.c ****   TIMx->SMCR = tmpsmcr;
 19577              		.loc 1 1289 0
 19578 0048 0181     		strh	r1, [r0, #8]	@ movhi
1290:../Library/STM32F10x_StdPeriph_Driver/src/stm32f10x_tim.c ****   /* Write to TIMx CCMR1 */
1291:../Library/STM32F10x_StdPeriph_Driver/src/stm32f10x_tim.c ****   TIMx->CCMR1 = tmpccmr1;
 19579              		.loc 1 1291 0
 19580 004a 0583     		strh	r5, [r0, #24]	@ movhi
1292:../Library/STM32F10x_StdPeriph_Driver/src/stm32f10x_tim.c ****   /* Write to TIMx CCER */
1293:../Library/STM32F10x_StdPeriph_Driver/src/stm32f10x_tim.c ****   TIMx->CCER = tmpccer;
 19581              		.loc 1 1293 0
 19582 004c 0484     		strh	r4, [r0, #32]	@ movhi
1294:../Library/STM32F10x_StdPeriph_Driver/src/stm32f10x_tim.c **** }
 19583              		.loc 1 1294 0
 19584 004e 30BC     		pop	{r4, r5}
 19585 0050 7047     		bx	lr
 19586              		.cfi_endproc
 19587              	.LFE57:
 19589 0052 00BF     		.section	.text.TIM_ForcedOC1Config,"ax",%progbits
 19590              		.align	2
 19591              		.global	TIM_ForcedOC1Config
 19592              		.thumb
 19593              		.thumb_func
 19595              	TIM_ForcedOC1Config:
 19596              	.LFB58:
1295:../Library/STM32F10x_StdPeriph_Driver/src/stm32f10x_tim.c **** 
1296:../Library/STM32F10x_StdPeriph_Driver/src/stm32f10x_tim.c **** /**
1297:../Library/STM32F10x_StdPeriph_Driver/src/stm32f10x_tim.c ****   * @brief  Forces the TIMx output 1 waveform to active or inactive level.
1298:../Library/STM32F10x_StdPeriph_Driver/src/stm32f10x_tim.c ****   * @param  TIMx: where x can be  1 to 17 except 6 and 7 to select the TIM peripheral.
1299:../Library/STM32F10x_StdPeriph_Driver/src/stm32f10x_tim.c ****   * @param  TIM_ForcedAction: specifies the forced Action to be set to the output waveform.
1300:../Library/STM32F10x_StdPeriph_Driver/src/stm32f10x_tim.c ****   *   This parameter can be one of the following values:
1301:../Library/STM32F10x_StdPeriph_Driver/src/stm32f10x_tim.c ****   *     @arg TIM_ForcedAction_Active: Force active level on OC1REF
1302:../Library/STM32F10x_StdPeriph_Driver/src/stm32f10x_tim.c ****   *     @arg TIM_ForcedAction_InActive: Force inactive level on OC1REF.
1303:../Library/STM32F10x_StdPeriph_Driver/src/stm32f10x_tim.c ****   * @retval None
1304:../Library/STM32F10x_StdPeriph_Driver/src/stm32f10x_tim.c ****   */
1305:../Library/STM32F10x_StdPeriph_Driver/src/stm32f10x_tim.c **** void TIM_ForcedOC1Config(TIM_TypeDef* TIMx, uint16_t TIM_ForcedAction)
1306:../Library/STM32F10x_StdPeriph_Driver/src/stm32f10x_tim.c **** {
 19597              		.loc 1 1306 0
 19598              		.cfi_startproc
 19599              		@ args = 0, pretend = 0, frame = 0
 19600              		@ frame_needed = 0, uses_anonymous_args = 0
 19601              		@ link register save eliminated.
 19602              	.LVL171:
1307:../Library/STM32F10x_StdPeriph_Driver/src/stm32f10x_tim.c ****   uint16_t tmpccmr1 = 0;
1308:../Library/STM32F10x_StdPeriph_Driver/src/stm32f10x_tim.c ****   /* Check the parameters */
1309:../Library/STM32F10x_StdPeriph_Driver/src/stm32f10x_tim.c ****   assert_param(IS_TIM_LIST8_PERIPH(TIMx));
1310:../Library/STM32F10x_StdPeriph_Driver/src/stm32f10x_tim.c ****   assert_param(IS_TIM_FORCED_ACTION(TIM_ForcedAction));
1311:../Library/STM32F10x_StdPeriph_Driver/src/stm32f10x_tim.c ****   tmpccmr1 = TIMx->CCMR1;
 19603              		.loc 1 1311 0
 19604 0000 038B     		ldrh	r3, [r0, #24]
1312:../Library/STM32F10x_StdPeriph_Driver/src/stm32f10x_tim.c ****   /* Reset the OC1M Bits */
1313:../Library/STM32F10x_StdPeriph_Driver/src/stm32f10x_tim.c ****   tmpccmr1 &= (uint16_t)~((uint16_t)TIM_CCMR1_OC1M);
 19605              		.loc 1 1313 0
 19606 0002 23F07003 		bic	r3, r3, #112
 19607              	.LVL172:
 19608 0006 4FEA0343 		lsl	r3, r3, #16
 19609              	.LVL173:
 19610 000a 4FEA1343 		lsr	r3, r3, #16
 19611              	.LVL174:
1314:../Library/STM32F10x_StdPeriph_Driver/src/stm32f10x_tim.c ****   /* Configure The Forced output Mode */
1315:../Library/STM32F10x_StdPeriph_Driver/src/stm32f10x_tim.c ****   tmpccmr1 |= TIM_ForcedAction;
 19612              		.loc 1 1315 0
 19613 000e 41EA0303 		orr	r3, r1, r3
 19614              	.LVL175:
1316:../Library/STM32F10x_StdPeriph_Driver/src/stm32f10x_tim.c ****   /* Write to TIMx CCMR1 register */
1317:../Library/STM32F10x_StdPeriph_Driver/src/stm32f10x_tim.c ****   TIMx->CCMR1 = tmpccmr1;
 19615              		.loc 1 1317 0
 19616 0012 0383     		strh	r3, [r0, #24]	@ movhi
1318:../Library/STM32F10x_StdPeriph_Driver/src/stm32f10x_tim.c **** }
 19617              		.loc 1 1318 0
 19618 0014 7047     		bx	lr
 19619              		.cfi_endproc
 19620              	.LFE58:
 19622 0016 00BF     		.section	.text.TIM_ForcedOC2Config,"ax",%progbits
 19623              		.align	2
 19624              		.global	TIM_ForcedOC2Config
 19625              		.thumb
 19626              		.thumb_func
 19628              	TIM_ForcedOC2Config:
 19629              	.LFB59:
1319:../Library/STM32F10x_StdPeriph_Driver/src/stm32f10x_tim.c **** 
1320:../Library/STM32F10x_StdPeriph_Driver/src/stm32f10x_tim.c **** /**
1321:../Library/STM32F10x_StdPeriph_Driver/src/stm32f10x_tim.c ****   * @brief  Forces the TIMx output 2 waveform to active or inactive level.
1322:../Library/STM32F10x_StdPeriph_Driver/src/stm32f10x_tim.c ****   * @param  TIMx: where x can be  1, 2, 3, 4, 5, 8, 9, 12 or 15 to select the TIM peripheral.
1323:../Library/STM32F10x_StdPeriph_Driver/src/stm32f10x_tim.c ****   * @param  TIM_ForcedAction: specifies the forced Action to be set to the output waveform.
1324:../Library/STM32F10x_StdPeriph_Driver/src/stm32f10x_tim.c ****   *   This parameter can be one of the following values:
1325:../Library/STM32F10x_StdPeriph_Driver/src/stm32f10x_tim.c ****   *     @arg TIM_ForcedAction_Active: Force active level on OC2REF
1326:../Library/STM32F10x_StdPeriph_Driver/src/stm32f10x_tim.c ****   *     @arg TIM_ForcedAction_InActive: Force inactive level on OC2REF.
1327:../Library/STM32F10x_StdPeriph_Driver/src/stm32f10x_tim.c ****   * @retval None
1328:../Library/STM32F10x_StdPeriph_Driver/src/stm32f10x_tim.c ****   */
1329:../Library/STM32F10x_StdPeriph_Driver/src/stm32f10x_tim.c **** void TIM_ForcedOC2Config(TIM_TypeDef* TIMx, uint16_t TIM_ForcedAction)
1330:../Library/STM32F10x_StdPeriph_Driver/src/stm32f10x_tim.c **** {
 19630              		.loc 1 1330 0
 19631              		.cfi_startproc
 19632              		@ args = 0, pretend = 0, frame = 0
 19633              		@ frame_needed = 0, uses_anonymous_args = 0
 19634              		@ link register save eliminated.
 19635              	.LVL176:
1331:../Library/STM32F10x_StdPeriph_Driver/src/stm32f10x_tim.c ****   uint16_t tmpccmr1 = 0;
1332:../Library/STM32F10x_StdPeriph_Driver/src/stm32f10x_tim.c ****   /* Check the parameters */
1333:../Library/STM32F10x_StdPeriph_Driver/src/stm32f10x_tim.c ****   assert_param(IS_TIM_LIST6_PERIPH(TIMx));
1334:../Library/STM32F10x_StdPeriph_Driver/src/stm32f10x_tim.c ****   assert_param(IS_TIM_FORCED_ACTION(TIM_ForcedAction));
1335:../Library/STM32F10x_StdPeriph_Driver/src/stm32f10x_tim.c ****   tmpccmr1 = TIMx->CCMR1;
 19636              		.loc 1 1335 0
 19637 0000 038B     		ldrh	r3, [r0, #24]
1336:../Library/STM32F10x_StdPeriph_Driver/src/stm32f10x_tim.c ****   /* Reset the OC2M Bits */
1337:../Library/STM32F10x_StdPeriph_Driver/src/stm32f10x_tim.c ****   tmpccmr1 &= (uint16_t)~((uint16_t)TIM_CCMR1_OC2M);
 19638              		.loc 1 1337 0
 19639 0002 23F4E043 		bic	r3, r3, #28672
 19640              	.LVL177:
 19641 0006 4FEA0343 		lsl	r3, r3, #16
 19642              	.LVL178:
 19643 000a 4FEA1343 		lsr	r3, r3, #16
 19644              	.LVL179:
1338:../Library/STM32F10x_StdPeriph_Driver/src/stm32f10x_tim.c ****   /* Configure The Forced output Mode */
1339:../Library/STM32F10x_StdPeriph_Driver/src/stm32f10x_tim.c ****   tmpccmr1 |= (uint16_t)(TIM_ForcedAction << 8);
 19645              		.loc 1 1339 0
 19646 000e 43EA0123 		orr	r3, r3, r1, lsl #8
 19647              	.LVL180:
 19648 0012 9BB2     		uxth	r3, r3
 19649              	.LVL181:
1340:../Library/STM32F10x_StdPeriph_Driver/src/stm32f10x_tim.c ****   /* Write to TIMx CCMR1 register */
1341:../Library/STM32F10x_StdPeriph_Driver/src/stm32f10x_tim.c ****   TIMx->CCMR1 = tmpccmr1;
 19650              		.loc 1 1341 0
 19651 0014 0383     		strh	r3, [r0, #24]	@ movhi
1342:../Library/STM32F10x_StdPeriph_Driver/src/stm32f10x_tim.c **** }
 19652              		.loc 1 1342 0
 19653 0016 7047     		bx	lr
 19654              		.cfi_endproc
 19655              	.LFE59:
 19657              		.section	.text.TIM_ForcedOC3Config,"ax",%progbits
 19658              		.align	2
 19659              		.global	TIM_ForcedOC3Config
 19660              		.thumb
 19661              		.thumb_func
 19663              	TIM_ForcedOC3Config:
 19664              	.LFB60:
1343:../Library/STM32F10x_StdPeriph_Driver/src/stm32f10x_tim.c **** 
1344:../Library/STM32F10x_StdPeriph_Driver/src/stm32f10x_tim.c **** /**
1345:../Library/STM32F10x_StdPeriph_Driver/src/stm32f10x_tim.c ****   * @brief  Forces the TIMx output 3 waveform to active or inactive level.
1346:../Library/STM32F10x_StdPeriph_Driver/src/stm32f10x_tim.c ****   * @param  TIMx: where x can be  1, 2, 3, 4, 5 or 8 to select the TIM peripheral.
1347:../Library/STM32F10x_StdPeriph_Driver/src/stm32f10x_tim.c ****   * @param  TIM_ForcedAction: specifies the forced Action to be set to the output waveform.
1348:../Library/STM32F10x_StdPeriph_Driver/src/stm32f10x_tim.c ****   *   This parameter can be one of the following values:
1349:../Library/STM32F10x_StdPeriph_Driver/src/stm32f10x_tim.c ****   *     @arg TIM_ForcedAction_Active: Force active level on OC3REF
1350:../Library/STM32F10x_StdPeriph_Driver/src/stm32f10x_tim.c ****   *     @arg TIM_ForcedAction_InActive: Force inactive level on OC3REF.
1351:../Library/STM32F10x_StdPeriph_Driver/src/stm32f10x_tim.c ****   * @retval None
1352:../Library/STM32F10x_StdPeriph_Driver/src/stm32f10x_tim.c ****   */
1353:../Library/STM32F10x_StdPeriph_Driver/src/stm32f10x_tim.c **** void TIM_ForcedOC3Config(TIM_TypeDef* TIMx, uint16_t TIM_ForcedAction)
1354:../Library/STM32F10x_StdPeriph_Driver/src/stm32f10x_tim.c **** {
 19665              		.loc 1 1354 0
 19666              		.cfi_startproc
 19667              		@ args = 0, pretend = 0, frame = 0
 19668              		@ frame_needed = 0, uses_anonymous_args = 0
 19669              		@ link register save eliminated.
 19670              	.LVL182:
1355:../Library/STM32F10x_StdPeriph_Driver/src/stm32f10x_tim.c ****   uint16_t tmpccmr2 = 0;
1356:../Library/STM32F10x_StdPeriph_Driver/src/stm32f10x_tim.c ****   /* Check the parameters */
1357:../Library/STM32F10x_StdPeriph_Driver/src/stm32f10x_tim.c ****   assert_param(IS_TIM_LIST3_PERIPH(TIMx));
1358:../Library/STM32F10x_StdPeriph_Driver/src/stm32f10x_tim.c ****   assert_param(IS_TIM_FORCED_ACTION(TIM_ForcedAction));
1359:../Library/STM32F10x_StdPeriph_Driver/src/stm32f10x_tim.c ****   tmpccmr2 = TIMx->CCMR2;
 19671              		.loc 1 1359 0
 19672 0000 838B     		ldrh	r3, [r0, #28]
1360:../Library/STM32F10x_StdPeriph_Driver/src/stm32f10x_tim.c ****   /* Reset the OC1M Bits */
1361:../Library/STM32F10x_StdPeriph_Driver/src/stm32f10x_tim.c ****   tmpccmr2 &= (uint16_t)~((uint16_t)TIM_CCMR2_OC3M);
 19673              		.loc 1 1361 0
 19674 0002 23F07003 		bic	r3, r3, #112
 19675              	.LVL183:
 19676 0006 4FEA0343 		lsl	r3, r3, #16
 19677              	.LVL184:
 19678 000a 4FEA1343 		lsr	r3, r3, #16
 19679              	.LVL185:
1362:../Library/STM32F10x_StdPeriph_Driver/src/stm32f10x_tim.c ****   /* Configure The Forced output Mode */
1363:../Library/STM32F10x_StdPeriph_Driver/src/stm32f10x_tim.c ****   tmpccmr2 |= TIM_ForcedAction;
 19680              		.loc 1 1363 0
 19681 000e 41EA0303 		orr	r3, r1, r3
 19682              	.LVL186:
1364:../Library/STM32F10x_StdPeriph_Driver/src/stm32f10x_tim.c ****   /* Write to TIMx CCMR2 register */
1365:../Library/STM32F10x_StdPeriph_Driver/src/stm32f10x_tim.c ****   TIMx->CCMR2 = tmpccmr2;
 19683              		.loc 1 1365 0
 19684 0012 8383     		strh	r3, [r0, #28]	@ movhi
1366:../Library/STM32F10x_StdPeriph_Driver/src/stm32f10x_tim.c **** }
 19685              		.loc 1 1366 0
 19686 0014 7047     		bx	lr
 19687              		.cfi_endproc
 19688              	.LFE60:
 19690 0016 00BF     		.section	.text.TIM_ForcedOC4Config,"ax",%progbits
 19691              		.align	2
 19692              		.global	TIM_ForcedOC4Config
 19693              		.thumb
 19694              		.thumb_func
 19696              	TIM_ForcedOC4Config:
 19697              	.LFB61:
1367:../Library/STM32F10x_StdPeriph_Driver/src/stm32f10x_tim.c **** 
1368:../Library/STM32F10x_StdPeriph_Driver/src/stm32f10x_tim.c **** /**
1369:../Library/STM32F10x_StdPeriph_Driver/src/stm32f10x_tim.c ****   * @brief  Forces the TIMx output 4 waveform to active or inactive level.
1370:../Library/STM32F10x_StdPeriph_Driver/src/stm32f10x_tim.c ****   * @param  TIMx: where x can be  1, 2, 3, 4, 5 or 8 to select the TIM peripheral.
1371:../Library/STM32F10x_StdPeriph_Driver/src/stm32f10x_tim.c ****   * @param  TIM_ForcedAction: specifies the forced Action to be set to the output waveform.
1372:../Library/STM32F10x_StdPeriph_Driver/src/stm32f10x_tim.c ****   *   This parameter can be one of the following values:
1373:../Library/STM32F10x_StdPeriph_Driver/src/stm32f10x_tim.c ****   *     @arg TIM_ForcedAction_Active: Force active level on OC4REF
1374:../Library/STM32F10x_StdPeriph_Driver/src/stm32f10x_tim.c ****   *     @arg TIM_ForcedAction_InActive: Force inactive level on OC4REF.
1375:../Library/STM32F10x_StdPeriph_Driver/src/stm32f10x_tim.c ****   * @retval None
1376:../Library/STM32F10x_StdPeriph_Driver/src/stm32f10x_tim.c ****   */
1377:../Library/STM32F10x_StdPeriph_Driver/src/stm32f10x_tim.c **** void TIM_ForcedOC4Config(TIM_TypeDef* TIMx, uint16_t TIM_ForcedAction)
1378:../Library/STM32F10x_StdPeriph_Driver/src/stm32f10x_tim.c **** {
 19698              		.loc 1 1378 0
 19699              		.cfi_startproc
 19700              		@ args = 0, pretend = 0, frame = 0
 19701              		@ frame_needed = 0, uses_anonymous_args = 0
 19702              		@ link register save eliminated.
 19703              	.LVL187:
1379:../Library/STM32F10x_StdPeriph_Driver/src/stm32f10x_tim.c ****   uint16_t tmpccmr2 = 0;
1380:../Library/STM32F10x_StdPeriph_Driver/src/stm32f10x_tim.c ****   /* Check the parameters */
1381:../Library/STM32F10x_StdPeriph_Driver/src/stm32f10x_tim.c ****   assert_param(IS_TIM_LIST3_PERIPH(TIMx));
1382:../Library/STM32F10x_StdPeriph_Driver/src/stm32f10x_tim.c ****   assert_param(IS_TIM_FORCED_ACTION(TIM_ForcedAction));
1383:../Library/STM32F10x_StdPeriph_Driver/src/stm32f10x_tim.c ****   tmpccmr2 = TIMx->CCMR2;
 19704              		.loc 1 1383 0
 19705 0000 838B     		ldrh	r3, [r0, #28]
1384:../Library/STM32F10x_StdPeriph_Driver/src/stm32f10x_tim.c ****   /* Reset the OC2M Bits */
1385:../Library/STM32F10x_StdPeriph_Driver/src/stm32f10x_tim.c ****   tmpccmr2 &= (uint16_t)~((uint16_t)TIM_CCMR2_OC4M);
 19706              		.loc 1 1385 0
 19707 0002 23F4E043 		bic	r3, r3, #28672
 19708              	.LVL188:
 19709 0006 4FEA0343 		lsl	r3, r3, #16
 19710              	.LVL189:
 19711 000a 4FEA1343 		lsr	r3, r3, #16
 19712              	.LVL190:
1386:../Library/STM32F10x_StdPeriph_Driver/src/stm32f10x_tim.c ****   /* Configure The Forced output Mode */
1387:../Library/STM32F10x_StdPeriph_Driver/src/stm32f10x_tim.c ****   tmpccmr2 |= (uint16_t)(TIM_ForcedAction << 8);
 19713              		.loc 1 1387 0
 19714 000e 43EA0123 		orr	r3, r3, r1, lsl #8
 19715              	.LVL191:
 19716 0012 9BB2     		uxth	r3, r3
 19717              	.LVL192:
1388:../Library/STM32F10x_StdPeriph_Driver/src/stm32f10x_tim.c ****   /* Write to TIMx CCMR2 register */
1389:../Library/STM32F10x_StdPeriph_Driver/src/stm32f10x_tim.c ****   TIMx->CCMR2 = tmpccmr2;
 19718              		.loc 1 1389 0
 19719 0014 8383     		strh	r3, [r0, #28]	@ movhi
1390:../Library/STM32F10x_StdPeriph_Driver/src/stm32f10x_tim.c **** }
 19720              		.loc 1 1390 0
 19721 0016 7047     		bx	lr
 19722              		.cfi_endproc
 19723              	.LFE61:
 19725              		.section	.text.TIM_ARRPreloadConfig,"ax",%progbits
 19726              		.align	2
 19727              		.global	TIM_ARRPreloadConfig
 19728              		.thumb
 19729              		.thumb_func
 19731              	TIM_ARRPreloadConfig:
 19732              	.LFB62:
1391:../Library/STM32F10x_StdPeriph_Driver/src/stm32f10x_tim.c **** 
1392:../Library/STM32F10x_StdPeriph_Driver/src/stm32f10x_tim.c **** /**
1393:../Library/STM32F10x_StdPeriph_Driver/src/stm32f10x_tim.c ****   * @brief  Enables or disables TIMx peripheral Preload register on ARR.
1394:../Library/STM32F10x_StdPeriph_Driver/src/stm32f10x_tim.c ****   * @param  TIMx: where x can be  1 to 17 to select the TIM peripheral.
1395:../Library/STM32F10x_StdPeriph_Driver/src/stm32f10x_tim.c ****   * @param  NewState: new state of the TIMx peripheral Preload register
1396:../Library/STM32F10x_StdPeriph_Driver/src/stm32f10x_tim.c ****   *   This parameter can be: ENABLE or DISABLE.
1397:../Library/STM32F10x_StdPeriph_Driver/src/stm32f10x_tim.c ****   * @retval None
1398:../Library/STM32F10x_StdPeriph_Driver/src/stm32f10x_tim.c ****   */
1399:../Library/STM32F10x_StdPeriph_Driver/src/stm32f10x_tim.c **** void TIM_ARRPreloadConfig(TIM_TypeDef* TIMx, FunctionalState NewState)
1400:../Library/STM32F10x_StdPeriph_Driver/src/stm32f10x_tim.c **** {
 19733              		.loc 1 1400 0
 19734              		.cfi_startproc
 19735              		@ args = 0, pretend = 0, frame = 0
 19736              		@ frame_needed = 0, uses_anonymous_args = 0
 19737              		@ link register save eliminated.
 19738              	.LVL193:
1401:../Library/STM32F10x_StdPeriph_Driver/src/stm32f10x_tim.c ****   /* Check the parameters */
1402:../Library/STM32F10x_StdPeriph_Driver/src/stm32f10x_tim.c ****   assert_param(IS_TIM_ALL_PERIPH(TIMx));
1403:../Library/STM32F10x_StdPeriph_Driver/src/stm32f10x_tim.c ****   assert_param(IS_FUNCTIONAL_STATE(NewState));
1404:../Library/STM32F10x_StdPeriph_Driver/src/stm32f10x_tim.c ****   if (NewState != DISABLE)
 19739              		.loc 1 1404 0
 19740 0000 29B1     		cbz	r1, .L78
1405:../Library/STM32F10x_StdPeriph_Driver/src/stm32f10x_tim.c ****   {
1406:../Library/STM32F10x_StdPeriph_Driver/src/stm32f10x_tim.c ****     /* Set the ARR Preload Bit */
1407:../Library/STM32F10x_StdPeriph_Driver/src/stm32f10x_tim.c ****     TIMx->CR1 |= TIM_CR1_ARPE;
 19741              		.loc 1 1407 0
 19742 0002 0388     		ldrh	r3, [r0, #0]
 19743 0004 9BB2     		uxth	r3, r3
 19744 0006 43F08003 		orr	r3, r3, #128
 19745 000a 0380     		strh	r3, [r0, #0]	@ movhi
 19746 000c 7047     		bx	lr
 19747              	.L78:
1408:../Library/STM32F10x_StdPeriph_Driver/src/stm32f10x_tim.c ****   }
1409:../Library/STM32F10x_StdPeriph_Driver/src/stm32f10x_tim.c ****   else
1410:../Library/STM32F10x_StdPeriph_Driver/src/stm32f10x_tim.c ****   {
1411:../Library/STM32F10x_StdPeriph_Driver/src/stm32f10x_tim.c ****     /* Reset the ARR Preload Bit */
1412:../Library/STM32F10x_StdPeriph_Driver/src/stm32f10x_tim.c ****     TIMx->CR1 &= (uint16_t)~((uint16_t)TIM_CR1_ARPE);
 19748              		.loc 1 1412 0
 19749 000e 0388     		ldrh	r3, [r0, #0]
 19750 0010 23F08003 		bic	r3, r3, #128
 19751 0014 4FEA0343 		lsl	r3, r3, #16
 19752 0018 4FEA1343 		lsr	r3, r3, #16
 19753 001c 0380     		strh	r3, [r0, #0]	@ movhi
 19754 001e 7047     		bx	lr
 19755              		.cfi_endproc
 19756              	.LFE62:
 19758              		.section	.text.TIM_SelectCOM,"ax",%progbits
 19759              		.align	2
 19760              		.global	TIM_SelectCOM
 19761              		.thumb
 19762              		.thumb_func
 19764              	TIM_SelectCOM:
 19765              	.LFB63:
1413:../Library/STM32F10x_StdPeriph_Driver/src/stm32f10x_tim.c ****   }
1414:../Library/STM32F10x_StdPeriph_Driver/src/stm32f10x_tim.c **** }
1415:../Library/STM32F10x_StdPeriph_Driver/src/stm32f10x_tim.c **** 
1416:../Library/STM32F10x_StdPeriph_Driver/src/stm32f10x_tim.c **** /**
1417:../Library/STM32F10x_StdPeriph_Driver/src/stm32f10x_tim.c ****   * @brief  Selects the TIM peripheral Commutation event.
1418:../Library/STM32F10x_StdPeriph_Driver/src/stm32f10x_tim.c ****   * @param  TIMx: where x can be  1, 8, 15, 16 or 17 to select the TIMx peripheral
1419:../Library/STM32F10x_StdPeriph_Driver/src/stm32f10x_tim.c ****   * @param  NewState: new state of the Commutation event.
1420:../Library/STM32F10x_StdPeriph_Driver/src/stm32f10x_tim.c ****   *   This parameter can be: ENABLE or DISABLE.
1421:../Library/STM32F10x_StdPeriph_Driver/src/stm32f10x_tim.c ****   * @retval None
1422:../Library/STM32F10x_StdPeriph_Driver/src/stm32f10x_tim.c ****   */
1423:../Library/STM32F10x_StdPeriph_Driver/src/stm32f10x_tim.c **** void TIM_SelectCOM(TIM_TypeDef* TIMx, FunctionalState NewState)
1424:../Library/STM32F10x_StdPeriph_Driver/src/stm32f10x_tim.c **** {
 19766              		.loc 1 1424 0
 19767              		.cfi_startproc
 19768              		@ args = 0, pretend = 0, frame = 0
 19769              		@ frame_needed = 0, uses_anonymous_args = 0
 19770              		@ link register save eliminated.
 19771              	.LVL194:
1425:../Library/STM32F10x_StdPeriph_Driver/src/stm32f10x_tim.c ****   /* Check the parameters */
1426:../Library/STM32F10x_StdPeriph_Driver/src/stm32f10x_tim.c ****   assert_param(IS_TIM_LIST2_PERIPH(TIMx));
1427:../Library/STM32F10x_StdPeriph_Driver/src/stm32f10x_tim.c ****   assert_param(IS_FUNCTIONAL_STATE(NewState));
1428:../Library/STM32F10x_StdPeriph_Driver/src/stm32f10x_tim.c ****   if (NewState != DISABLE)
 19772              		.loc 1 1428 0
 19773 0000 29B1     		cbz	r1, .L82
1429:../Library/STM32F10x_StdPeriph_Driver/src/stm32f10x_tim.c ****   {
1430:../Library/STM32F10x_StdPeriph_Driver/src/stm32f10x_tim.c ****     /* Set the COM Bit */
1431:../Library/STM32F10x_StdPeriph_Driver/src/stm32f10x_tim.c ****     TIMx->CR2 |= TIM_CR2_CCUS;
 19774              		.loc 1 1431 0
 19775 0002 8388     		ldrh	r3, [r0, #4]
 19776 0004 9BB2     		uxth	r3, r3
 19777 0006 43F00403 		orr	r3, r3, #4
 19778 000a 8380     		strh	r3, [r0, #4]	@ movhi
 19779 000c 7047     		bx	lr
 19780              	.L82:
1432:../Library/STM32F10x_StdPeriph_Driver/src/stm32f10x_tim.c ****   }
1433:../Library/STM32F10x_StdPeriph_Driver/src/stm32f10x_tim.c ****   else
1434:../Library/STM32F10x_StdPeriph_Driver/src/stm32f10x_tim.c ****   {
1435:../Library/STM32F10x_StdPeriph_Driver/src/stm32f10x_tim.c ****     /* Reset the COM Bit */
1436:../Library/STM32F10x_StdPeriph_Driver/src/stm32f10x_tim.c ****     TIMx->CR2 &= (uint16_t)~((uint16_t)TIM_CR2_CCUS);
 19781              		.loc 1 1436 0
 19782 000e 8388     		ldrh	r3, [r0, #4]
 19783 0010 23F00403 		bic	r3, r3, #4
 19784 0014 4FEA0343 		lsl	r3, r3, #16
 19785 0018 4FEA1343 		lsr	r3, r3, #16
 19786 001c 8380     		strh	r3, [r0, #4]	@ movhi
 19787 001e 7047     		bx	lr
 19788              		.cfi_endproc
 19789              	.LFE63:
 19791              		.section	.text.TIM_SelectCCDMA,"ax",%progbits
 19792              		.align	2
 19793              		.global	TIM_SelectCCDMA
 19794              		.thumb
 19795              		.thumb_func
 19797              	TIM_SelectCCDMA:
 19798              	.LFB64:
1437:../Library/STM32F10x_StdPeriph_Driver/src/stm32f10x_tim.c ****   }
1438:../Library/STM32F10x_StdPeriph_Driver/src/stm32f10x_tim.c **** }
1439:../Library/STM32F10x_StdPeriph_Driver/src/stm32f10x_tim.c **** 
1440:../Library/STM32F10x_StdPeriph_Driver/src/stm32f10x_tim.c **** /**
1441:../Library/STM32F10x_StdPeriph_Driver/src/stm32f10x_tim.c ****   * @brief  Selects the TIMx peripheral Capture Compare DMA source.
1442:../Library/STM32F10x_StdPeriph_Driver/src/stm32f10x_tim.c ****   * @param  TIMx: where x can be  1, 2, 3, 4, 5, 8, 15, 16 or 17 to select 
1443:../Library/STM32F10x_StdPeriph_Driver/src/stm32f10x_tim.c ****   *   the TIM peripheral.
1444:../Library/STM32F10x_StdPeriph_Driver/src/stm32f10x_tim.c ****   * @param  NewState: new state of the Capture Compare DMA source
1445:../Library/STM32F10x_StdPeriph_Driver/src/stm32f10x_tim.c ****   *   This parameter can be: ENABLE or DISABLE.
1446:../Library/STM32F10x_StdPeriph_Driver/src/stm32f10x_tim.c ****   * @retval None
1447:../Library/STM32F10x_StdPeriph_Driver/src/stm32f10x_tim.c ****   */
1448:../Library/STM32F10x_StdPeriph_Driver/src/stm32f10x_tim.c **** void TIM_SelectCCDMA(TIM_TypeDef* TIMx, FunctionalState NewState)
1449:../Library/STM32F10x_StdPeriph_Driver/src/stm32f10x_tim.c **** {
 19799              		.loc 1 1449 0
 19800              		.cfi_startproc
 19801              		@ args = 0, pretend = 0, frame = 0
 19802              		@ frame_needed = 0, uses_anonymous_args = 0
 19803              		@ link register save eliminated.
 19804              	.LVL195:
1450:../Library/STM32F10x_StdPeriph_Driver/src/stm32f10x_tim.c ****   /* Check the parameters */
1451:../Library/STM32F10x_StdPeriph_Driver/src/stm32f10x_tim.c ****   assert_param(IS_TIM_LIST4_PERIPH(TIMx));
1452:../Library/STM32F10x_StdPeriph_Driver/src/stm32f10x_tim.c ****   assert_param(IS_FUNCTIONAL_STATE(NewState));
1453:../Library/STM32F10x_StdPeriph_Driver/src/stm32f10x_tim.c ****   if (NewState != DISABLE)
 19805              		.loc 1 1453 0
 19806 0000 29B1     		cbz	r1, .L86
1454:../Library/STM32F10x_StdPeriph_Driver/src/stm32f10x_tim.c ****   {
1455:../Library/STM32F10x_StdPeriph_Driver/src/stm32f10x_tim.c ****     /* Set the CCDS Bit */
1456:../Library/STM32F10x_StdPeriph_Driver/src/stm32f10x_tim.c ****     TIMx->CR2 |= TIM_CR2_CCDS;
 19807              		.loc 1 1456 0
 19808 0002 8388     		ldrh	r3, [r0, #4]
 19809 0004 9BB2     		uxth	r3, r3
 19810 0006 43F00803 		orr	r3, r3, #8
 19811 000a 8380     		strh	r3, [r0, #4]	@ movhi
 19812 000c 7047     		bx	lr
 19813              	.L86:
1457:../Library/STM32F10x_StdPeriph_Driver/src/stm32f10x_tim.c ****   }
1458:../Library/STM32F10x_StdPeriph_Driver/src/stm32f10x_tim.c ****   else
1459:../Library/STM32F10x_StdPeriph_Driver/src/stm32f10x_tim.c ****   {
1460:../Library/STM32F10x_StdPeriph_Driver/src/stm32f10x_tim.c ****     /* Reset the CCDS Bit */
1461:../Library/STM32F10x_StdPeriph_Driver/src/stm32f10x_tim.c ****     TIMx->CR2 &= (uint16_t)~((uint16_t)TIM_CR2_CCDS);
 19814              		.loc 1 1461 0
 19815 000e 8388     		ldrh	r3, [r0, #4]
 19816 0010 23F00803 		bic	r3, r3, #8
 19817 0014 4FEA0343 		lsl	r3, r3, #16
 19818 0018 4FEA1343 		lsr	r3, r3, #16
 19819 001c 8380     		strh	r3, [r0, #4]	@ movhi
 19820 001e 7047     		bx	lr
 19821              		.cfi_endproc
 19822              	.LFE64:
 19824              		.section	.text.TIM_CCPreloadControl,"ax",%progbits
 19825              		.align	2
 19826              		.global	TIM_CCPreloadControl
 19827              		.thumb
 19828              		.thumb_func
 19830              	TIM_CCPreloadControl:
 19831              	.LFB65:
1462:../Library/STM32F10x_StdPeriph_Driver/src/stm32f10x_tim.c ****   }
1463:../Library/STM32F10x_StdPeriph_Driver/src/stm32f10x_tim.c **** }
1464:../Library/STM32F10x_StdPeriph_Driver/src/stm32f10x_tim.c **** 
1465:../Library/STM32F10x_StdPeriph_Driver/src/stm32f10x_tim.c **** /**
1466:../Library/STM32F10x_StdPeriph_Driver/src/stm32f10x_tim.c ****   * @brief  Sets or Resets the TIM peripheral Capture Compare Preload Control bit.
1467:../Library/STM32F10x_StdPeriph_Driver/src/stm32f10x_tim.c ****   * @param  TIMx: where x can be   1, 2, 3, 4, 5, 8 or 15 
1468:../Library/STM32F10x_StdPeriph_Driver/src/stm32f10x_tim.c ****   *   to select the TIMx peripheral
1469:../Library/STM32F10x_StdPeriph_Driver/src/stm32f10x_tim.c ****   * @param  NewState: new state of the Capture Compare Preload Control bit
1470:../Library/STM32F10x_StdPeriph_Driver/src/stm32f10x_tim.c ****   *   This parameter can be: ENABLE or DISABLE.
1471:../Library/STM32F10x_StdPeriph_Driver/src/stm32f10x_tim.c ****   * @retval None
1472:../Library/STM32F10x_StdPeriph_Driver/src/stm32f10x_tim.c ****   */
1473:../Library/STM32F10x_StdPeriph_Driver/src/stm32f10x_tim.c **** void TIM_CCPreloadControl(TIM_TypeDef* TIMx, FunctionalState NewState)
1474:../Library/STM32F10x_StdPeriph_Driver/src/stm32f10x_tim.c **** { 
 19832              		.loc 1 1474 0
 19833              		.cfi_startproc
 19834              		@ args = 0, pretend = 0, frame = 0
 19835              		@ frame_needed = 0, uses_anonymous_args = 0
 19836              		@ link register save eliminated.
 19837              	.LVL196:
1475:../Library/STM32F10x_StdPeriph_Driver/src/stm32f10x_tim.c ****   /* Check the parameters */
1476:../Library/STM32F10x_StdPeriph_Driver/src/stm32f10x_tim.c ****   assert_param(IS_TIM_LIST5_PERIPH(TIMx));
1477:../Library/STM32F10x_StdPeriph_Driver/src/stm32f10x_tim.c ****   assert_param(IS_FUNCTIONAL_STATE(NewState));
1478:../Library/STM32F10x_StdPeriph_Driver/src/stm32f10x_tim.c ****   if (NewState != DISABLE)
 19838              		.loc 1 1478 0
 19839 0000 29B1     		cbz	r1, .L90
1479:../Library/STM32F10x_StdPeriph_Driver/src/stm32f10x_tim.c ****   {
1480:../Library/STM32F10x_StdPeriph_Driver/src/stm32f10x_tim.c ****     /* Set the CCPC Bit */
1481:../Library/STM32F10x_StdPeriph_Driver/src/stm32f10x_tim.c ****     TIMx->CR2 |= TIM_CR2_CCPC;
 19840              		.loc 1 1481 0
 19841 0002 8388     		ldrh	r3, [r0, #4]
 19842 0004 9BB2     		uxth	r3, r3
 19843 0006 43F00103 		orr	r3, r3, #1
 19844 000a 8380     		strh	r3, [r0, #4]	@ movhi
 19845 000c 7047     		bx	lr
 19846              	.L90:
1482:../Library/STM32F10x_StdPeriph_Driver/src/stm32f10x_tim.c ****   }
1483:../Library/STM32F10x_StdPeriph_Driver/src/stm32f10x_tim.c ****   else
1484:../Library/STM32F10x_StdPeriph_Driver/src/stm32f10x_tim.c ****   {
1485:../Library/STM32F10x_StdPeriph_Driver/src/stm32f10x_tim.c ****     /* Reset the CCPC Bit */
1486:../Library/STM32F10x_StdPeriph_Driver/src/stm32f10x_tim.c ****     TIMx->CR2 &= (uint16_t)~((uint16_t)TIM_CR2_CCPC);
 19847              		.loc 1 1486 0
 19848 000e 8388     		ldrh	r3, [r0, #4]
 19849 0010 23F00103 		bic	r3, r3, #1
 19850 0014 4FEA0343 		lsl	r3, r3, #16
 19851 0018 4FEA1343 		lsr	r3, r3, #16
 19852 001c 8380     		strh	r3, [r0, #4]	@ movhi
 19853 001e 7047     		bx	lr
 19854              		.cfi_endproc
 19855              	.LFE65:
 19857              		.section	.text.TIM_OC1PreloadConfig,"ax",%progbits
 19858              		.align	2
 19859              		.global	TIM_OC1PreloadConfig
 19860              		.thumb
 19861              		.thumb_func
 19863              	TIM_OC1PreloadConfig:
 19864              	.LFB66:
1487:../Library/STM32F10x_StdPeriph_Driver/src/stm32f10x_tim.c ****   }
1488:../Library/STM32F10x_StdPeriph_Driver/src/stm32f10x_tim.c **** }
1489:../Library/STM32F10x_StdPeriph_Driver/src/stm32f10x_tim.c **** 
1490:../Library/STM32F10x_StdPeriph_Driver/src/stm32f10x_tim.c **** /**
1491:../Library/STM32F10x_StdPeriph_Driver/src/stm32f10x_tim.c ****   * @brief  Enables or disables the TIMx peripheral Preload register on CCR1.
1492:../Library/STM32F10x_StdPeriph_Driver/src/stm32f10x_tim.c ****   * @param  TIMx: where x can be  1 to 17 except 6 and 7 to select the TIM peripheral.
1493:../Library/STM32F10x_StdPeriph_Driver/src/stm32f10x_tim.c ****   * @param  TIM_OCPreload: new state of the TIMx peripheral Preload register
1494:../Library/STM32F10x_StdPeriph_Driver/src/stm32f10x_tim.c ****   *   This parameter can be one of the following values:
1495:../Library/STM32F10x_StdPeriph_Driver/src/stm32f10x_tim.c ****   *     @arg TIM_OCPreload_Enable
1496:../Library/STM32F10x_StdPeriph_Driver/src/stm32f10x_tim.c ****   *     @arg TIM_OCPreload_Disable
1497:../Library/STM32F10x_StdPeriph_Driver/src/stm32f10x_tim.c ****   * @retval None
1498:../Library/STM32F10x_StdPeriph_Driver/src/stm32f10x_tim.c ****   */
1499:../Library/STM32F10x_StdPeriph_Driver/src/stm32f10x_tim.c **** void TIM_OC1PreloadConfig(TIM_TypeDef* TIMx, uint16_t TIM_OCPreload)
1500:../Library/STM32F10x_StdPeriph_Driver/src/stm32f10x_tim.c **** {
 19865              		.loc 1 1500 0
 19866              		.cfi_startproc
 19867              		@ args = 0, pretend = 0, frame = 0
 19868              		@ frame_needed = 0, uses_anonymous_args = 0
 19869              		@ link register save eliminated.
 19870              	.LVL197:
1501:../Library/STM32F10x_StdPeriph_Driver/src/stm32f10x_tim.c ****   uint16_t tmpccmr1 = 0;
1502:../Library/STM32F10x_StdPeriph_Driver/src/stm32f10x_tim.c ****   /* Check the parameters */
1503:../Library/STM32F10x_StdPeriph_Driver/src/stm32f10x_tim.c ****   assert_param(IS_TIM_LIST8_PERIPH(TIMx));
1504:../Library/STM32F10x_StdPeriph_Driver/src/stm32f10x_tim.c ****   assert_param(IS_TIM_OCPRELOAD_STATE(TIM_OCPreload));
1505:../Library/STM32F10x_StdPeriph_Driver/src/stm32f10x_tim.c ****   tmpccmr1 = TIMx->CCMR1;
 19871              		.loc 1 1505 0
 19872 0000 038B     		ldrh	r3, [r0, #24]
1506:../Library/STM32F10x_StdPeriph_Driver/src/stm32f10x_tim.c ****   /* Reset the OC1PE Bit */
1507:../Library/STM32F10x_StdPeriph_Driver/src/stm32f10x_tim.c ****   tmpccmr1 &= (uint16_t)~((uint16_t)TIM_CCMR1_OC1PE);
 19873              		.loc 1 1507 0
 19874 0002 23F00803 		bic	r3, r3, #8
 19875              	.LVL198:
 19876 0006 4FEA0343 		lsl	r3, r3, #16
 19877              	.LVL199:
 19878 000a 4FEA1343 		lsr	r3, r3, #16
 19879              	.LVL200:
1508:../Library/STM32F10x_StdPeriph_Driver/src/stm32f10x_tim.c ****   /* Enable or Disable the Output Compare Preload feature */
1509:../Library/STM32F10x_StdPeriph_Driver/src/stm32f10x_tim.c ****   tmpccmr1 |= TIM_OCPreload;
 19880              		.loc 1 1509 0
 19881 000e 41EA0303 		orr	r3, r1, r3
 19882              	.LVL201:
1510:../Library/STM32F10x_StdPeriph_Driver/src/stm32f10x_tim.c ****   /* Write to TIMx CCMR1 register */
1511:../Library/STM32F10x_StdPeriph_Driver/src/stm32f10x_tim.c ****   TIMx->CCMR1 = tmpccmr1;
 19883              		.loc 1 1511 0
 19884 0012 0383     		strh	r3, [r0, #24]	@ movhi
1512:../Library/STM32F10x_StdPeriph_Driver/src/stm32f10x_tim.c **** }
 19885              		.loc 1 1512 0
 19886 0014 7047     		bx	lr
 19887              		.cfi_endproc
 19888              	.LFE66:
 19890 0016 00BF     		.section	.text.TIM_OC2PreloadConfig,"ax",%progbits
 19891              		.align	2
 19892              		.global	TIM_OC2PreloadConfig
 19893              		.thumb
 19894              		.thumb_func
 19896              	TIM_OC2PreloadConfig:
 19897              	.LFB67:
1513:../Library/STM32F10x_StdPeriph_Driver/src/stm32f10x_tim.c **** 
1514:../Library/STM32F10x_StdPeriph_Driver/src/stm32f10x_tim.c **** /**
1515:../Library/STM32F10x_StdPeriph_Driver/src/stm32f10x_tim.c ****   * @brief  Enables or disables the TIMx peripheral Preload register on CCR2.
1516:../Library/STM32F10x_StdPeriph_Driver/src/stm32f10x_tim.c ****   * @param  TIMx: where x can be  1, 2, 3, 4, 5, 8, 9, 12 or 15 to select 
1517:../Library/STM32F10x_StdPeriph_Driver/src/stm32f10x_tim.c ****   *   the TIM peripheral.
1518:../Library/STM32F10x_StdPeriph_Driver/src/stm32f10x_tim.c ****   * @param  TIM_OCPreload: new state of the TIMx peripheral Preload register
1519:../Library/STM32F10x_StdPeriph_Driver/src/stm32f10x_tim.c ****   *   This parameter can be one of the following values:
1520:../Library/STM32F10x_StdPeriph_Driver/src/stm32f10x_tim.c ****   *     @arg TIM_OCPreload_Enable
1521:../Library/STM32F10x_StdPeriph_Driver/src/stm32f10x_tim.c ****   *     @arg TIM_OCPreload_Disable
1522:../Library/STM32F10x_StdPeriph_Driver/src/stm32f10x_tim.c ****   * @retval None
1523:../Library/STM32F10x_StdPeriph_Driver/src/stm32f10x_tim.c ****   */
1524:../Library/STM32F10x_StdPeriph_Driver/src/stm32f10x_tim.c **** void TIM_OC2PreloadConfig(TIM_TypeDef* TIMx, uint16_t TIM_OCPreload)
1525:../Library/STM32F10x_StdPeriph_Driver/src/stm32f10x_tim.c **** {
 19898              		.loc 1 1525 0
 19899              		.cfi_startproc
 19900              		@ args = 0, pretend = 0, frame = 0
 19901              		@ frame_needed = 0, uses_anonymous_args = 0
 19902              		@ link register save eliminated.
 19903              	.LVL202:
1526:../Library/STM32F10x_StdPeriph_Driver/src/stm32f10x_tim.c ****   uint16_t tmpccmr1 = 0;
1527:../Library/STM32F10x_StdPeriph_Driver/src/stm32f10x_tim.c ****   /* Check the parameters */
1528:../Library/STM32F10x_StdPeriph_Driver/src/stm32f10x_tim.c ****   assert_param(IS_TIM_LIST6_PERIPH(TIMx));
1529:../Library/STM32F10x_StdPeriph_Driver/src/stm32f10x_tim.c ****   assert_param(IS_TIM_OCPRELOAD_STATE(TIM_OCPreload));
1530:../Library/STM32F10x_StdPeriph_Driver/src/stm32f10x_tim.c ****   tmpccmr1 = TIMx->CCMR1;
 19904              		.loc 1 1530 0
 19905 0000 038B     		ldrh	r3, [r0, #24]
1531:../Library/STM32F10x_StdPeriph_Driver/src/stm32f10x_tim.c ****   /* Reset the OC2PE Bit */
1532:../Library/STM32F10x_StdPeriph_Driver/src/stm32f10x_tim.c ****   tmpccmr1 &= (uint16_t)~((uint16_t)TIM_CCMR1_OC2PE);
 19906              		.loc 1 1532 0
 19907 0002 23F40063 		bic	r3, r3, #2048
 19908              	.LVL203:
 19909 0006 4FEA0343 		lsl	r3, r3, #16
 19910              	.LVL204:
 19911 000a 4FEA1343 		lsr	r3, r3, #16
 19912              	.LVL205:
1533:../Library/STM32F10x_StdPeriph_Driver/src/stm32f10x_tim.c ****   /* Enable or Disable the Output Compare Preload feature */
1534:../Library/STM32F10x_StdPeriph_Driver/src/stm32f10x_tim.c ****   tmpccmr1 |= (uint16_t)(TIM_OCPreload << 8);
 19913              		.loc 1 1534 0
 19914 000e 43EA0123 		orr	r3, r3, r1, lsl #8
 19915              	.LVL206:
 19916 0012 9BB2     		uxth	r3, r3
 19917              	.LVL207:
1535:../Library/STM32F10x_StdPeriph_Driver/src/stm32f10x_tim.c ****   /* Write to TIMx CCMR1 register */
1536:../Library/STM32F10x_StdPeriph_Driver/src/stm32f10x_tim.c ****   TIMx->CCMR1 = tmpccmr1;
 19918              		.loc 1 1536 0
 19919 0014 0383     		strh	r3, [r0, #24]	@ movhi
1537:../Library/STM32F10x_StdPeriph_Driver/src/stm32f10x_tim.c **** }
 19920              		.loc 1 1537 0
 19921 0016 7047     		bx	lr
 19922              		.cfi_endproc
 19923              	.LFE67:
 19925              		.section	.text.TIM_OC3PreloadConfig,"ax",%progbits
 19926              		.align	2
 19927              		.global	TIM_OC3PreloadConfig
 19928              		.thumb
 19929              		.thumb_func
 19931              	TIM_OC3PreloadConfig:
 19932              	.LFB68:
1538:../Library/STM32F10x_StdPeriph_Driver/src/stm32f10x_tim.c **** 
1539:../Library/STM32F10x_StdPeriph_Driver/src/stm32f10x_tim.c **** /**
1540:../Library/STM32F10x_StdPeriph_Driver/src/stm32f10x_tim.c ****   * @brief  Enables or disables the TIMx peripheral Preload register on CCR3.
1541:../Library/STM32F10x_StdPeriph_Driver/src/stm32f10x_tim.c ****   * @param  TIMx: where x can be  1, 2, 3, 4, 5 or 8 to select the TIM peripheral.
1542:../Library/STM32F10x_StdPeriph_Driver/src/stm32f10x_tim.c ****   * @param  TIM_OCPreload: new state of the TIMx peripheral Preload register
1543:../Library/STM32F10x_StdPeriph_Driver/src/stm32f10x_tim.c ****   *   This parameter can be one of the following values:
1544:../Library/STM32F10x_StdPeriph_Driver/src/stm32f10x_tim.c ****   *     @arg TIM_OCPreload_Enable
1545:../Library/STM32F10x_StdPeriph_Driver/src/stm32f10x_tim.c ****   *     @arg TIM_OCPreload_Disable
1546:../Library/STM32F10x_StdPeriph_Driver/src/stm32f10x_tim.c ****   * @retval None
1547:../Library/STM32F10x_StdPeriph_Driver/src/stm32f10x_tim.c ****   */
1548:../Library/STM32F10x_StdPeriph_Driver/src/stm32f10x_tim.c **** void TIM_OC3PreloadConfig(TIM_TypeDef* TIMx, uint16_t TIM_OCPreload)
1549:../Library/STM32F10x_StdPeriph_Driver/src/stm32f10x_tim.c **** {
 19933              		.loc 1 1549 0
 19934              		.cfi_startproc
 19935              		@ args = 0, pretend = 0, frame = 0
 19936              		@ frame_needed = 0, uses_anonymous_args = 0
 19937              		@ link register save eliminated.
 19938              	.LVL208:
1550:../Library/STM32F10x_StdPeriph_Driver/src/stm32f10x_tim.c ****   uint16_t tmpccmr2 = 0;
1551:../Library/STM32F10x_StdPeriph_Driver/src/stm32f10x_tim.c ****   /* Check the parameters */
1552:../Library/STM32F10x_StdPeriph_Driver/src/stm32f10x_tim.c ****   assert_param(IS_TIM_LIST3_PERIPH(TIMx));
1553:../Library/STM32F10x_StdPeriph_Driver/src/stm32f10x_tim.c ****   assert_param(IS_TIM_OCPRELOAD_STATE(TIM_OCPreload));
1554:../Library/STM32F10x_StdPeriph_Driver/src/stm32f10x_tim.c ****   tmpccmr2 = TIMx->CCMR2;
 19939              		.loc 1 1554 0
 19940 0000 838B     		ldrh	r3, [r0, #28]
1555:../Library/STM32F10x_StdPeriph_Driver/src/stm32f10x_tim.c ****   /* Reset the OC3PE Bit */
1556:../Library/STM32F10x_StdPeriph_Driver/src/stm32f10x_tim.c ****   tmpccmr2 &= (uint16_t)~((uint16_t)TIM_CCMR2_OC3PE);
 19941              		.loc 1 1556 0
 19942 0002 23F00803 		bic	r3, r3, #8
 19943              	.LVL209:
 19944 0006 4FEA0343 		lsl	r3, r3, #16
 19945              	.LVL210:
 19946 000a 4FEA1343 		lsr	r3, r3, #16
 19947              	.LVL211:
1557:../Library/STM32F10x_StdPeriph_Driver/src/stm32f10x_tim.c ****   /* Enable or Disable the Output Compare Preload feature */
1558:../Library/STM32F10x_StdPeriph_Driver/src/stm32f10x_tim.c ****   tmpccmr2 |= TIM_OCPreload;
 19948              		.loc 1 1558 0
 19949 000e 41EA0303 		orr	r3, r1, r3
 19950              	.LVL212:
1559:../Library/STM32F10x_StdPeriph_Driver/src/stm32f10x_tim.c ****   /* Write to TIMx CCMR2 register */
1560:../Library/STM32F10x_StdPeriph_Driver/src/stm32f10x_tim.c ****   TIMx->CCMR2 = tmpccmr2;
 19951              		.loc 1 1560 0
 19952 0012 8383     		strh	r3, [r0, #28]	@ movhi
1561:../Library/STM32F10x_StdPeriph_Driver/src/stm32f10x_tim.c **** }
 19953              		.loc 1 1561 0
 19954 0014 7047     		bx	lr
 19955              		.cfi_endproc
 19956              	.LFE68:
 19958 0016 00BF     		.section	.text.TIM_OC4PreloadConfig,"ax",%progbits
 19959              		.align	2
 19960              		.global	TIM_OC4PreloadConfig
 19961              		.thumb
 19962              		.thumb_func
 19964              	TIM_OC4PreloadConfig:
 19965              	.LFB69:
1562:../Library/STM32F10x_StdPeriph_Driver/src/stm32f10x_tim.c **** 
1563:../Library/STM32F10x_StdPeriph_Driver/src/stm32f10x_tim.c **** /**
1564:../Library/STM32F10x_StdPeriph_Driver/src/stm32f10x_tim.c ****   * @brief  Enables or disables the TIMx peripheral Preload register on CCR4.
1565:../Library/STM32F10x_StdPeriph_Driver/src/stm32f10x_tim.c ****   * @param  TIMx: where x can be  1, 2, 3, 4, 5 or 8 to select the TIM peripheral.
1566:../Library/STM32F10x_StdPeriph_Driver/src/stm32f10x_tim.c ****   * @param  TIM_OCPreload: new state of the TIMx peripheral Preload register
1567:../Library/STM32F10x_StdPeriph_Driver/src/stm32f10x_tim.c ****   *   This parameter can be one of the following values:
1568:../Library/STM32F10x_StdPeriph_Driver/src/stm32f10x_tim.c ****   *     @arg TIM_OCPreload_Enable
1569:../Library/STM32F10x_StdPeriph_Driver/src/stm32f10x_tim.c ****   *     @arg TIM_OCPreload_Disable
1570:../Library/STM32F10x_StdPeriph_Driver/src/stm32f10x_tim.c ****   * @retval None
1571:../Library/STM32F10x_StdPeriph_Driver/src/stm32f10x_tim.c ****   */
1572:../Library/STM32F10x_StdPeriph_Driver/src/stm32f10x_tim.c **** void TIM_OC4PreloadConfig(TIM_TypeDef* TIMx, uint16_t TIM_OCPreload)
1573:../Library/STM32F10x_StdPeriph_Driver/src/stm32f10x_tim.c **** {
 19966              		.loc 1 1573 0
 19967              		.cfi_startproc
 19968              		@ args = 0, pretend = 0, frame = 0
 19969              		@ frame_needed = 0, uses_anonymous_args = 0
 19970              		@ link register save eliminated.
 19971              	.LVL213:
1574:../Library/STM32F10x_StdPeriph_Driver/src/stm32f10x_tim.c ****   uint16_t tmpccmr2 = 0;
1575:../Library/STM32F10x_StdPeriph_Driver/src/stm32f10x_tim.c ****   /* Check the parameters */
1576:../Library/STM32F10x_StdPeriph_Driver/src/stm32f10x_tim.c ****   assert_param(IS_TIM_LIST3_PERIPH(TIMx));
1577:../Library/STM32F10x_StdPeriph_Driver/src/stm32f10x_tim.c ****   assert_param(IS_TIM_OCPRELOAD_STATE(TIM_OCPreload));
1578:../Library/STM32F10x_StdPeriph_Driver/src/stm32f10x_tim.c ****   tmpccmr2 = TIMx->CCMR2;
 19972              		.loc 1 1578 0
 19973 0000 838B     		ldrh	r3, [r0, #28]
1579:../Library/STM32F10x_StdPeriph_Driver/src/stm32f10x_tim.c ****   /* Reset the OC4PE Bit */
1580:../Library/STM32F10x_StdPeriph_Driver/src/stm32f10x_tim.c ****   tmpccmr2 &= (uint16_t)~((uint16_t)TIM_CCMR2_OC4PE);
 19974              		.loc 1 1580 0
 19975 0002 23F40063 		bic	r3, r3, #2048
 19976              	.LVL214:
 19977 0006 4FEA0343 		lsl	r3, r3, #16
 19978              	.LVL215:
 19979 000a 4FEA1343 		lsr	r3, r3, #16
 19980              	.LVL216:
1581:../Library/STM32F10x_StdPeriph_Driver/src/stm32f10x_tim.c ****   /* Enable or Disable the Output Compare Preload feature */
1582:../Library/STM32F10x_StdPeriph_Driver/src/stm32f10x_tim.c ****   tmpccmr2 |= (uint16_t)(TIM_OCPreload << 8);
 19981              		.loc 1 1582 0
 19982 000e 43EA0123 		orr	r3, r3, r1, lsl #8
 19983              	.LVL217:
 19984 0012 9BB2     		uxth	r3, r3
 19985              	.LVL218:
1583:../Library/STM32F10x_StdPeriph_Driver/src/stm32f10x_tim.c ****   /* Write to TIMx CCMR2 register */
1584:../Library/STM32F10x_StdPeriph_Driver/src/stm32f10x_tim.c ****   TIMx->CCMR2 = tmpccmr2;
 19986              		.loc 1 1584 0
 19987 0014 8383     		strh	r3, [r0, #28]	@ movhi
1585:../Library/STM32F10x_StdPeriph_Driver/src/stm32f10x_tim.c **** }
 19988              		.loc 1 1585 0
 19989 0016 7047     		bx	lr
 19990              		.cfi_endproc
 19991              	.LFE69:
 19993              		.section	.text.TIM_OC1FastConfig,"ax",%progbits
 19994              		.align	2
 19995              		.global	TIM_OC1FastConfig
 19996              		.thumb
 19997              		.thumb_func
 19999              	TIM_OC1FastConfig:
 20000              	.LFB70:
1586:../Library/STM32F10x_StdPeriph_Driver/src/stm32f10x_tim.c **** 
1587:../Library/STM32F10x_StdPeriph_Driver/src/stm32f10x_tim.c **** /**
1588:../Library/STM32F10x_StdPeriph_Driver/src/stm32f10x_tim.c ****   * @brief  Configures the TIMx Output Compare 1 Fast feature.
1589:../Library/STM32F10x_StdPeriph_Driver/src/stm32f10x_tim.c ****   * @param  TIMx: where x can be  1 to 17 except 6 and 7 to select the TIM peripheral.
1590:../Library/STM32F10x_StdPeriph_Driver/src/stm32f10x_tim.c ****   * @param  TIM_OCFast: new state of the Output Compare Fast Enable Bit.
1591:../Library/STM32F10x_StdPeriph_Driver/src/stm32f10x_tim.c ****   *   This parameter can be one of the following values:
1592:../Library/STM32F10x_StdPeriph_Driver/src/stm32f10x_tim.c ****   *     @arg TIM_OCFast_Enable: TIM output compare fast enable
1593:../Library/STM32F10x_StdPeriph_Driver/src/stm32f10x_tim.c ****   *     @arg TIM_OCFast_Disable: TIM output compare fast disable
1594:../Library/STM32F10x_StdPeriph_Driver/src/stm32f10x_tim.c ****   * @retval None
1595:../Library/STM32F10x_StdPeriph_Driver/src/stm32f10x_tim.c ****   */
1596:../Library/STM32F10x_StdPeriph_Driver/src/stm32f10x_tim.c **** void TIM_OC1FastConfig(TIM_TypeDef* TIMx, uint16_t TIM_OCFast)
1597:../Library/STM32F10x_StdPeriph_Driver/src/stm32f10x_tim.c **** {
 20001              		.loc 1 1597 0
 20002              		.cfi_startproc
 20003              		@ args = 0, pretend = 0, frame = 0
 20004              		@ frame_needed = 0, uses_anonymous_args = 0
 20005              		@ link register save eliminated.
 20006              	.LVL219:
1598:../Library/STM32F10x_StdPeriph_Driver/src/stm32f10x_tim.c ****   uint16_t tmpccmr1 = 0;
1599:../Library/STM32F10x_StdPeriph_Driver/src/stm32f10x_tim.c ****   /* Check the parameters */
1600:../Library/STM32F10x_StdPeriph_Driver/src/stm32f10x_tim.c ****   assert_param(IS_TIM_LIST8_PERIPH(TIMx));
1601:../Library/STM32F10x_StdPeriph_Driver/src/stm32f10x_tim.c ****   assert_param(IS_TIM_OCFAST_STATE(TIM_OCFast));
1602:../Library/STM32F10x_StdPeriph_Driver/src/stm32f10x_tim.c ****   /* Get the TIMx CCMR1 register value */
1603:../Library/STM32F10x_StdPeriph_Driver/src/stm32f10x_tim.c ****   tmpccmr1 = TIMx->CCMR1;
 20007              		.loc 1 1603 0
 20008 0000 038B     		ldrh	r3, [r0, #24]
1604:../Library/STM32F10x_StdPeriph_Driver/src/stm32f10x_tim.c ****   /* Reset the OC1FE Bit */
1605:../Library/STM32F10x_StdPeriph_Driver/src/stm32f10x_tim.c ****   tmpccmr1 &= (uint16_t)~((uint16_t)TIM_CCMR1_OC1FE);
 20009              		.loc 1 1605 0
 20010 0002 23F00403 		bic	r3, r3, #4
 20011              	.LVL220:
 20012 0006 4FEA0343 		lsl	r3, r3, #16
 20013              	.LVL221:
 20014 000a 4FEA1343 		lsr	r3, r3, #16
 20015              	.LVL222:
1606:../Library/STM32F10x_StdPeriph_Driver/src/stm32f10x_tim.c ****   /* Enable or Disable the Output Compare Fast Bit */
1607:../Library/STM32F10x_StdPeriph_Driver/src/stm32f10x_tim.c ****   tmpccmr1 |= TIM_OCFast;
 20016              		.loc 1 1607 0
 20017 000e 41EA0303 		orr	r3, r1, r3
 20018              	.LVL223:
1608:../Library/STM32F10x_StdPeriph_Driver/src/stm32f10x_tim.c ****   /* Write to TIMx CCMR1 */
1609:../Library/STM32F10x_StdPeriph_Driver/src/stm32f10x_tim.c ****   TIMx->CCMR1 = tmpccmr1;
 20019              		.loc 1 1609 0
 20020 0012 0383     		strh	r3, [r0, #24]	@ movhi
1610:../Library/STM32F10x_StdPeriph_Driver/src/stm32f10x_tim.c **** }
 20021              		.loc 1 1610 0
 20022 0014 7047     		bx	lr
 20023              		.cfi_endproc
 20024              	.LFE70:
 20026 0016 00BF     		.section	.text.TIM_OC2FastConfig,"ax",%progbits
 20027              		.align	2
 20028              		.global	TIM_OC2FastConfig
 20029              		.thumb
 20030              		.thumb_func
 20032              	TIM_OC2FastConfig:
 20033              	.LFB71:
1611:../Library/STM32F10x_StdPeriph_Driver/src/stm32f10x_tim.c **** 
1612:../Library/STM32F10x_StdPeriph_Driver/src/stm32f10x_tim.c **** /**
1613:../Library/STM32F10x_StdPeriph_Driver/src/stm32f10x_tim.c ****   * @brief  Configures the TIMx Output Compare 2 Fast feature.
1614:../Library/STM32F10x_StdPeriph_Driver/src/stm32f10x_tim.c ****   * @param  TIMx: where x can be  1, 2, 3, 4, 5, 8, 9, 12 or 15 to select 
1615:../Library/STM32F10x_StdPeriph_Driver/src/stm32f10x_tim.c ****   *   the TIM peripheral.
1616:../Library/STM32F10x_StdPeriph_Driver/src/stm32f10x_tim.c ****   * @param  TIM_OCFast: new state of the Output Compare Fast Enable Bit.
1617:../Library/STM32F10x_StdPeriph_Driver/src/stm32f10x_tim.c ****   *   This parameter can be one of the following values:
1618:../Library/STM32F10x_StdPeriph_Driver/src/stm32f10x_tim.c ****   *     @arg TIM_OCFast_Enable: TIM output compare fast enable
1619:../Library/STM32F10x_StdPeriph_Driver/src/stm32f10x_tim.c ****   *     @arg TIM_OCFast_Disable: TIM output compare fast disable
1620:../Library/STM32F10x_StdPeriph_Driver/src/stm32f10x_tim.c ****   * @retval None
1621:../Library/STM32F10x_StdPeriph_Driver/src/stm32f10x_tim.c ****   */
1622:../Library/STM32F10x_StdPeriph_Driver/src/stm32f10x_tim.c **** void TIM_OC2FastConfig(TIM_TypeDef* TIMx, uint16_t TIM_OCFast)
1623:../Library/STM32F10x_StdPeriph_Driver/src/stm32f10x_tim.c **** {
 20034              		.loc 1 1623 0
 20035              		.cfi_startproc
 20036              		@ args = 0, pretend = 0, frame = 0
 20037              		@ frame_needed = 0, uses_anonymous_args = 0
 20038              		@ link register save eliminated.
 20039              	.LVL224:
1624:../Library/STM32F10x_StdPeriph_Driver/src/stm32f10x_tim.c ****   uint16_t tmpccmr1 = 0;
1625:../Library/STM32F10x_StdPeriph_Driver/src/stm32f10x_tim.c ****   /* Check the parameters */
1626:../Library/STM32F10x_StdPeriph_Driver/src/stm32f10x_tim.c ****   assert_param(IS_TIM_LIST6_PERIPH(TIMx));
1627:../Library/STM32F10x_StdPeriph_Driver/src/stm32f10x_tim.c ****   assert_param(IS_TIM_OCFAST_STATE(TIM_OCFast));
1628:../Library/STM32F10x_StdPeriph_Driver/src/stm32f10x_tim.c ****   /* Get the TIMx CCMR1 register value */
1629:../Library/STM32F10x_StdPeriph_Driver/src/stm32f10x_tim.c ****   tmpccmr1 = TIMx->CCMR1;
 20040              		.loc 1 1629 0
 20041 0000 038B     		ldrh	r3, [r0, #24]
1630:../Library/STM32F10x_StdPeriph_Driver/src/stm32f10x_tim.c ****   /* Reset the OC2FE Bit */
1631:../Library/STM32F10x_StdPeriph_Driver/src/stm32f10x_tim.c ****   tmpccmr1 &= (uint16_t)~((uint16_t)TIM_CCMR1_OC2FE);
 20042              		.loc 1 1631 0
 20043 0002 23F48063 		bic	r3, r3, #1024
 20044              	.LVL225:
 20045 0006 4FEA0343 		lsl	r3, r3, #16
 20046              	.LVL226:
 20047 000a 4FEA1343 		lsr	r3, r3, #16
 20048              	.LVL227:
1632:../Library/STM32F10x_StdPeriph_Driver/src/stm32f10x_tim.c ****   /* Enable or Disable the Output Compare Fast Bit */
1633:../Library/STM32F10x_StdPeriph_Driver/src/stm32f10x_tim.c ****   tmpccmr1 |= (uint16_t)(TIM_OCFast << 8);
 20049              		.loc 1 1633 0
 20050 000e 43EA0123 		orr	r3, r3, r1, lsl #8
 20051              	.LVL228:
 20052 0012 9BB2     		uxth	r3, r3
 20053              	.LVL229:
1634:../Library/STM32F10x_StdPeriph_Driver/src/stm32f10x_tim.c ****   /* Write to TIMx CCMR1 */
1635:../Library/STM32F10x_StdPeriph_Driver/src/stm32f10x_tim.c ****   TIMx->CCMR1 = tmpccmr1;
 20054              		.loc 1 1635 0
 20055 0014 0383     		strh	r3, [r0, #24]	@ movhi
1636:../Library/STM32F10x_StdPeriph_Driver/src/stm32f10x_tim.c **** }
 20056              		.loc 1 1636 0
 20057 0016 7047     		bx	lr
 20058              		.cfi_endproc
 20059              	.LFE71:
 20061              		.section	.text.TIM_OC3FastConfig,"ax",%progbits
 20062              		.align	2
 20063              		.global	TIM_OC3FastConfig
 20064              		.thumb
 20065              		.thumb_func
 20067              	TIM_OC3FastConfig:
 20068              	.LFB72:
1637:../Library/STM32F10x_StdPeriph_Driver/src/stm32f10x_tim.c **** 
1638:../Library/STM32F10x_StdPeriph_Driver/src/stm32f10x_tim.c **** /**
1639:../Library/STM32F10x_StdPeriph_Driver/src/stm32f10x_tim.c ****   * @brief  Configures the TIMx Output Compare 3 Fast feature.
1640:../Library/STM32F10x_StdPeriph_Driver/src/stm32f10x_tim.c ****   * @param  TIMx: where x can be  1, 2, 3, 4, 5 or 8 to select the TIM peripheral.
1641:../Library/STM32F10x_StdPeriph_Driver/src/stm32f10x_tim.c ****   * @param  TIM_OCFast: new state of the Output Compare Fast Enable Bit.
1642:../Library/STM32F10x_StdPeriph_Driver/src/stm32f10x_tim.c ****   *   This parameter can be one of the following values:
1643:../Library/STM32F10x_StdPeriph_Driver/src/stm32f10x_tim.c ****   *     @arg TIM_OCFast_Enable: TIM output compare fast enable
1644:../Library/STM32F10x_StdPeriph_Driver/src/stm32f10x_tim.c ****   *     @arg TIM_OCFast_Disable: TIM output compare fast disable
1645:../Library/STM32F10x_StdPeriph_Driver/src/stm32f10x_tim.c ****   * @retval None
1646:../Library/STM32F10x_StdPeriph_Driver/src/stm32f10x_tim.c ****   */
1647:../Library/STM32F10x_StdPeriph_Driver/src/stm32f10x_tim.c **** void TIM_OC3FastConfig(TIM_TypeDef* TIMx, uint16_t TIM_OCFast)
1648:../Library/STM32F10x_StdPeriph_Driver/src/stm32f10x_tim.c **** {
 20069              		.loc 1 1648 0
 20070              		.cfi_startproc
 20071              		@ args = 0, pretend = 0, frame = 0
 20072              		@ frame_needed = 0, uses_anonymous_args = 0
 20073              		@ link register save eliminated.
 20074              	.LVL230:
1649:../Library/STM32F10x_StdPeriph_Driver/src/stm32f10x_tim.c ****   uint16_t tmpccmr2 = 0;
1650:../Library/STM32F10x_StdPeriph_Driver/src/stm32f10x_tim.c ****   /* Check the parameters */
1651:../Library/STM32F10x_StdPeriph_Driver/src/stm32f10x_tim.c ****   assert_param(IS_TIM_LIST3_PERIPH(TIMx));
1652:../Library/STM32F10x_StdPeriph_Driver/src/stm32f10x_tim.c ****   assert_param(IS_TIM_OCFAST_STATE(TIM_OCFast));
1653:../Library/STM32F10x_StdPeriph_Driver/src/stm32f10x_tim.c ****   /* Get the TIMx CCMR2 register value */
1654:../Library/STM32F10x_StdPeriph_Driver/src/stm32f10x_tim.c ****   tmpccmr2 = TIMx->CCMR2;
 20075              		.loc 1 1654 0
 20076 0000 838B     		ldrh	r3, [r0, #28]
1655:../Library/STM32F10x_StdPeriph_Driver/src/stm32f10x_tim.c ****   /* Reset the OC3FE Bit */
1656:../Library/STM32F10x_StdPeriph_Driver/src/stm32f10x_tim.c ****   tmpccmr2 &= (uint16_t)~((uint16_t)TIM_CCMR2_OC3FE);
 20077              		.loc 1 1656 0
 20078 0002 23F00403 		bic	r3, r3, #4
 20079              	.LVL231:
 20080 0006 4FEA0343 		lsl	r3, r3, #16
 20081              	.LVL232:
 20082 000a 4FEA1343 		lsr	r3, r3, #16
 20083              	.LVL233:
1657:../Library/STM32F10x_StdPeriph_Driver/src/stm32f10x_tim.c ****   /* Enable or Disable the Output Compare Fast Bit */
1658:../Library/STM32F10x_StdPeriph_Driver/src/stm32f10x_tim.c ****   tmpccmr2 |= TIM_OCFast;
 20084              		.loc 1 1658 0
 20085 000e 41EA0303 		orr	r3, r1, r3
 20086              	.LVL234:
1659:../Library/STM32F10x_StdPeriph_Driver/src/stm32f10x_tim.c ****   /* Write to TIMx CCMR2 */
1660:../Library/STM32F10x_StdPeriph_Driver/src/stm32f10x_tim.c ****   TIMx->CCMR2 = tmpccmr2;
 20087              		.loc 1 1660 0
 20088 0012 8383     		strh	r3, [r0, #28]	@ movhi
1661:../Library/STM32F10x_StdPeriph_Driver/src/stm32f10x_tim.c **** }
 20089              		.loc 1 1661 0
 20090 0014 7047     		bx	lr
 20091              		.cfi_endproc
 20092              	.LFE72:
 20094 0016 00BF     		.section	.text.TIM_OC4FastConfig,"ax",%progbits
 20095              		.align	2
 20096              		.global	TIM_OC4FastConfig
 20097              		.thumb
 20098              		.thumb_func
 20100              	TIM_OC4FastConfig:
 20101              	.LFB73:
1662:../Library/STM32F10x_StdPeriph_Driver/src/stm32f10x_tim.c **** 
1663:../Library/STM32F10x_StdPeriph_Driver/src/stm32f10x_tim.c **** /**
1664:../Library/STM32F10x_StdPeriph_Driver/src/stm32f10x_tim.c ****   * @brief  Configures the TIMx Output Compare 4 Fast feature.
1665:../Library/STM32F10x_StdPeriph_Driver/src/stm32f10x_tim.c ****   * @param  TIMx: where x can be  1, 2, 3, 4, 5 or 8 to select the TIM peripheral.
1666:../Library/STM32F10x_StdPeriph_Driver/src/stm32f10x_tim.c ****   * @param  TIM_OCFast: new state of the Output Compare Fast Enable Bit.
1667:../Library/STM32F10x_StdPeriph_Driver/src/stm32f10x_tim.c ****   *   This parameter can be one of the following values:
1668:../Library/STM32F10x_StdPeriph_Driver/src/stm32f10x_tim.c ****   *     @arg TIM_OCFast_Enable: TIM output compare fast enable
1669:../Library/STM32F10x_StdPeriph_Driver/src/stm32f10x_tim.c ****   *     @arg TIM_OCFast_Disable: TIM output compare fast disable
1670:../Library/STM32F10x_StdPeriph_Driver/src/stm32f10x_tim.c ****   * @retval None
1671:../Library/STM32F10x_StdPeriph_Driver/src/stm32f10x_tim.c ****   */
1672:../Library/STM32F10x_StdPeriph_Driver/src/stm32f10x_tim.c **** void TIM_OC4FastConfig(TIM_TypeDef* TIMx, uint16_t TIM_OCFast)
1673:../Library/STM32F10x_StdPeriph_Driver/src/stm32f10x_tim.c **** {
 20102              		.loc 1 1673 0
 20103              		.cfi_startproc
 20104              		@ args = 0, pretend = 0, frame = 0
 20105              		@ frame_needed = 0, uses_anonymous_args = 0
 20106              		@ link register save eliminated.
 20107              	.LVL235:
1674:../Library/STM32F10x_StdPeriph_Driver/src/stm32f10x_tim.c ****   uint16_t tmpccmr2 = 0;
1675:../Library/STM32F10x_StdPeriph_Driver/src/stm32f10x_tim.c ****   /* Check the parameters */
1676:../Library/STM32F10x_StdPeriph_Driver/src/stm32f10x_tim.c ****   assert_param(IS_TIM_LIST3_PERIPH(TIMx));
1677:../Library/STM32F10x_StdPeriph_Driver/src/stm32f10x_tim.c ****   assert_param(IS_TIM_OCFAST_STATE(TIM_OCFast));
1678:../Library/STM32F10x_StdPeriph_Driver/src/stm32f10x_tim.c ****   /* Get the TIMx CCMR2 register value */
1679:../Library/STM32F10x_StdPeriph_Driver/src/stm32f10x_tim.c ****   tmpccmr2 = TIMx->CCMR2;
 20108              		.loc 1 1679 0
 20109 0000 838B     		ldrh	r3, [r0, #28]
1680:../Library/STM32F10x_StdPeriph_Driver/src/stm32f10x_tim.c ****   /* Reset the OC4FE Bit */
1681:../Library/STM32F10x_StdPeriph_Driver/src/stm32f10x_tim.c ****   tmpccmr2 &= (uint16_t)~((uint16_t)TIM_CCMR2_OC4FE);
 20110              		.loc 1 1681 0
 20111 0002 23F48063 		bic	r3, r3, #1024
 20112              	.LVL236:
 20113 0006 4FEA0343 		lsl	r3, r3, #16
 20114              	.LVL237:
 20115 000a 4FEA1343 		lsr	r3, r3, #16
 20116              	.LVL238:
1682:../Library/STM32F10x_StdPeriph_Driver/src/stm32f10x_tim.c ****   /* Enable or Disable the Output Compare Fast Bit */
