   1              		.syntax unified
   2              		.cpu cortex-m3
   3              		.fpu softvfp
   4              		.eabi_attribute 20, 1
   5              		.eabi_attribute 21, 1
   6              		.eabi_attribute 23, 3
   7              		.eabi_attribute 24, 1
   8              		.eabi_attribute 25, 1
   9              		.eabi_attribute 26, 1
  10              		.eabi_attribute 30, 1
  11              		.eabi_attribute 18, 4
  12              		.thumb
  13              		.file	"stm32f10x_exti.c"
  23              	.Ltext0:
  24              		.file 1 "../Library/STM32F10x_StdPeriph_Driver/src/stm32f10x_exti.c"
 18233              		.align	2
 18234              		.global	EXTI_DeInit
 18235              		.thumb
 18236              		.thumb_func
 18238              	EXTI_DeInit:
 18239              	.LFB29:
   1:../Library/STM32F10x_StdPeriph_Driver/src/stm32f10x_exti.c **** /**
   2:../Library/STM32F10x_StdPeriph_Driver/src/stm32f10x_exti.c ****   ******************************************************************************
   3:../Library/STM32F10x_StdPeriph_Driver/src/stm32f10x_exti.c ****   * @file    stm32f10x_exti.c
   4:../Library/STM32F10x_StdPeriph_Driver/src/stm32f10x_exti.c ****   * @author  MCD Application Team
   5:../Library/STM32F10x_StdPeriph_Driver/src/stm32f10x_exti.c ****   * @version V3.3.0
   6:../Library/STM32F10x_StdPeriph_Driver/src/stm32f10x_exti.c ****   * @date    04/16/2010
   7:../Library/STM32F10x_StdPeriph_Driver/src/stm32f10x_exti.c ****   * @brief   This file provides all the EXTI firmware functions.
   8:../Library/STM32F10x_StdPeriph_Driver/src/stm32f10x_exti.c ****   ******************************************************************************
   9:../Library/STM32F10x_StdPeriph_Driver/src/stm32f10x_exti.c ****   * @copy
  10:../Library/STM32F10x_StdPeriph_Driver/src/stm32f10x_exti.c ****   *
  11:../Library/STM32F10x_StdPeriph_Driver/src/stm32f10x_exti.c ****   * THE PRESENT FIRMWARE WHICH IS FOR GUIDANCE ONLY AIMS AT PROVIDING CUSTOMERS
  12:../Library/STM32F10x_StdPeriph_Driver/src/stm32f10x_exti.c ****   * WITH CODING INFORMATION REGARDING THEIR PRODUCTS IN ORDER FOR THEM TO SAVE
  13:../Library/STM32F10x_StdPeriph_Driver/src/stm32f10x_exti.c ****   * TIME. AS A RESULT, STMICROELECTRONICS SHALL NOT BE HELD LIABLE FOR ANY
  14:../Library/STM32F10x_StdPeriph_Driver/src/stm32f10x_exti.c ****   * DIRECT, INDIRECT OR CONSEQUENTIAL DAMAGES WITH RESPECT TO ANY CLAIMS ARISING
  15:../Library/STM32F10x_StdPeriph_Driver/src/stm32f10x_exti.c ****   * FROM THE CONTENT OF SUCH FIRMWARE AND/OR THE USE MADE BY CUSTOMERS OF THE
  16:../Library/STM32F10x_StdPeriph_Driver/src/stm32f10x_exti.c ****   * CODING INFORMATION CONTAINED HEREIN IN CONNECTION WITH THEIR PRODUCTS.
  17:../Library/STM32F10x_StdPeriph_Driver/src/stm32f10x_exti.c ****   *
  18:../Library/STM32F10x_StdPeriph_Driver/src/stm32f10x_exti.c ****   * <h2><center>&copy; COPYRIGHT 2010 STMicroelectronics</center></h2>
  19:../Library/STM32F10x_StdPeriph_Driver/src/stm32f10x_exti.c ****   */ 
  20:../Library/STM32F10x_StdPeriph_Driver/src/stm32f10x_exti.c **** 
  21:../Library/STM32F10x_StdPeriph_Driver/src/stm32f10x_exti.c **** /* Includes ------------------------------------------------------------------*/
  22:../Library/STM32F10x_StdPeriph_Driver/src/stm32f10x_exti.c **** #include "stm32f10x_exti.h"
  23:../Library/STM32F10x_StdPeriph_Driver/src/stm32f10x_exti.c **** 
  24:../Library/STM32F10x_StdPeriph_Driver/src/stm32f10x_exti.c **** /** @addtogroup STM32F10x_StdPeriph_Driver
  25:../Library/STM32F10x_StdPeriph_Driver/src/stm32f10x_exti.c ****   * @{
  26:../Library/STM32F10x_StdPeriph_Driver/src/stm32f10x_exti.c ****   */
  27:../Library/STM32F10x_StdPeriph_Driver/src/stm32f10x_exti.c **** 
  28:../Library/STM32F10x_StdPeriph_Driver/src/stm32f10x_exti.c **** /** @defgroup EXTI 
  29:../Library/STM32F10x_StdPeriph_Driver/src/stm32f10x_exti.c ****   * @brief EXTI driver modules
  30:../Library/STM32F10x_StdPeriph_Driver/src/stm32f10x_exti.c ****   * @{
  31:../Library/STM32F10x_StdPeriph_Driver/src/stm32f10x_exti.c ****   */
  32:../Library/STM32F10x_StdPeriph_Driver/src/stm32f10x_exti.c **** 
  33:../Library/STM32F10x_StdPeriph_Driver/src/stm32f10x_exti.c **** /** @defgroup EXTI_Private_TypesDefinitions
  34:../Library/STM32F10x_StdPeriph_Driver/src/stm32f10x_exti.c ****   * @{
  35:../Library/STM32F10x_StdPeriph_Driver/src/stm32f10x_exti.c ****   */
  36:../Library/STM32F10x_StdPeriph_Driver/src/stm32f10x_exti.c **** 
  37:../Library/STM32F10x_StdPeriph_Driver/src/stm32f10x_exti.c **** /**
  38:../Library/STM32F10x_StdPeriph_Driver/src/stm32f10x_exti.c ****   * @}
  39:../Library/STM32F10x_StdPeriph_Driver/src/stm32f10x_exti.c ****   */
  40:../Library/STM32F10x_StdPeriph_Driver/src/stm32f10x_exti.c **** 
  41:../Library/STM32F10x_StdPeriph_Driver/src/stm32f10x_exti.c **** /** @defgroup EXTI_Private_Defines
  42:../Library/STM32F10x_StdPeriph_Driver/src/stm32f10x_exti.c ****   * @{
  43:../Library/STM32F10x_StdPeriph_Driver/src/stm32f10x_exti.c ****   */
  44:../Library/STM32F10x_StdPeriph_Driver/src/stm32f10x_exti.c **** 
  45:../Library/STM32F10x_StdPeriph_Driver/src/stm32f10x_exti.c **** #define EXTI_LineNone    ((uint32_t)0x00000)  /* No interrupt selected */
  46:../Library/STM32F10x_StdPeriph_Driver/src/stm32f10x_exti.c **** 
  47:../Library/STM32F10x_StdPeriph_Driver/src/stm32f10x_exti.c **** /**
  48:../Library/STM32F10x_StdPeriph_Driver/src/stm32f10x_exti.c ****   * @}
  49:../Library/STM32F10x_StdPeriph_Driver/src/stm32f10x_exti.c ****   */
  50:../Library/STM32F10x_StdPeriph_Driver/src/stm32f10x_exti.c **** 
  51:../Library/STM32F10x_StdPeriph_Driver/src/stm32f10x_exti.c **** /** @defgroup EXTI_Private_Macros
  52:../Library/STM32F10x_StdPeriph_Driver/src/stm32f10x_exti.c ****   * @{
  53:../Library/STM32F10x_StdPeriph_Driver/src/stm32f10x_exti.c ****   */
  54:../Library/STM32F10x_StdPeriph_Driver/src/stm32f10x_exti.c **** 
  55:../Library/STM32F10x_StdPeriph_Driver/src/stm32f10x_exti.c **** /**
  56:../Library/STM32F10x_StdPeriph_Driver/src/stm32f10x_exti.c ****   * @}
  57:../Library/STM32F10x_StdPeriph_Driver/src/stm32f10x_exti.c ****   */
  58:../Library/STM32F10x_StdPeriph_Driver/src/stm32f10x_exti.c **** 
  59:../Library/STM32F10x_StdPeriph_Driver/src/stm32f10x_exti.c **** /** @defgroup EXTI_Private_Variables
  60:../Library/STM32F10x_StdPeriph_Driver/src/stm32f10x_exti.c ****   * @{
  61:../Library/STM32F10x_StdPeriph_Driver/src/stm32f10x_exti.c ****   */
  62:../Library/STM32F10x_StdPeriph_Driver/src/stm32f10x_exti.c **** 
  63:../Library/STM32F10x_StdPeriph_Driver/src/stm32f10x_exti.c **** /**
  64:../Library/STM32F10x_StdPeriph_Driver/src/stm32f10x_exti.c ****   * @}
  65:../Library/STM32F10x_StdPeriph_Driver/src/stm32f10x_exti.c ****   */
  66:../Library/STM32F10x_StdPeriph_Driver/src/stm32f10x_exti.c **** 
  67:../Library/STM32F10x_StdPeriph_Driver/src/stm32f10x_exti.c **** /** @defgroup EXTI_Private_FunctionPrototypes
  68:../Library/STM32F10x_StdPeriph_Driver/src/stm32f10x_exti.c ****   * @{
  69:../Library/STM32F10x_StdPeriph_Driver/src/stm32f10x_exti.c ****   */
  70:../Library/STM32F10x_StdPeriph_Driver/src/stm32f10x_exti.c **** 
  71:../Library/STM32F10x_StdPeriph_Driver/src/stm32f10x_exti.c **** /**
  72:../Library/STM32F10x_StdPeriph_Driver/src/stm32f10x_exti.c ****   * @}
  73:../Library/STM32F10x_StdPeriph_Driver/src/stm32f10x_exti.c ****   */
  74:../Library/STM32F10x_StdPeriph_Driver/src/stm32f10x_exti.c **** 
  75:../Library/STM32F10x_StdPeriph_Driver/src/stm32f10x_exti.c **** /** @defgroup EXTI_Private_Functions
  76:../Library/STM32F10x_StdPeriph_Driver/src/stm32f10x_exti.c ****   * @{
  77:../Library/STM32F10x_StdPeriph_Driver/src/stm32f10x_exti.c ****   */
  78:../Library/STM32F10x_StdPeriph_Driver/src/stm32f10x_exti.c **** 
  79:../Library/STM32F10x_StdPeriph_Driver/src/stm32f10x_exti.c **** /**
  80:../Library/STM32F10x_StdPeriph_Driver/src/stm32f10x_exti.c ****   * @brief  Deinitializes the EXTI peripheral registers to their default reset values.
  81:../Library/STM32F10x_StdPeriph_Driver/src/stm32f10x_exti.c ****   * @param  None
  82:../Library/STM32F10x_StdPeriph_Driver/src/stm32f10x_exti.c ****   * @retval None
  83:../Library/STM32F10x_StdPeriph_Driver/src/stm32f10x_exti.c ****   */
  84:../Library/STM32F10x_StdPeriph_Driver/src/stm32f10x_exti.c **** void EXTI_DeInit(void)
  85:../Library/STM32F10x_StdPeriph_Driver/src/stm32f10x_exti.c **** {
 18240              		.loc 1 85 0
 18241              		.cfi_startproc
 18242              		@ args = 0, pretend = 0, frame = 0
 18243              		@ frame_needed = 0, uses_anonymous_args = 0
 18244              		@ link register save eliminated.
  86:../Library/STM32F10x_StdPeriph_Driver/src/stm32f10x_exti.c ****   EXTI->IMR = 0x00000000;
 18245              		.loc 1 86 0
 18246 0000 40F20043 		movw	r3, #:lower16:1073808384
 18247 0004 C4F20103 		movt	r3, #:upper16:1073808384
 18248 0008 4FF00002 		mov	r2, #0
 18249 000c 1A60     		str	r2, [r3, #0]
  87:../Library/STM32F10x_StdPeriph_Driver/src/stm32f10x_exti.c ****   EXTI->EMR = 0x00000000;
 18250              		.loc 1 87 0
 18251 000e 5A60     		str	r2, [r3, #4]
  88:../Library/STM32F10x_StdPeriph_Driver/src/stm32f10x_exti.c ****   EXTI->RTSR = 0x00000000; 
 18252              		.loc 1 88 0
 18253 0010 9A60     		str	r2, [r3, #8]
  89:../Library/STM32F10x_StdPeriph_Driver/src/stm32f10x_exti.c ****   EXTI->FTSR = 0x00000000; 
 18254              		.loc 1 89 0
 18255 0012 DA60     		str	r2, [r3, #12]
  90:../Library/STM32F10x_StdPeriph_Driver/src/stm32f10x_exti.c ****   EXTI->PR = 0x000FFFFF;
 18256              		.loc 1 90 0
 18257 0014 4FF6FF72 		movw	r2, #:lower16:1048575
 18258 0018 C0F20F02 		movt	r2, #:upper16:1048575
 18259 001c 5A61     		str	r2, [r3, #20]
  91:../Library/STM32F10x_StdPeriph_Driver/src/stm32f10x_exti.c **** }
 18260              		.loc 1 91 0
 18261 001e 7047     		bx	lr
 18262              		.cfi_endproc
 18263              	.LFE29:
 18265              		.section	.text.EXTI_Init,"ax",%progbits
 18266              		.align	2
 18267              		.global	EXTI_Init
 18268              		.thumb
 18269              		.thumb_func
 18271              	EXTI_Init:
 18272              	.LFB30:
  92:../Library/STM32F10x_StdPeriph_Driver/src/stm32f10x_exti.c **** 
  93:../Library/STM32F10x_StdPeriph_Driver/src/stm32f10x_exti.c **** /**
  94:../Library/STM32F10x_StdPeriph_Driver/src/stm32f10x_exti.c ****   * @brief  Initializes the EXTI peripheral according to the specified
  95:../Library/STM32F10x_StdPeriph_Driver/src/stm32f10x_exti.c ****   *   parameters in the EXTI_InitStruct.
  96:../Library/STM32F10x_StdPeriph_Driver/src/stm32f10x_exti.c ****   * @param  EXTI_InitStruct: pointer to a EXTI_InitTypeDef structure
  97:../Library/STM32F10x_StdPeriph_Driver/src/stm32f10x_exti.c ****   *   that contains the configuration information for the EXTI peripheral.
  98:../Library/STM32F10x_StdPeriph_Driver/src/stm32f10x_exti.c ****   * @retval None
  99:../Library/STM32F10x_StdPeriph_Driver/src/stm32f10x_exti.c ****   */
 100:../Library/STM32F10x_StdPeriph_Driver/src/stm32f10x_exti.c **** void EXTI_Init(EXTI_InitTypeDef* EXTI_InitStruct)
 101:../Library/STM32F10x_StdPeriph_Driver/src/stm32f10x_exti.c **** {
 18273              		.loc 1 101 0
 18274              		.cfi_startproc
 18275              		@ args = 0, pretend = 0, frame = 0
 18276              		@ frame_needed = 0, uses_anonymous_args = 0
 18277              		@ link register save eliminated.
 18278              	.LVL0:
 18279 0000 10B4     		push	{r4}
 18280              	.LCFI0:
 18281              		.cfi_def_cfa_offset 4
 102:../Library/STM32F10x_StdPeriph_Driver/src/stm32f10x_exti.c ****   uint32_t tmp = 0;
 103:../Library/STM32F10x_StdPeriph_Driver/src/stm32f10x_exti.c **** 
 104:../Library/STM32F10x_StdPeriph_Driver/src/stm32f10x_exti.c ****   /* Check the parameters */
 105:../Library/STM32F10x_StdPeriph_Driver/src/stm32f10x_exti.c ****   assert_param(IS_EXTI_MODE(EXTI_InitStruct->EXTI_Mode));
 106:../Library/STM32F10x_StdPeriph_Driver/src/stm32f10x_exti.c ****   assert_param(IS_EXTI_TRIGGER(EXTI_InitStruct->EXTI_Trigger));
 107:../Library/STM32F10x_StdPeriph_Driver/src/stm32f10x_exti.c ****   assert_param(IS_EXTI_LINE(EXTI_InitStruct->EXTI_Line));  
 108:../Library/STM32F10x_StdPeriph_Driver/src/stm32f10x_exti.c ****   assert_param(IS_FUNCTIONAL_STATE(EXTI_InitStruct->EXTI_LineCmd));
 109:../Library/STM32F10x_StdPeriph_Driver/src/stm32f10x_exti.c **** 
 110:../Library/STM32F10x_StdPeriph_Driver/src/stm32f10x_exti.c ****   tmp = (uint32_t)EXTI_BASE;
 111:../Library/STM32F10x_StdPeriph_Driver/src/stm32f10x_exti.c ****      
 112:../Library/STM32F10x_StdPeriph_Driver/src/stm32f10x_exti.c ****   if (EXTI_InitStruct->EXTI_LineCmd != DISABLE)
 18282              		.loc 1 112 0
 18283 0002 8379     		ldrb	r3, [r0, #6]	@ zero_extendqisi2
 18284 0004 002B     		cmp	r3, #0
 18285 0006 33D0     		beq	.L4
 18286              		.cfi_offset 4, -4
 113:../Library/STM32F10x_StdPeriph_Driver/src/stm32f10x_exti.c ****   {
 114:../Library/STM32F10x_StdPeriph_Driver/src/stm32f10x_exti.c ****     /* Clear EXTI line configuration */
 115:../Library/STM32F10x_StdPeriph_Driver/src/stm32f10x_exti.c ****     EXTI->IMR &= ~EXTI_InitStruct->EXTI_Line;
 18287              		.loc 1 115 0
 18288 0008 40F20043 		movw	r3, #:lower16:1073808384
 18289 000c C4F20103 		movt	r3, #:upper16:1073808384
 18290 0010 1C68     		ldr	r4, [r3, #0]
 18291 0012 0168     		ldr	r1, [r0, #0]
 18292 0014 6FEA0102 		mvn	r2, r1
 18293 0018 02EA0404 		and	r4, r2, r4
 18294 001c 1C60     		str	r4, [r3, #0]
 116:../Library/STM32F10x_StdPeriph_Driver/src/stm32f10x_exti.c ****     EXTI->EMR &= ~EXTI_InitStruct->EXTI_Line;
 18295              		.loc 1 116 0
 18296 001e 5C68     		ldr	r4, [r3, #4]
 18297 0020 02EA0402 		and	r2, r2, r4
 18298 0024 5A60     		str	r2, [r3, #4]
 117:../Library/STM32F10x_StdPeriph_Driver/src/stm32f10x_exti.c ****     
 118:../Library/STM32F10x_StdPeriph_Driver/src/stm32f10x_exti.c ****     tmp += EXTI_InitStruct->EXTI_Mode;
 119:../Library/STM32F10x_StdPeriph_Driver/src/stm32f10x_exti.c **** 
 120:../Library/STM32F10x_StdPeriph_Driver/src/stm32f10x_exti.c ****     *(__IO uint32_t *) tmp |= EXTI_InitStruct->EXTI_Line;
 18299              		.loc 1 120 0
 18300 0026 0279     		ldrb	r2, [r0, #4]	@ zero_extendqisi2
 18301 0028 1A44     		add	r2, r2, r3
 18302 002a 1468     		ldr	r4, [r2, #0]
 18303 002c 44EA0101 		orr	r1, r4, r1
 18304 0030 1160     		str	r1, [r2, #0]
 121:../Library/STM32F10x_StdPeriph_Driver/src/stm32f10x_exti.c **** 
 122:../Library/STM32F10x_StdPeriph_Driver/src/stm32f10x_exti.c ****     /* Clear Rising Falling edge configuration */
 123:../Library/STM32F10x_StdPeriph_Driver/src/stm32f10x_exti.c ****     EXTI->RTSR &= ~EXTI_InitStruct->EXTI_Line;
 18305              		.loc 1 123 0
 18306 0032 9C68     		ldr	r4, [r3, #8]
 18307 0034 0268     		ldr	r2, [r0, #0]
 18308 0036 6FEA0201 		mvn	r1, r2
 18309 003a 01EA0404 		and	r4, r1, r4
 18310 003e 9C60     		str	r4, [r3, #8]
 124:../Library/STM32F10x_StdPeriph_Driver/src/stm32f10x_exti.c ****     EXTI->FTSR &= ~EXTI_InitStruct->EXTI_Line;
 18311              		.loc 1 124 0
 18312 0040 DC68     		ldr	r4, [r3, #12]
 18313 0042 01EA0401 		and	r1, r1, r4
 18314 0046 D960     		str	r1, [r3, #12]
 125:../Library/STM32F10x_StdPeriph_Driver/src/stm32f10x_exti.c ****     
 126:../Library/STM32F10x_StdPeriph_Driver/src/stm32f10x_exti.c ****     /* Select the trigger for the selected external interrupts */
 127:../Library/STM32F10x_StdPeriph_Driver/src/stm32f10x_exti.c ****     if (EXTI_InitStruct->EXTI_Trigger == EXTI_Trigger_Rising_Falling)
 18315              		.loc 1 127 0
 18316 0048 4179     		ldrb	r1, [r0, #5]	@ zero_extendqisi2
 18317 004a 1029     		cmp	r1, #16
 128:../Library/STM32F10x_StdPeriph_Driver/src/stm32f10x_exti.c ****     {
 129:../Library/STM32F10x_StdPeriph_Driver/src/stm32f10x_exti.c ****       /* Rising Falling edge */
 130:../Library/STM32F10x_StdPeriph_Driver/src/stm32f10x_exti.c ****       EXTI->RTSR |= EXTI_InitStruct->EXTI_Line;
 18318              		.loc 1 130 0
 18319 004c 40F20043 		movw	r3, #:lower16:1073808384
 18320 0050 C4F20103 		movt	r3, #:upper16:1073808384
 18321 0054 01BF     		itttt	eq
 18322 0056 9968     		ldreq	r1, [r3, #8]
 18323 0058 1143     		orreq	r1, r1, r2
 18324 005a 9960     		streq	r1, [r3, #8]
 131:../Library/STM32F10x_StdPeriph_Driver/src/stm32f10x_exti.c ****       EXTI->FTSR |= EXTI_InitStruct->EXTI_Line;
 18325              		.loc 1 131 0
 18326 005c D968     		ldreq	r1, [r3, #12]
 18327 005e 07BF     		ittee	eq
 18328 0060 0A43     		orreq	r2, r1, r2
 18329 0062 DA60     		streq	r2, [r3, #12]
 132:../Library/STM32F10x_StdPeriph_Driver/src/stm32f10x_exti.c ****     }
 133:../Library/STM32F10x_StdPeriph_Driver/src/stm32f10x_exti.c ****     else
 134:../Library/STM32F10x_StdPeriph_Driver/src/stm32f10x_exti.c ****     {
 135:../Library/STM32F10x_StdPeriph_Driver/src/stm32f10x_exti.c ****       tmp = (uint32_t)EXTI_BASE;
 136:../Library/STM32F10x_StdPeriph_Driver/src/stm32f10x_exti.c ****       tmp += EXTI_InitStruct->EXTI_Trigger;
 137:../Library/STM32F10x_StdPeriph_Driver/src/stm32f10x_exti.c **** 
 138:../Library/STM32F10x_StdPeriph_Driver/src/stm32f10x_exti.c ****       *(__IO uint32_t *) tmp |= EXTI_InitStruct->EXTI_Line;
 18330              		.loc 1 138 0
 18331 0064 CB18     		addne	r3, r1, r3
 18332 0066 1968     		ldrne	r1, [r3, #0]
 18333 0068 1CBF     		itt	ne
 18334 006a 0A43     		orrne	r2, r1, r2
 18335 006c 1A60     		strne	r2, [r3, #0]
 18336 006e 0AE0     		b	.L7
 18337              	.L4:
 139:../Library/STM32F10x_StdPeriph_Driver/src/stm32f10x_exti.c ****     }
 140:../Library/STM32F10x_StdPeriph_Driver/src/stm32f10x_exti.c ****   }
 141:../Library/STM32F10x_StdPeriph_Driver/src/stm32f10x_exti.c ****   else
 142:../Library/STM32F10x_StdPeriph_Driver/src/stm32f10x_exti.c ****   {
 143:../Library/STM32F10x_StdPeriph_Driver/src/stm32f10x_exti.c ****     tmp += EXTI_InitStruct->EXTI_Mode;
 144:../Library/STM32F10x_StdPeriph_Driver/src/stm32f10x_exti.c **** 
 145:../Library/STM32F10x_StdPeriph_Driver/src/stm32f10x_exti.c ****     /* Disable the selected external lines */
 146:../Library/STM32F10x_StdPeriph_Driver/src/stm32f10x_exti.c ****     *(__IO uint32_t *) tmp &= ~EXTI_InitStruct->EXTI_Line;
 18338              		.loc 1 146 0
 18339 0070 0279     		ldrb	r2, [r0, #4]	@ zero_extendqisi2
 18340 0072 40F20043 		movw	r3, #:lower16:1073808384
 18341 0076 C4F20103 		movt	r3, #:upper16:1073808384
 18342 007a 1344     		add	r3, r2, r3
 18343 007c 1A68     		ldr	r2, [r3, #0]
 18344 007e 0168     		ldr	r1, [r0, #0]
 18345 0080 22EA0102 		bic	r2, r2, r1
 18346 0084 1A60     		str	r2, [r3, #0]
 18347              	.L7:
 147:../Library/STM32F10x_StdPeriph_Driver/src/stm32f10x_exti.c ****   }
 148:../Library/STM32F10x_StdPeriph_Driver/src/stm32f10x_exti.c **** }
 18348              		.loc 1 148 0
 18349 0086 10BC     		pop	{r4}
 18350 0088 7047     		bx	lr
 18351              		.cfi_endproc
 18352              	.LFE30:
 18354 008a 00BF     		.section	.text.EXTI_StructInit,"ax",%progbits
 18355              		.align	2
 18356              		.global	EXTI_StructInit
 18357              		.thumb
 18358              		.thumb_func
 18360              	EXTI_StructInit:
 18361              	.LFB31:
 149:../Library/STM32F10x_StdPeriph_Driver/src/stm32f10x_exti.c **** 
 150:../Library/STM32F10x_StdPeriph_Driver/src/stm32f10x_exti.c **** /**
 151:../Library/STM32F10x_StdPeriph_Driver/src/stm32f10x_exti.c ****   * @brief  Fills each EXTI_InitStruct member with its reset value.
 152:../Library/STM32F10x_StdPeriph_Driver/src/stm32f10x_exti.c ****   * @param  EXTI_InitStruct: pointer to a EXTI_InitTypeDef structure which will
 153:../Library/STM32F10x_StdPeriph_Driver/src/stm32f10x_exti.c ****   *   be initialized.
 154:../Library/STM32F10x_StdPeriph_Driver/src/stm32f10x_exti.c ****   * @retval None
 155:../Library/STM32F10x_StdPeriph_Driver/src/stm32f10x_exti.c ****   */
 156:../Library/STM32F10x_StdPeriph_Driver/src/stm32f10x_exti.c **** void EXTI_StructInit(EXTI_InitTypeDef* EXTI_InitStruct)
 157:../Library/STM32F10x_StdPeriph_Driver/src/stm32f10x_exti.c **** {
 18362              		.loc 1 157 0
 18363              		.cfi_startproc
 18364              		@ args = 0, pretend = 0, frame = 0
 18365              		@ frame_needed = 0, uses_anonymous_args = 0
 18366              		@ link register save eliminated.
 18367              	.LVL1:
 158:../Library/STM32F10x_StdPeriph_Driver/src/stm32f10x_exti.c ****   EXTI_InitStruct->EXTI_Line = EXTI_LineNone;
 18368              		.loc 1 158 0
 18369 0000 4FF00003 		mov	r3, #0
 18370 0004 0360     		str	r3, [r0, #0]
 159:../Library/STM32F10x_StdPeriph_Driver/src/stm32f10x_exti.c ****   EXTI_InitStruct->EXTI_Mode = EXTI_Mode_Interrupt;
 18371              		.loc 1 159 0
 18372 0006 0371     		strb	r3, [r0, #4]
 160:../Library/STM32F10x_StdPeriph_Driver/src/stm32f10x_exti.c ****   EXTI_InitStruct->EXTI_Trigger = EXTI_Trigger_Falling;
 18373              		.loc 1 160 0
 18374 0008 4FF00C02 		mov	r2, #12
 18375 000c 4271     		strb	r2, [r0, #5]
 161:../Library/STM32F10x_StdPeriph_Driver/src/stm32f10x_exti.c ****   EXTI_InitStruct->EXTI_LineCmd = DISABLE;
 18376              		.loc 1 161 0
 18377 000e 8371     		strb	r3, [r0, #6]
 162:../Library/STM32F10x_StdPeriph_Driver/src/stm32f10x_exti.c **** }
 18378              		.loc 1 162 0
 18379 0010 7047     		bx	lr
 18380              		.cfi_endproc
 18381              	.LFE31:
 18383 0012 00BF     		.section	.text.EXTI_GenerateSWInterrupt,"ax",%progbits
 18384              		.align	2
 18385              		.global	EXTI_GenerateSWInterrupt
 18386              		.thumb
 18387              		.thumb_func
 18389              	EXTI_GenerateSWInterrupt:
 18390              	.LFB32:
 163:../Library/STM32F10x_StdPeriph_Driver/src/stm32f10x_exti.c **** 
 164:../Library/STM32F10x_StdPeriph_Driver/src/stm32f10x_exti.c **** /**
 165:../Library/STM32F10x_StdPeriph_Driver/src/stm32f10x_exti.c ****   * @brief  Generates a Software interrupt.
 166:../Library/STM32F10x_StdPeriph_Driver/src/stm32f10x_exti.c ****   * @param  EXTI_Line: specifies the EXTI lines to be enabled or disabled.
 167:../Library/STM32F10x_StdPeriph_Driver/src/stm32f10x_exti.c ****   *   This parameter can be any combination of EXTI_Linex where x can be (0..19).
 168:../Library/STM32F10x_StdPeriph_Driver/src/stm32f10x_exti.c ****   * @retval None
 169:../Library/STM32F10x_StdPeriph_Driver/src/stm32f10x_exti.c ****   */
 170:../Library/STM32F10x_StdPeriph_Driver/src/stm32f10x_exti.c **** void EXTI_GenerateSWInterrupt(uint32_t EXTI_Line)
 171:../Library/STM32F10x_StdPeriph_Driver/src/stm32f10x_exti.c **** {
 18391              		.loc 1 171 0
 18392              		.cfi_startproc
 18393              		@ args = 0, pretend = 0, frame = 0
 18394              		@ frame_needed = 0, uses_anonymous_args = 0
 18395              		@ link register save eliminated.
 18396              	.LVL2:
 172:../Library/STM32F10x_StdPeriph_Driver/src/stm32f10x_exti.c ****   /* Check the parameters */
 173:../Library/STM32F10x_StdPeriph_Driver/src/stm32f10x_exti.c ****   assert_param(IS_EXTI_LINE(EXTI_Line));
 174:../Library/STM32F10x_StdPeriph_Driver/src/stm32f10x_exti.c ****   
 175:../Library/STM32F10x_StdPeriph_Driver/src/stm32f10x_exti.c ****   EXTI->SWIER |= EXTI_Line;
 18397              		.loc 1 175 0
 18398 0000 40F20043 		movw	r3, #:lower16:1073808384
 18399 0004 C4F20103 		movt	r3, #:upper16:1073808384
 18400 0008 1A69     		ldr	r2, [r3, #16]
 18401 000a 40EA0202 		orr	r2, r0, r2
 18402 000e 1A61     		str	r2, [r3, #16]
 176:../Library/STM32F10x_StdPeriph_Driver/src/stm32f10x_exti.c **** }
 18403              		.loc 1 176 0
 18404 0010 7047     		bx	lr
 18405              		.cfi_endproc
 18406              	.LFE32:
 18408 0012 00BF     		.section	.text.EXTI_GetFlagStatus,"ax",%progbits
 18409              		.align	2
 18410              		.global	EXTI_GetFlagStatus
 18411              		.thumb
 18412              		.thumb_func
 18414              	EXTI_GetFlagStatus:
 18415              	.LFB33:
 177:../Library/STM32F10x_StdPeriph_Driver/src/stm32f10x_exti.c **** 
 178:../Library/STM32F10x_StdPeriph_Driver/src/stm32f10x_exti.c **** /**
 179:../Library/STM32F10x_StdPeriph_Driver/src/stm32f10x_exti.c ****   * @brief  Checks whether the specified EXTI line flag is set or not.
 180:../Library/STM32F10x_StdPeriph_Driver/src/stm32f10x_exti.c ****   * @param  EXTI_Line: specifies the EXTI line flag to check.
 181:../Library/STM32F10x_StdPeriph_Driver/src/stm32f10x_exti.c ****   *   This parameter can be:
 182:../Library/STM32F10x_StdPeriph_Driver/src/stm32f10x_exti.c ****   *     @arg EXTI_Linex: External interrupt line x where x(0..19)
 183:../Library/STM32F10x_StdPeriph_Driver/src/stm32f10x_exti.c ****   * @retval The new state of EXTI_Line (SET or RESET).
 184:../Library/STM32F10x_StdPeriph_Driver/src/stm32f10x_exti.c ****   */
 185:../Library/STM32F10x_StdPeriph_Driver/src/stm32f10x_exti.c **** FlagStatus EXTI_GetFlagStatus(uint32_t EXTI_Line)
 186:../Library/STM32F10x_StdPeriph_Driver/src/stm32f10x_exti.c **** {
 18416              		.loc 1 186 0
 18417              		.cfi_startproc
 18418              		@ args = 0, pretend = 0, frame = 0
 18419              		@ frame_needed = 0, uses_anonymous_args = 0
 18420              		@ link register save eliminated.
 18421              	.LVL3:
 187:../Library/STM32F10x_StdPeriph_Driver/src/stm32f10x_exti.c ****   FlagStatus bitstatus = RESET;
 188:../Library/STM32F10x_StdPeriph_Driver/src/stm32f10x_exti.c ****   /* Check the parameters */
 189:../Library/STM32F10x_StdPeriph_Driver/src/stm32f10x_exti.c ****   assert_param(IS_GET_EXTI_LINE(EXTI_Line));
 190:../Library/STM32F10x_StdPeriph_Driver/src/stm32f10x_exti.c ****   
 191:../Library/STM32F10x_StdPeriph_Driver/src/stm32f10x_exti.c ****   if ((EXTI->PR & EXTI_Line) != (uint32_t)RESET)
 18422              		.loc 1 191 0
 18423 0000 40F20043 		movw	r3, #:lower16:1073808384
 18424 0004 C4F20103 		movt	r3, #:upper16:1073808384
 18425 0008 5B69     		ldr	r3, [r3, #20]
 18426 000a 1842     		tst	r0, r3
 192:../Library/STM32F10x_StdPeriph_Driver/src/stm32f10x_exti.c ****   {
 193:../Library/STM32F10x_StdPeriph_Driver/src/stm32f10x_exti.c ****     bitstatus = SET;
 194:../Library/STM32F10x_StdPeriph_Driver/src/stm32f10x_exti.c ****   }
 195:../Library/STM32F10x_StdPeriph_Driver/src/stm32f10x_exti.c ****   else
 196:../Library/STM32F10x_StdPeriph_Driver/src/stm32f10x_exti.c ****   {
 197:../Library/STM32F10x_StdPeriph_Driver/src/stm32f10x_exti.c ****     bitstatus = RESET;
 198:../Library/STM32F10x_StdPeriph_Driver/src/stm32f10x_exti.c ****   }
 199:../Library/STM32F10x_StdPeriph_Driver/src/stm32f10x_exti.c ****   return bitstatus;
 200:../Library/STM32F10x_StdPeriph_Driver/src/stm32f10x_exti.c **** }
 18427              		.loc 1 200 0
 18428 000c 0CBF     		ite	eq
 18429 000e 0020     		moveq	r0, #0
 18430 0010 0120     		movne	r0, #1
 18431              	.LVL4:
 18432 0012 7047     		bx	lr
 18433              		.cfi_endproc
 18434              	.LFE33:
 18436              		.section	.text.EXTI_ClearFlag,"ax",%progbits
 18437              		.align	2
 18438              		.global	EXTI_ClearFlag
 18439              		.thumb
 18440              		.thumb_func
 18442              	EXTI_ClearFlag:
 18443              	.LFB34:
 201:../Library/STM32F10x_StdPeriph_Driver/src/stm32f10x_exti.c **** 
 202:../Library/STM32F10x_StdPeriph_Driver/src/stm32f10x_exti.c **** /**
 203:../Library/STM32F10x_StdPeriph_Driver/src/stm32f10x_exti.c ****   * @brief  Clears the EXTI’s line pending flags.
 204:../Library/STM32F10x_StdPeriph_Driver/src/stm32f10x_exti.c ****   * @param  EXTI_Line: specifies the EXTI lines flags to clear.
 205:../Library/STM32F10x_StdPeriph_Driver/src/stm32f10x_exti.c ****   *   This parameter can be any combination of EXTI_Linex where x can be (0..19).
 206:../Library/STM32F10x_StdPeriph_Driver/src/stm32f10x_exti.c ****   * @retval None
 207:../Library/STM32F10x_StdPeriph_Driver/src/stm32f10x_exti.c ****   */
 208:../Library/STM32F10x_StdPeriph_Driver/src/stm32f10x_exti.c **** void EXTI_ClearFlag(uint32_t EXTI_Line)
 209:../Library/STM32F10x_StdPeriph_Driver/src/stm32f10x_exti.c **** {
 18444              		.loc 1 209 0
 18445              		.cfi_startproc
 18446              		@ args = 0, pretend = 0, frame = 0
 18447              		@ frame_needed = 0, uses_anonymous_args = 0
 18448              		@ link register save eliminated.
 18449              	.LVL5:
 210:../Library/STM32F10x_StdPeriph_Driver/src/stm32f10x_exti.c ****   /* Check the parameters */
 211:../Library/STM32F10x_StdPeriph_Driver/src/stm32f10x_exti.c ****   assert_param(IS_EXTI_LINE(EXTI_Line));
 212:../Library/STM32F10x_StdPeriph_Driver/src/stm32f10x_exti.c ****   
 213:../Library/STM32F10x_StdPeriph_Driver/src/stm32f10x_exti.c ****   EXTI->PR = EXTI_Line;
 18450              		.loc 1 213 0
 18451 0000 40F20043 		movw	r3, #:lower16:1073808384
 18452 0004 C4F20103 		movt	r3, #:upper16:1073808384
 18453 0008 5861     		str	r0, [r3, #20]
 214:../Library/STM32F10x_StdPeriph_Driver/src/stm32f10x_exti.c **** }
 18454              		.loc 1 214 0
 18455 000a 7047     		bx	lr
 18456              		.cfi_endproc
 18457              	.LFE34:
 18459              		.section	.text.EXTI_GetITStatus,"ax",%progbits
 18460              		.align	2
 18461              		.global	EXTI_GetITStatus
 18462              		.thumb
 18463              		.thumb_func
 18465              	EXTI_GetITStatus:
 18466              	.LFB35:
 215:../Library/STM32F10x_StdPeriph_Driver/src/stm32f10x_exti.c **** 
 216:../Library/STM32F10x_StdPeriph_Driver/src/stm32f10x_exti.c **** /**
 217:../Library/STM32F10x_StdPeriph_Driver/src/stm32f10x_exti.c ****   * @brief  Checks whether the specified EXTI line is asserted or not.
 218:../Library/STM32F10x_StdPeriph_Driver/src/stm32f10x_exti.c ****   * @param  EXTI_Line: specifies the EXTI line to check.
 219:../Library/STM32F10x_StdPeriph_Driver/src/stm32f10x_exti.c ****   *   This parameter can be:
 220:../Library/STM32F10x_StdPeriph_Driver/src/stm32f10x_exti.c ****   *     @arg EXTI_Linex: External interrupt line x where x(0..19)
 221:../Library/STM32F10x_StdPeriph_Driver/src/stm32f10x_exti.c ****   * @retval The new state of EXTI_Line (SET or RESET).
 222:../Library/STM32F10x_StdPeriph_Driver/src/stm32f10x_exti.c ****   */
 223:../Library/STM32F10x_StdPeriph_Driver/src/stm32f10x_exti.c **** ITStatus EXTI_GetITStatus(uint32_t EXTI_Line)
 224:../Library/STM32F10x_StdPeriph_Driver/src/stm32f10x_exti.c **** {
 18467              		.loc 1 224 0
 18468              		.cfi_startproc
 18469              		@ args = 0, pretend = 0, frame = 0
 18470              		@ frame_needed = 0, uses_anonymous_args = 0
 18471              		@ link register save eliminated.
 18472              	.LVL6:
 225:../Library/STM32F10x_StdPeriph_Driver/src/stm32f10x_exti.c ****   ITStatus bitstatus = RESET;
 226:../Library/STM32F10x_StdPeriph_Driver/src/stm32f10x_exti.c ****   uint32_t enablestatus = 0;
 227:../Library/STM32F10x_StdPeriph_Driver/src/stm32f10x_exti.c ****   /* Check the parameters */
 228:../Library/STM32F10x_StdPeriph_Driver/src/stm32f10x_exti.c ****   assert_param(IS_GET_EXTI_LINE(EXTI_Line));
 229:../Library/STM32F10x_StdPeriph_Driver/src/stm32f10x_exti.c ****   
 230:../Library/STM32F10x_StdPeriph_Driver/src/stm32f10x_exti.c ****   enablestatus =  EXTI->IMR & EXTI_Line;
 18473              		.loc 1 230 0
 18474 0000 40F20043 		movw	r3, #:lower16:1073808384
 18475 0004 C4F20103 		movt	r3, #:upper16:1073808384
 18476 0008 1A68     		ldr	r2, [r3, #0]
 231:../Library/STM32F10x_StdPeriph_Driver/src/stm32f10x_exti.c ****   if (((EXTI->PR & EXTI_Line) != (uint32_t)RESET) && (enablestatus != (uint32_t)RESET))
 18477              		.loc 1 231 0
 18478 000a 5B69     		ldr	r3, [r3, #20]
 18479 000c 1842     		tst	r0, r3
 18480 000e 02D1     		bne	.L17
 18481 0010 4FF00000 		mov	r0, #0
 18482              	.LVL7:
 18483 0014 7047     		bx	lr
 18484              	.LVL8:
 18485              	.L17:
 18486 0016 1042     		tst	r0, r2
 18487 0018 0CBF     		ite	eq
 18488 001a 0020     		moveq	r0, #0
 18489 001c 0120     		movne	r0, #1
 18490              	.LVL9:
 18491              	.LVL10:
 232:../Library/STM32F10x_StdPeriph_Driver/src/stm32f10x_exti.c ****   {
 233:../Library/STM32F10x_StdPeriph_Driver/src/stm32f10x_exti.c ****     bitstatus = SET;
 234:../Library/STM32F10x_StdPeriph_Driver/src/stm32f10x_exti.c ****   }
 235:../Library/STM32F10x_StdPeriph_Driver/src/stm32f10x_exti.c ****   else
 236:../Library/STM32F10x_StdPeriph_Driver/src/stm32f10x_exti.c ****   {
 237:../Library/STM32F10x_StdPeriph_Driver/src/stm32f10x_exti.c ****     bitstatus = RESET;
 238:../Library/STM32F10x_StdPeriph_Driver/src/stm32f10x_exti.c ****   }
 239:../Library/STM32F10x_StdPeriph_Driver/src/stm32f10x_exti.c ****   return bitstatus;
 240:../Library/STM32F10x_StdPeriph_Driver/src/stm32f10x_exti.c **** }
 18492              		.loc 1 240 0
 18493 001e 7047     		bx	lr
 18494              		.cfi_endproc
 18495              	.LFE35:
 18497              		.section	.text.EXTI_ClearITPendingBit,"ax",%progbits
 18498              		.align	2
 18499              		.global	EXTI_ClearITPendingBit
 18500              		.thumb
 18501              		.thumb_func
 18503              	EXTI_ClearITPendingBit:
 18504              	.LFB36:
 241:../Library/STM32F10x_StdPeriph_Driver/src/stm32f10x_exti.c **** 
 242:../Library/STM32F10x_StdPeriph_Driver/src/stm32f10x_exti.c **** /**
 243:../Library/STM32F10x_StdPeriph_Driver/src/stm32f10x_exti.c ****   * @brief  Clears the EXTI’s line pending bits.
 244:../Library/STM32F10x_StdPeriph_Driver/src/stm32f10x_exti.c ****   * @param  EXTI_Line: specifies the EXTI lines to clear.
 245:../Library/STM32F10x_StdPeriph_Driver/src/stm32f10x_exti.c ****   *   This parameter can be any combination of EXTI_Linex where x can be (0..19).
 246:../Library/STM32F10x_StdPeriph_Driver/src/stm32f10x_exti.c ****   * @retval None
 247:../Library/STM32F10x_StdPeriph_Driver/src/stm32f10x_exti.c ****   */
 248:../Library/STM32F10x_StdPeriph_Driver/src/stm32f10x_exti.c **** void EXTI_ClearITPendingBit(uint32_t EXTI_Line)
 249:../Library/STM32F10x_StdPeriph_Driver/src/stm32f10x_exti.c **** {
 18505              		.loc 1 249 0
 18506              		.cfi_startproc
 18507              		@ args = 0, pretend = 0, frame = 0
 18508              		@ frame_needed = 0, uses_anonymous_args = 0
 18509              		@ link register save eliminated.
 18510              	.LVL11:
 250:../Library/STM32F10x_StdPeriph_Driver/src/stm32f10x_exti.c ****   /* Check the parameters */
 251:../Library/STM32F10x_StdPeriph_Driver/src/stm32f10x_exti.c ****   assert_param(IS_EXTI_LINE(EXTI_Line));
 252:../Library/STM32F10x_StdPeriph_Driver/src/stm32f10x_exti.c ****   
 253:../Library/STM32F10x_StdPeriph_Driver/src/stm32f10x_exti.c ****   EXTI->PR = EXTI_Line;
 18511              		.loc 1 253 0
 18512 0000 40F20043 		movw	r3, #:lower16:1073808384
 18513 0004 C4F20103 		movt	r3, #:upper16:1073808384
 18514 0008 5861     		str	r0, [r3, #20]
 254:../Library/STM32F10x_StdPeriph_Driver/src/stm32f10x_exti.c **** }
 18515              		.loc 1 254 0
 18516 000a 7047     		bx	lr
 18517              		.cfi_endproc
 18518              	.LFE36:
 18520              		.text
 18521              	.Letext0: