   1              		.syntax unified
   2              		.cpu cortex-m3
   3              		.fpu softvfp
   4              		.eabi_attribute 20, 1
   5              		.eabi_attribute 21, 1
   6              		.eabi_attribute 23, 3
   7              		.eabi_attribute 24, 1
   8              		.eabi_attribute 25, 1
   9              		.eabi_attribute 26, 1
  10              		.eabi_attribute 30, 1
  11              		.eabi_attribute 18, 4
  12              		.thumb
  13              		.file	"stm32f10x_fsmc.c"
  23              	.Ltext0:
  24              		.file 1 "../Library/STM32F10x_StdPeriph_Driver/src/stm32f10x_fsmc.c"
 18567              		.align	2
 18568              		.global	FSMC_NORSRAMDeInit
 18569              		.thumb
 18570              		.thumb_func
 18572              	FSMC_NORSRAMDeInit:
 18573              	.LFB29:
   1:../Library/STM32F10x_StdPeriph_Driver/src/stm32f10x_fsmc.c **** /**
   2:../Library/STM32F10x_StdPeriph_Driver/src/stm32f10x_fsmc.c ****   ******************************************************************************
   3:../Library/STM32F10x_StdPeriph_Driver/src/stm32f10x_fsmc.c ****   * @file    stm32f10x_fsmc.c
   4:../Library/STM32F10x_StdPeriph_Driver/src/stm32f10x_fsmc.c ****   * @author  MCD Application Team
   5:../Library/STM32F10x_StdPeriph_Driver/src/stm32f10x_fsmc.c ****   * @version V3.3.0
   6:../Library/STM32F10x_StdPeriph_Driver/src/stm32f10x_fsmc.c ****   * @date    04/16/2010
   7:../Library/STM32F10x_StdPeriph_Driver/src/stm32f10x_fsmc.c ****   * @brief   This file provides all the FSMC firmware functions.
   8:../Library/STM32F10x_StdPeriph_Driver/src/stm32f10x_fsmc.c ****   ******************************************************************************
   9:../Library/STM32F10x_StdPeriph_Driver/src/stm32f10x_fsmc.c ****   * @copy
  10:../Library/STM32F10x_StdPeriph_Driver/src/stm32f10x_fsmc.c ****   *
  11:../Library/STM32F10x_StdPeriph_Driver/src/stm32f10x_fsmc.c ****   * THE PRESENT FIRMWARE WHICH IS FOR GUIDANCE ONLY AIMS AT PROVIDING CUSTOMERS
  12:../Library/STM32F10x_StdPeriph_Driver/src/stm32f10x_fsmc.c ****   * WITH CODING INFORMATION REGARDING THEIR PRODUCTS IN ORDER FOR THEM TO SAVE
  13:../Library/STM32F10x_StdPeriph_Driver/src/stm32f10x_fsmc.c ****   * TIME. AS A RESULT, STMICROELECTRONICS SHALL NOT BE HELD LIABLE FOR ANY
  14:../Library/STM32F10x_StdPeriph_Driver/src/stm32f10x_fsmc.c ****   * DIRECT, INDIRECT OR CONSEQUENTIAL DAMAGES WITH RESPECT TO ANY CLAIMS ARISING
  15:../Library/STM32F10x_StdPeriph_Driver/src/stm32f10x_fsmc.c ****   * FROM THE CONTENT OF SUCH FIRMWARE AND/OR THE USE MADE BY CUSTOMERS OF THE
  16:../Library/STM32F10x_StdPeriph_Driver/src/stm32f10x_fsmc.c ****   * CODING INFORMATION CONTAINED HEREIN IN CONNECTION WITH THEIR PRODUCTS.
  17:../Library/STM32F10x_StdPeriph_Driver/src/stm32f10x_fsmc.c ****   *
  18:../Library/STM32F10x_StdPeriph_Driver/src/stm32f10x_fsmc.c ****   * <h2><center>&copy; COPYRIGHT 2010 STMicroelectronics</center></h2>
  19:../Library/STM32F10x_StdPeriph_Driver/src/stm32f10x_fsmc.c ****   */ 
  20:../Library/STM32F10x_StdPeriph_Driver/src/stm32f10x_fsmc.c **** 
  21:../Library/STM32F10x_StdPeriph_Driver/src/stm32f10x_fsmc.c **** /* Includes ------------------------------------------------------------------*/
  22:../Library/STM32F10x_StdPeriph_Driver/src/stm32f10x_fsmc.c **** #include "stm32f10x_fsmc.h"
  23:../Library/STM32F10x_StdPeriph_Driver/src/stm32f10x_fsmc.c **** #include "stm32f10x_rcc.h"
  24:../Library/STM32F10x_StdPeriph_Driver/src/stm32f10x_fsmc.c **** 
  25:../Library/STM32F10x_StdPeriph_Driver/src/stm32f10x_fsmc.c **** /** @addtogroup STM32F10x_StdPeriph_Driver
  26:../Library/STM32F10x_StdPeriph_Driver/src/stm32f10x_fsmc.c ****   * @{
  27:../Library/STM32F10x_StdPeriph_Driver/src/stm32f10x_fsmc.c ****   */
  28:../Library/STM32F10x_StdPeriph_Driver/src/stm32f10x_fsmc.c **** 
  29:../Library/STM32F10x_StdPeriph_Driver/src/stm32f10x_fsmc.c **** /** @defgroup FSMC 
  30:../Library/STM32F10x_StdPeriph_Driver/src/stm32f10x_fsmc.c ****   * @brief FSMC driver modules
  31:../Library/STM32F10x_StdPeriph_Driver/src/stm32f10x_fsmc.c ****   * @{
  32:../Library/STM32F10x_StdPeriph_Driver/src/stm32f10x_fsmc.c ****   */ 
  33:../Library/STM32F10x_StdPeriph_Driver/src/stm32f10x_fsmc.c **** 
  34:../Library/STM32F10x_StdPeriph_Driver/src/stm32f10x_fsmc.c **** /** @defgroup FSMC_Private_TypesDefinitions
  35:../Library/STM32F10x_StdPeriph_Driver/src/stm32f10x_fsmc.c ****   * @{
  36:../Library/STM32F10x_StdPeriph_Driver/src/stm32f10x_fsmc.c ****   */ 
  37:../Library/STM32F10x_StdPeriph_Driver/src/stm32f10x_fsmc.c **** /**
  38:../Library/STM32F10x_StdPeriph_Driver/src/stm32f10x_fsmc.c ****   * @}
  39:../Library/STM32F10x_StdPeriph_Driver/src/stm32f10x_fsmc.c ****   */
  40:../Library/STM32F10x_StdPeriph_Driver/src/stm32f10x_fsmc.c **** 
  41:../Library/STM32F10x_StdPeriph_Driver/src/stm32f10x_fsmc.c **** /** @defgroup FSMC_Private_Defines
  42:../Library/STM32F10x_StdPeriph_Driver/src/stm32f10x_fsmc.c ****   * @{
  43:../Library/STM32F10x_StdPeriph_Driver/src/stm32f10x_fsmc.c ****   */
  44:../Library/STM32F10x_StdPeriph_Driver/src/stm32f10x_fsmc.c **** 
  45:../Library/STM32F10x_StdPeriph_Driver/src/stm32f10x_fsmc.c **** /* --------------------- FSMC registers bit mask ---------------------------- */
  46:../Library/STM32F10x_StdPeriph_Driver/src/stm32f10x_fsmc.c **** 
  47:../Library/STM32F10x_StdPeriph_Driver/src/stm32f10x_fsmc.c **** /* FSMC BCRx Mask */
  48:../Library/STM32F10x_StdPeriph_Driver/src/stm32f10x_fsmc.c **** #define BCR_MBKEN_Set                       ((uint32_t)0x00000001)
  49:../Library/STM32F10x_StdPeriph_Driver/src/stm32f10x_fsmc.c **** #define BCR_MBKEN_Reset                     ((uint32_t)0x000FFFFE)
  50:../Library/STM32F10x_StdPeriph_Driver/src/stm32f10x_fsmc.c **** #define BCR_FACCEN_Set                      ((uint32_t)0x00000040)
  51:../Library/STM32F10x_StdPeriph_Driver/src/stm32f10x_fsmc.c **** 
  52:../Library/STM32F10x_StdPeriph_Driver/src/stm32f10x_fsmc.c **** /* FSMC PCRx Mask */
  53:../Library/STM32F10x_StdPeriph_Driver/src/stm32f10x_fsmc.c **** #define PCR_PBKEN_Set                       ((uint32_t)0x00000004)
  54:../Library/STM32F10x_StdPeriph_Driver/src/stm32f10x_fsmc.c **** #define PCR_PBKEN_Reset                     ((uint32_t)0x000FFFFB)
  55:../Library/STM32F10x_StdPeriph_Driver/src/stm32f10x_fsmc.c **** #define PCR_ECCEN_Set                       ((uint32_t)0x00000040)
  56:../Library/STM32F10x_StdPeriph_Driver/src/stm32f10x_fsmc.c **** #define PCR_ECCEN_Reset                     ((uint32_t)0x000FFFBF)
  57:../Library/STM32F10x_StdPeriph_Driver/src/stm32f10x_fsmc.c **** #define PCR_MemoryType_NAND                 ((uint32_t)0x00000008)
  58:../Library/STM32F10x_StdPeriph_Driver/src/stm32f10x_fsmc.c **** /**
  59:../Library/STM32F10x_StdPeriph_Driver/src/stm32f10x_fsmc.c ****   * @}
  60:../Library/STM32F10x_StdPeriph_Driver/src/stm32f10x_fsmc.c ****   */
  61:../Library/STM32F10x_StdPeriph_Driver/src/stm32f10x_fsmc.c **** 
  62:../Library/STM32F10x_StdPeriph_Driver/src/stm32f10x_fsmc.c **** /** @defgroup FSMC_Private_Macros
  63:../Library/STM32F10x_StdPeriph_Driver/src/stm32f10x_fsmc.c ****   * @{
  64:../Library/STM32F10x_StdPeriph_Driver/src/stm32f10x_fsmc.c ****   */
  65:../Library/STM32F10x_StdPeriph_Driver/src/stm32f10x_fsmc.c **** 
  66:../Library/STM32F10x_StdPeriph_Driver/src/stm32f10x_fsmc.c **** /**
  67:../Library/STM32F10x_StdPeriph_Driver/src/stm32f10x_fsmc.c ****   * @}
  68:../Library/STM32F10x_StdPeriph_Driver/src/stm32f10x_fsmc.c ****   */
  69:../Library/STM32F10x_StdPeriph_Driver/src/stm32f10x_fsmc.c **** 
  70:../Library/STM32F10x_StdPeriph_Driver/src/stm32f10x_fsmc.c **** /** @defgroup FSMC_Private_Variables
  71:../Library/STM32F10x_StdPeriph_Driver/src/stm32f10x_fsmc.c ****   * @{
  72:../Library/STM32F10x_StdPeriph_Driver/src/stm32f10x_fsmc.c ****   */
  73:../Library/STM32F10x_StdPeriph_Driver/src/stm32f10x_fsmc.c **** 
  74:../Library/STM32F10x_StdPeriph_Driver/src/stm32f10x_fsmc.c **** /**
  75:../Library/STM32F10x_StdPeriph_Driver/src/stm32f10x_fsmc.c ****   * @}
  76:../Library/STM32F10x_StdPeriph_Driver/src/stm32f10x_fsmc.c ****   */
  77:../Library/STM32F10x_StdPeriph_Driver/src/stm32f10x_fsmc.c **** 
  78:../Library/STM32F10x_StdPeriph_Driver/src/stm32f10x_fsmc.c **** /** @defgroup FSMC_Private_FunctionPrototypes
  79:../Library/STM32F10x_StdPeriph_Driver/src/stm32f10x_fsmc.c ****   * @{
  80:../Library/STM32F10x_StdPeriph_Driver/src/stm32f10x_fsmc.c ****   */
  81:../Library/STM32F10x_StdPeriph_Driver/src/stm32f10x_fsmc.c **** 
  82:../Library/STM32F10x_StdPeriph_Driver/src/stm32f10x_fsmc.c **** /**
  83:../Library/STM32F10x_StdPeriph_Driver/src/stm32f10x_fsmc.c ****   * @}
  84:../Library/STM32F10x_StdPeriph_Driver/src/stm32f10x_fsmc.c ****   */
  85:../Library/STM32F10x_StdPeriph_Driver/src/stm32f10x_fsmc.c **** 
  86:../Library/STM32F10x_StdPeriph_Driver/src/stm32f10x_fsmc.c **** /** @defgroup FSMC_Private_Functions
  87:../Library/STM32F10x_StdPeriph_Driver/src/stm32f10x_fsmc.c ****   * @{
  88:../Library/STM32F10x_StdPeriph_Driver/src/stm32f10x_fsmc.c ****   */
  89:../Library/STM32F10x_StdPeriph_Driver/src/stm32f10x_fsmc.c **** 
  90:../Library/STM32F10x_StdPeriph_Driver/src/stm32f10x_fsmc.c **** /**
  91:../Library/STM32F10x_StdPeriph_Driver/src/stm32f10x_fsmc.c ****   * @brief  Deinitializes the FSMC NOR/SRAM Banks registers to their default 
  92:../Library/STM32F10x_StdPeriph_Driver/src/stm32f10x_fsmc.c ****   *   reset values.
  93:../Library/STM32F10x_StdPeriph_Driver/src/stm32f10x_fsmc.c ****   * @param  FSMC_Bank: specifies the FSMC Bank to be used
  94:../Library/STM32F10x_StdPeriph_Driver/src/stm32f10x_fsmc.c ****   *   This parameter can be one of the following values:
  95:../Library/STM32F10x_StdPeriph_Driver/src/stm32f10x_fsmc.c ****   *     @arg FSMC_Bank1_NORSRAM1: FSMC Bank1 NOR/SRAM1  
  96:../Library/STM32F10x_StdPeriph_Driver/src/stm32f10x_fsmc.c ****   *     @arg FSMC_Bank1_NORSRAM2: FSMC Bank1 NOR/SRAM2 
  97:../Library/STM32F10x_StdPeriph_Driver/src/stm32f10x_fsmc.c ****   *     @arg FSMC_Bank1_NORSRAM3: FSMC Bank1 NOR/SRAM3 
  98:../Library/STM32F10x_StdPeriph_Driver/src/stm32f10x_fsmc.c ****   *     @arg FSMC_Bank1_NORSRAM4: FSMC Bank1 NOR/SRAM4 
  99:../Library/STM32F10x_StdPeriph_Driver/src/stm32f10x_fsmc.c ****   * @retval None
 100:../Library/STM32F10x_StdPeriph_Driver/src/stm32f10x_fsmc.c ****   */
 101:../Library/STM32F10x_StdPeriph_Driver/src/stm32f10x_fsmc.c **** void FSMC_NORSRAMDeInit(uint32_t FSMC_Bank)
 102:../Library/STM32F10x_StdPeriph_Driver/src/stm32f10x_fsmc.c **** {
 18574              		.loc 1 102 0
 18575              		.cfi_startproc
 18576              		@ args = 0, pretend = 0, frame = 0
 18577              		@ frame_needed = 0, uses_anonymous_args = 0
 18578              		@ link register save eliminated.
 18579              	.LVL0:
 103:../Library/STM32F10x_StdPeriph_Driver/src/stm32f10x_fsmc.c ****   /* Check the parameter */
 104:../Library/STM32F10x_StdPeriph_Driver/src/stm32f10x_fsmc.c ****   assert_param(IS_FSMC_NORSRAM_BANK(FSMC_Bank));
 105:../Library/STM32F10x_StdPeriph_Driver/src/stm32f10x_fsmc.c ****   
 106:../Library/STM32F10x_StdPeriph_Driver/src/stm32f10x_fsmc.c ****   /* FSMC_Bank1_NORSRAM1 */
 107:../Library/STM32F10x_StdPeriph_Driver/src/stm32f10x_fsmc.c ****   if(FSMC_Bank == FSMC_Bank1_NORSRAM1)
 18580              		.loc 1 107 0
 18581 0000 0346     		mov	r3, r0
 18582 0002 28B9     		cbnz	r0, .L2
 108:../Library/STM32F10x_StdPeriph_Driver/src/stm32f10x_fsmc.c ****   {
 109:../Library/STM32F10x_StdPeriph_Driver/src/stm32f10x_fsmc.c ****     FSMC_Bank1->BTCR[FSMC_Bank] = 0x000030DB;    
 18583              		.loc 1 109 0
 18584 0004 43F2DB01 		movw	r1, #12507
 18585 0008 4FF02042 		mov	r2, #-1610612736
 18586 000c 1160     		str	r1, [r2, #0]
 18587 000e 05E0     		b	.L3
 18588              	.L2:
 110:../Library/STM32F10x_StdPeriph_Driver/src/stm32f10x_fsmc.c ****   }
 111:../Library/STM32F10x_StdPeriph_Driver/src/stm32f10x_fsmc.c ****   /* FSMC_Bank1_NORSRAM2,  FSMC_Bank1_NORSRAM3 or FSMC_Bank1_NORSRAM4 */
 112:../Library/STM32F10x_StdPeriph_Driver/src/stm32f10x_fsmc.c ****   else
 113:../Library/STM32F10x_StdPeriph_Driver/src/stm32f10x_fsmc.c ****   {   
 114:../Library/STM32F10x_StdPeriph_Driver/src/stm32f10x_fsmc.c ****     FSMC_Bank1->BTCR[FSMC_Bank] = 0x000030D2; 
 18589              		.loc 1 114 0
 18590 0010 43F2D201 		movw	r1, #12498
 18591 0014 4FF02042 		mov	r2, #-1610612736
 18592 0018 42F82010 		str	r1, [r2, r0, lsl #2]
 18593              	.L3:
 115:../Library/STM32F10x_StdPeriph_Driver/src/stm32f10x_fsmc.c ****   }
 116:../Library/STM32F10x_StdPeriph_Driver/src/stm32f10x_fsmc.c ****   FSMC_Bank1->BTCR[FSMC_Bank + 1] = 0x0FFFFFFF;
 18594              		.loc 1 116 0
 18595 001c 03F10100 		add	r0, r3, #1
 18596              	.LVL1:
 18597 0020 6FF07041 		mvn	r1, #-268435456
 18598 0024 4FF02042 		mov	r2, #-1610612736
 18599 0028 42F82010 		str	r1, [r2, r0, lsl #2]
 117:../Library/STM32F10x_StdPeriph_Driver/src/stm32f10x_fsmc.c ****   FSMC_Bank1E->BWTR[FSMC_Bank] = 0x0FFFFFFF;  
 18600              		.loc 1 117 0
 18601 002c 40F20412 		movw	r2, #:lower16:-1610612476
 18602 0030 CAF20002 		movt	r2, #:upper16:-1610612476
 18603 0034 42F82310 		str	r1, [r2, r3, lsl #2]
 118:../Library/STM32F10x_StdPeriph_Driver/src/stm32f10x_fsmc.c **** }
 18604              		.loc 1 118 0
 18605 0038 7047     		bx	lr
 18606              		.cfi_endproc
 18607              	.LFE29:
 18609 003a 00BF     		.section	.text.FSMC_NANDDeInit,"ax",%progbits
 18610              		.align	2
 18611              		.global	FSMC_NANDDeInit
 18612              		.thumb
 18613              		.thumb_func
 18615              	FSMC_NANDDeInit:
 18616              	.LFB30:
 119:../Library/STM32F10x_StdPeriph_Driver/src/stm32f10x_fsmc.c **** 
 120:../Library/STM32F10x_StdPeriph_Driver/src/stm32f10x_fsmc.c **** /**
 121:../Library/STM32F10x_StdPeriph_Driver/src/stm32f10x_fsmc.c ****   * @brief  Deinitializes the FSMC NAND Banks registers to their default reset values.
 122:../Library/STM32F10x_StdPeriph_Driver/src/stm32f10x_fsmc.c ****   * @param  FSMC_Bank: specifies the FSMC Bank to be used
 123:../Library/STM32F10x_StdPeriph_Driver/src/stm32f10x_fsmc.c ****   *   This parameter can be one of the following values:
 124:../Library/STM32F10x_StdPeriph_Driver/src/stm32f10x_fsmc.c ****   *     @arg FSMC_Bank2_NAND: FSMC Bank2 NAND 
 125:../Library/STM32F10x_StdPeriph_Driver/src/stm32f10x_fsmc.c ****   *     @arg FSMC_Bank3_NAND: FSMC Bank3 NAND 
 126:../Library/STM32F10x_StdPeriph_Driver/src/stm32f10x_fsmc.c ****   * @retval None
 127:../Library/STM32F10x_StdPeriph_Driver/src/stm32f10x_fsmc.c ****   */
 128:../Library/STM32F10x_StdPeriph_Driver/src/stm32f10x_fsmc.c **** void FSMC_NANDDeInit(uint32_t FSMC_Bank)
 129:../Library/STM32F10x_StdPeriph_Driver/src/stm32f10x_fsmc.c **** {
 18617              		.loc 1 129 0
 18618              		.cfi_startproc
 18619              		@ args = 0, pretend = 0, frame = 0
 18620              		@ frame_needed = 0, uses_anonymous_args = 0
 18621              		@ link register save eliminated.
 18622              	.LVL2:
 130:../Library/STM32F10x_StdPeriph_Driver/src/stm32f10x_fsmc.c ****   /* Check the parameter */
 131:../Library/STM32F10x_StdPeriph_Driver/src/stm32f10x_fsmc.c ****   assert_param(IS_FSMC_NAND_BANK(FSMC_Bank));
 132:../Library/STM32F10x_StdPeriph_Driver/src/stm32f10x_fsmc.c ****   
 133:../Library/STM32F10x_StdPeriph_Driver/src/stm32f10x_fsmc.c ****   if(FSMC_Bank == FSMC_Bank2_NAND)
 18623              		.loc 1 133 0
 18624 0000 1028     		cmp	r0, #16
 134:../Library/STM32F10x_StdPeriph_Driver/src/stm32f10x_fsmc.c ****   {
 135:../Library/STM32F10x_StdPeriph_Driver/src/stm32f10x_fsmc.c ****     /* Set the FSMC_Bank2 registers to their reset values */
 136:../Library/STM32F10x_StdPeriph_Driver/src/stm32f10x_fsmc.c ****     FSMC_Bank2->PCR2 = 0x00000018;
 18625              		.loc 1 136 0
 18626 0002 07BF     		ittee	eq
 18627 0004 40F26003 		movweq	r3, #:lower16:-1610612640
 18628 0008 CAF20003 		movteq	r3, #:upper16:-1610612640
 137:../Library/STM32F10x_StdPeriph_Driver/src/stm32f10x_fsmc.c ****     FSMC_Bank2->SR2 = 0x00000040;
 138:../Library/STM32F10x_StdPeriph_Driver/src/stm32f10x_fsmc.c ****     FSMC_Bank2->PMEM2 = 0xFCFCFCFC;
 139:../Library/STM32F10x_StdPeriph_Driver/src/stm32f10x_fsmc.c ****     FSMC_Bank2->PATT2 = 0xFCFCFCFC;  
 140:../Library/STM32F10x_StdPeriph_Driver/src/stm32f10x_fsmc.c ****   }
 141:../Library/STM32F10x_StdPeriph_Driver/src/stm32f10x_fsmc.c ****   /* FSMC_Bank3_NAND */  
 142:../Library/STM32F10x_StdPeriph_Driver/src/stm32f10x_fsmc.c ****   else
 143:../Library/STM32F10x_StdPeriph_Driver/src/stm32f10x_fsmc.c ****   {
 144:../Library/STM32F10x_StdPeriph_Driver/src/stm32f10x_fsmc.c ****     /* Set the FSMC_Bank3 registers to their reset values */
 145:../Library/STM32F10x_StdPeriph_Driver/src/stm32f10x_fsmc.c ****     FSMC_Bank3->PCR3 = 0x00000018;
 18629              		.loc 1 145 0
 18630 000c 40F28003 		movwne	r3, #:lower16:-1610612608
 18631 0010 CAF20003 		movtne	r3, #:upper16:-1610612608
 18632 0014 4FF01802 		mov	r2, #24
 18633 0018 1A60     		str	r2, [r3, #0]
 146:../Library/STM32F10x_StdPeriph_Driver/src/stm32f10x_fsmc.c ****     FSMC_Bank3->SR3 = 0x00000040;
 18634              		.loc 1 146 0
 18635 001a 4FF04002 		mov	r2, #64
 18636 001e 5A60     		str	r2, [r3, #4]
 147:../Library/STM32F10x_StdPeriph_Driver/src/stm32f10x_fsmc.c ****     FSMC_Bank3->PMEM3 = 0xFCFCFCFC;
 18637              		.loc 1 147 0
 18638 0020 4FF0FC32 		mov	r2, #-50529028
 18639 0024 9A60     		str	r2, [r3, #8]
 148:../Library/STM32F10x_StdPeriph_Driver/src/stm32f10x_fsmc.c ****     FSMC_Bank3->PATT3 = 0xFCFCFCFC; 
 18640              		.loc 1 148 0
 18641 0026 DA60     		str	r2, [r3, #12]
 18642 0028 7047     		bx	lr
 18643              		.cfi_endproc
 18644              	.LFE30:
 18646 002a 00BF     		.section	.text.FSMC_PCCARDDeInit,"ax",%progbits
 18647              		.align	2
 18648              		.global	FSMC_PCCARDDeInit
 18649              		.thumb
 18650              		.thumb_func
 18652              	FSMC_PCCARDDeInit:
 18653              	.LFB31:
 149:../Library/STM32F10x_StdPeriph_Driver/src/stm32f10x_fsmc.c ****   }  
 150:../Library/STM32F10x_StdPeriph_Driver/src/stm32f10x_fsmc.c **** }
 151:../Library/STM32F10x_StdPeriph_Driver/src/stm32f10x_fsmc.c **** 
 152:../Library/STM32F10x_StdPeriph_Driver/src/stm32f10x_fsmc.c **** /**
 153:../Library/STM32F10x_StdPeriph_Driver/src/stm32f10x_fsmc.c ****   * @brief  Deinitializes the FSMC PCCARD Bank registers to their default reset values.
 154:../Library/STM32F10x_StdPeriph_Driver/src/stm32f10x_fsmc.c ****   * @param  None                       
 155:../Library/STM32F10x_StdPeriph_Driver/src/stm32f10x_fsmc.c ****   * @retval None
 156:../Library/STM32F10x_StdPeriph_Driver/src/stm32f10x_fsmc.c ****   */
 157:../Library/STM32F10x_StdPeriph_Driver/src/stm32f10x_fsmc.c **** void FSMC_PCCARDDeInit(void)
 158:../Library/STM32F10x_StdPeriph_Driver/src/stm32f10x_fsmc.c **** {
 18654              		.loc 1 158 0
 18655              		.cfi_startproc
 18656              		@ args = 0, pretend = 0, frame = 0
 18657              		@ frame_needed = 0, uses_anonymous_args = 0
 18658              		@ link register save eliminated.
 159:../Library/STM32F10x_StdPeriph_Driver/src/stm32f10x_fsmc.c ****   /* Set the FSMC_Bank4 registers to their reset values */
 160:../Library/STM32F10x_StdPeriph_Driver/src/stm32f10x_fsmc.c ****   FSMC_Bank4->PCR4 = 0x00000018; 
 18659              		.loc 1 160 0
 18660 0000 40F2A003 		movw	r3, #:lower16:-1610612576
 18661 0004 CAF20003 		movt	r3, #:upper16:-1610612576
 18662 0008 4FF01802 		mov	r2, #24
 18663 000c 1A60     		str	r2, [r3, #0]
 161:../Library/STM32F10x_StdPeriph_Driver/src/stm32f10x_fsmc.c ****   FSMC_Bank4->SR4 = 0x00000000;	
 18664              		.loc 1 161 0
 18665 000e 4FF00002 		mov	r2, #0
 18666 0012 5A60     		str	r2, [r3, #4]
 162:../Library/STM32F10x_StdPeriph_Driver/src/stm32f10x_fsmc.c ****   FSMC_Bank4->PMEM4 = 0xFCFCFCFC;
 18667              		.loc 1 162 0
 18668 0014 4FF0FC32 		mov	r2, #-50529028
 18669 0018 9A60     		str	r2, [r3, #8]
 163:../Library/STM32F10x_StdPeriph_Driver/src/stm32f10x_fsmc.c ****   FSMC_Bank4->PATT4 = 0xFCFCFCFC;
 18670              		.loc 1 163 0
 18671 001a DA60     		str	r2, [r3, #12]
 164:../Library/STM32F10x_StdPeriph_Driver/src/stm32f10x_fsmc.c ****   FSMC_Bank4->PIO4 = 0xFCFCFCFC;
 18672              		.loc 1 164 0
 18673 001c 1A61     		str	r2, [r3, #16]
 165:../Library/STM32F10x_StdPeriph_Driver/src/stm32f10x_fsmc.c **** }
 18674              		.loc 1 165 0
 18675 001e 7047     		bx	lr
 18676              		.cfi_endproc
 18677              	.LFE31:
 18679              		.section	.text.FSMC_NORSRAMInit,"ax",%progbits
 18680              		.align	2
 18681              		.global	FSMC_NORSRAMInit
 18682              		.thumb
 18683              		.thumb_func
 18685              	FSMC_NORSRAMInit:
 18686              	.LFB32:
 166:../Library/STM32F10x_StdPeriph_Driver/src/stm32f10x_fsmc.c **** 
 167:../Library/STM32F10x_StdPeriph_Driver/src/stm32f10x_fsmc.c **** /**
 168:../Library/STM32F10x_StdPeriph_Driver/src/stm32f10x_fsmc.c ****   * @brief  Initializes the FSMC NOR/SRAM Banks according to the specified
 169:../Library/STM32F10x_StdPeriph_Driver/src/stm32f10x_fsmc.c ****   *   parameters in the FSMC_NORSRAMInitStruct.
 170:../Library/STM32F10x_StdPeriph_Driver/src/stm32f10x_fsmc.c ****   * @param  FSMC_NORSRAMInitStruct : pointer to a FSMC_NORSRAMInitTypeDef
 171:../Library/STM32F10x_StdPeriph_Driver/src/stm32f10x_fsmc.c ****   *   structure that contains the configuration information for 
 172:../Library/STM32F10x_StdPeriph_Driver/src/stm32f10x_fsmc.c ****   *   the FSMC NOR/SRAM specified Banks.                       
 173:../Library/STM32F10x_StdPeriph_Driver/src/stm32f10x_fsmc.c ****   * @retval None
 174:../Library/STM32F10x_StdPeriph_Driver/src/stm32f10x_fsmc.c ****   */
 175:../Library/STM32F10x_StdPeriph_Driver/src/stm32f10x_fsmc.c **** void FSMC_NORSRAMInit(FSMC_NORSRAMInitTypeDef* FSMC_NORSRAMInitStruct)
 176:../Library/STM32F10x_StdPeriph_Driver/src/stm32f10x_fsmc.c **** { 
 18687              		.loc 1 176 0
 18688              		.cfi_startproc
 18689              		@ args = 0, pretend = 0, frame = 0
 18690              		@ frame_needed = 0, uses_anonymous_args = 0
 18691              		@ link register save eliminated.
 18692              	.LVL3:
 18693 0000 30B4     		push	{r4, r5}
 18694              	.LCFI0:
 18695              		.cfi_def_cfa_offset 8
 177:../Library/STM32F10x_StdPeriph_Driver/src/stm32f10x_fsmc.c ****   /* Check the parameters */
 178:../Library/STM32F10x_StdPeriph_Driver/src/stm32f10x_fsmc.c ****   assert_param(IS_FSMC_NORSRAM_BANK(FSMC_NORSRAMInitStruct->FSMC_Bank));
 179:../Library/STM32F10x_StdPeriph_Driver/src/stm32f10x_fsmc.c ****   assert_param(IS_FSMC_MUX(FSMC_NORSRAMInitStruct->FSMC_DataAddressMux));
 180:../Library/STM32F10x_StdPeriph_Driver/src/stm32f10x_fsmc.c ****   assert_param(IS_FSMC_MEMORY(FSMC_NORSRAMInitStruct->FSMC_MemoryType));
 181:../Library/STM32F10x_StdPeriph_Driver/src/stm32f10x_fsmc.c ****   assert_param(IS_FSMC_MEMORY_WIDTH(FSMC_NORSRAMInitStruct->FSMC_MemoryDataWidth));
 182:../Library/STM32F10x_StdPeriph_Driver/src/stm32f10x_fsmc.c ****   assert_param(IS_FSMC_BURSTMODE(FSMC_NORSRAMInitStruct->FSMC_BurstAccessMode));
 183:../Library/STM32F10x_StdPeriph_Driver/src/stm32f10x_fsmc.c ****   assert_param(IS_FSMC_WAIT_POLARITY(FSMC_NORSRAMInitStruct->FSMC_WaitSignalPolarity));
 184:../Library/STM32F10x_StdPeriph_Driver/src/stm32f10x_fsmc.c ****   assert_param(IS_FSMC_WRAP_MODE(FSMC_NORSRAMInitStruct->FSMC_WrapMode));
 185:../Library/STM32F10x_StdPeriph_Driver/src/stm32f10x_fsmc.c ****   assert_param(IS_FSMC_WAIT_SIGNAL_ACTIVE(FSMC_NORSRAMInitStruct->FSMC_WaitSignalActive));
 186:../Library/STM32F10x_StdPeriph_Driver/src/stm32f10x_fsmc.c ****   assert_param(IS_FSMC_WRITE_OPERATION(FSMC_NORSRAMInitStruct->FSMC_WriteOperation));
 187:../Library/STM32F10x_StdPeriph_Driver/src/stm32f10x_fsmc.c ****   assert_param(IS_FSMC_WAITE_SIGNAL(FSMC_NORSRAMInitStruct->FSMC_WaitSignal));
 188:../Library/STM32F10x_StdPeriph_Driver/src/stm32f10x_fsmc.c ****   assert_param(IS_FSMC_EXTENDED_MODE(FSMC_NORSRAMInitStruct->FSMC_ExtendedMode));
 189:../Library/STM32F10x_StdPeriph_Driver/src/stm32f10x_fsmc.c ****   assert_param(IS_FSMC_WRITE_BURST(FSMC_NORSRAMInitStruct->FSMC_WriteBurst));  
 190:../Library/STM32F10x_StdPeriph_Driver/src/stm32f10x_fsmc.c ****   assert_param(IS_FSMC_ADDRESS_SETUP_TIME(FSMC_NORSRAMInitStruct->FSMC_ReadWriteTimingStruct->FSMC_
 191:../Library/STM32F10x_StdPeriph_Driver/src/stm32f10x_fsmc.c ****   assert_param(IS_FSMC_ADDRESS_HOLD_TIME(FSMC_NORSRAMInitStruct->FSMC_ReadWriteTimingStruct->FSMC_A
 192:../Library/STM32F10x_StdPeriph_Driver/src/stm32f10x_fsmc.c ****   assert_param(IS_FSMC_DATASETUP_TIME(FSMC_NORSRAMInitStruct->FSMC_ReadWriteTimingStruct->FSMC_Data
 193:../Library/STM32F10x_StdPeriph_Driver/src/stm32f10x_fsmc.c ****   assert_param(IS_FSMC_TURNAROUND_TIME(FSMC_NORSRAMInitStruct->FSMC_ReadWriteTimingStruct->FSMC_Bus
 194:../Library/STM32F10x_StdPeriph_Driver/src/stm32f10x_fsmc.c ****   assert_param(IS_FSMC_CLK_DIV(FSMC_NORSRAMInitStruct->FSMC_ReadWriteTimingStruct->FSMC_CLKDivision
 195:../Library/STM32F10x_StdPeriph_Driver/src/stm32f10x_fsmc.c ****   assert_param(IS_FSMC_DATA_LATENCY(FSMC_NORSRAMInitStruct->FSMC_ReadWriteTimingStruct->FSMC_DataLa
 196:../Library/STM32F10x_StdPeriph_Driver/src/stm32f10x_fsmc.c ****   assert_param(IS_FSMC_ACCESS_MODE(FSMC_NORSRAMInitStruct->FSMC_ReadWriteTimingStruct->FSMC_AccessM
 197:../Library/STM32F10x_StdPeriph_Driver/src/stm32f10x_fsmc.c ****   
 198:../Library/STM32F10x_StdPeriph_Driver/src/stm32f10x_fsmc.c ****   /* Bank1 NOR/SRAM control register configuration */ 
 199:../Library/STM32F10x_StdPeriph_Driver/src/stm32f10x_fsmc.c ****   FSMC_Bank1->BTCR[FSMC_NORSRAMInitStruct->FSMC_Bank] = 
 18696              		.loc 1 199 0
 18697 0002 0268     		ldr	r2, [r0, #0]
 200:../Library/STM32F10x_StdPeriph_Driver/src/stm32f10x_fsmc.c ****             (uint32_t)FSMC_NORSRAMInitStruct->FSMC_DataAddressMux |
 201:../Library/STM32F10x_StdPeriph_Driver/src/stm32f10x_fsmc.c ****             FSMC_NORSRAMInitStruct->FSMC_MemoryType |
 18698              		.loc 1 201 0
 18699 0004 8368     		ldr	r3, [r0, #8]
 202:../Library/STM32F10x_StdPeriph_Driver/src/stm32f10x_fsmc.c ****             FSMC_NORSRAMInitStruct->FSMC_MemoryDataWidth |
 203:../Library/STM32F10x_StdPeriph_Driver/src/stm32f10x_fsmc.c ****             FSMC_NORSRAMInitStruct->FSMC_BurstAccessMode |
 204:../Library/STM32F10x_StdPeriph_Driver/src/stm32f10x_fsmc.c ****             FSMC_NORSRAMInitStruct->FSMC_WaitSignalPolarity |
 205:../Library/STM32F10x_StdPeriph_Driver/src/stm32f10x_fsmc.c ****             FSMC_NORSRAMInitStruct->FSMC_WrapMode |
 206:../Library/STM32F10x_StdPeriph_Driver/src/stm32f10x_fsmc.c ****             FSMC_NORSRAMInitStruct->FSMC_WaitSignalActive |
 207:../Library/STM32F10x_StdPeriph_Driver/src/stm32f10x_fsmc.c ****             FSMC_NORSRAMInitStruct->FSMC_WriteOperation |
 208:../Library/STM32F10x_StdPeriph_Driver/src/stm32f10x_fsmc.c ****             FSMC_NORSRAMInitStruct->FSMC_WaitSignal |
 209:../Library/STM32F10x_StdPeriph_Driver/src/stm32f10x_fsmc.c ****             FSMC_NORSRAMInitStruct->FSMC_ExtendedMode |
 18700              		.loc 1 209 0
 18701 0006 816A     		ldr	r1, [r0, #40]
 18702              		.loc 1 200 0
 18703 0008 4568     		ldr	r5, [r0, #4]
 18704              		.cfi_offset 5, -4
 18705              		.cfi_offset 4, -8
 18706 000a 43EA0505 		orr	r5, r3, r5
 18707 000e C468     		ldr	r4, [r0, #12]
 18708 0010 45EA0405 		orr	r5, r5, r4
 18709 0014 0469     		ldr	r4, [r0, #16]
 18710 0016 45EA0405 		orr	r5, r5, r4
 18711 001a 4469     		ldr	r4, [r0, #20]
 18712 001c 45EA0405 		orr	r5, r5, r4
 18713 0020 8469     		ldr	r4, [r0, #24]
 18714 0022 45EA0405 		orr	r5, r5, r4
 18715 0026 C469     		ldr	r4, [r0, #28]
 18716 0028 45EA0405 		orr	r5, r5, r4
 18717 002c 046A     		ldr	r4, [r0, #32]
 18718 002e 45EA0405 		orr	r5, r5, r4
 18719 0032 446A     		ldr	r4, [r0, #36]
 18720 0034 45EA0405 		orr	r5, r5, r4
 18721 0038 45EA0105 		orr	r5, r5, r1
 18722 003c C46A     		ldr	r4, [r0, #44]
 18723 003e 45EA0405 		orr	r5, r5, r4
 18724              		.loc 1 199 0
 18725 0042 4FF02044 		mov	r4, #-1610612736
 18726 0046 44F82250 		str	r5, [r4, r2, lsl #2]
 210:../Library/STM32F10x_StdPeriph_Driver/src/stm32f10x_fsmc.c ****             FSMC_NORSRAMInitStruct->FSMC_WriteBurst;
 211:../Library/STM32F10x_StdPeriph_Driver/src/stm32f10x_fsmc.c ****   if(FSMC_NORSRAMInitStruct->FSMC_MemoryType == FSMC_MemoryType_NOR)
 18727              		.loc 1 211 0
 18728 004a 082B     		cmp	r3, #8
 212:../Library/STM32F10x_StdPeriph_Driver/src/stm32f10x_fsmc.c ****   {
 213:../Library/STM32F10x_StdPeriph_Driver/src/stm32f10x_fsmc.c ****     FSMC_Bank1->BTCR[FSMC_NORSRAMInitStruct->FSMC_Bank] |= (uint32_t)BCR_FACCEN_Set;
 18729              		.loc 1 213 0
 18730 004c 01BF     		itttt	eq
 18731 004e 2346     		moveq	r3, r4
 18732 0050 53F82240 		ldreq	r4, [r3, r2, lsl #2]
 18733 0054 44F04004 		orreq	r4, r4, #64
 18734 0058 43F82240 		streq	r4, [r3, r2, lsl #2]
 214:../Library/STM32F10x_StdPeriph_Driver/src/stm32f10x_fsmc.c ****   }
 215:../Library/STM32F10x_StdPeriph_Driver/src/stm32f10x_fsmc.c ****   /* Bank1 NOR/SRAM timing register configuration */
 216:../Library/STM32F10x_StdPeriph_Driver/src/stm32f10x_fsmc.c ****   FSMC_Bank1->BTCR[FSMC_NORSRAMInitStruct->FSMC_Bank+1] = 
 18735              		.loc 1 216 0
 18736 005c 02F1010C 		add	ip, r2, #1
 217:../Library/STM32F10x_StdPeriph_Driver/src/stm32f10x_fsmc.c ****             (uint32_t)FSMC_NORSRAMInitStruct->FSMC_ReadWriteTimingStruct->FSMC_AddressSetupTime |
 18737              		.loc 1 217 0
 18738 0060 036B     		ldr	r3, [r0, #48]
 18739 0062 9D69     		ldr	r5, [r3, #24]
 18740 0064 1C68     		ldr	r4, [r3, #0]
 18741 0066 45EA0404 		orr	r4, r5, r4
 18742 006a 5D68     		ldr	r5, [r3, #4]
 18743 006c 44EA0514 		orr	r4, r4, r5, lsl #4
 18744 0070 9D68     		ldr	r5, [r3, #8]
 18745 0072 44EA0524 		orr	r4, r4, r5, lsl #8
 18746 0076 DD68     		ldr	r5, [r3, #12]
 18747 0078 44EA0544 		orr	r4, r4, r5, lsl #16
 18748 007c 1D69     		ldr	r5, [r3, #16]
 18749 007e 44EA0554 		orr	r4, r4, r5, lsl #20
 18750 0082 5B69     		ldr	r3, [r3, #20]
 18751 0084 44EA0364 		orr	r4, r4, r3, lsl #24
 18752              		.loc 1 216 0
 18753 0088 4FF02043 		mov	r3, #-1610612736
 18754 008c 43F82C40 		str	r4, [r3, ip, lsl #2]
 218:../Library/STM32F10x_StdPeriph_Driver/src/stm32f10x_fsmc.c ****             (FSMC_NORSRAMInitStruct->FSMC_ReadWriteTimingStruct->FSMC_AddressHoldTime << 4) |
 219:../Library/STM32F10x_StdPeriph_Driver/src/stm32f10x_fsmc.c ****             (FSMC_NORSRAMInitStruct->FSMC_ReadWriteTimingStruct->FSMC_DataSetupTime << 8) |
 220:../Library/STM32F10x_StdPeriph_Driver/src/stm32f10x_fsmc.c ****             (FSMC_NORSRAMInitStruct->FSMC_ReadWriteTimingStruct->FSMC_BusTurnAroundDuration << 16) 
 221:../Library/STM32F10x_StdPeriph_Driver/src/stm32f10x_fsmc.c ****             (FSMC_NORSRAMInitStruct->FSMC_ReadWriteTimingStruct->FSMC_CLKDivision << 20) |
 222:../Library/STM32F10x_StdPeriph_Driver/src/stm32f10x_fsmc.c ****             (FSMC_NORSRAMInitStruct->FSMC_ReadWriteTimingStruct->FSMC_DataLatency << 24) |
 223:../Library/STM32F10x_StdPeriph_Driver/src/stm32f10x_fsmc.c ****              FSMC_NORSRAMInitStruct->FSMC_ReadWriteTimingStruct->FSMC_AccessMode;
 224:../Library/STM32F10x_StdPeriph_Driver/src/stm32f10x_fsmc.c ****             
 225:../Library/STM32F10x_StdPeriph_Driver/src/stm32f10x_fsmc.c ****     
 226:../Library/STM32F10x_StdPeriph_Driver/src/stm32f10x_fsmc.c ****   /* Bank1 NOR/SRAM timing register for write configuration, if extended mode is used */
 227:../Library/STM32F10x_StdPeriph_Driver/src/stm32f10x_fsmc.c ****   if(FSMC_NORSRAMInitStruct->FSMC_ExtendedMode == FSMC_ExtendedMode_Enable)
 18755              		.loc 1 227 0
 18756 0090 B1F5804F 		cmp	r1, #16384
 18757 0094 17D1     		bne	.L13
 228:../Library/STM32F10x_StdPeriph_Driver/src/stm32f10x_fsmc.c ****   {
 229:../Library/STM32F10x_StdPeriph_Driver/src/stm32f10x_fsmc.c ****     assert_param(IS_FSMC_ADDRESS_SETUP_TIME(FSMC_NORSRAMInitStruct->FSMC_WriteTimingStruct->FSMC_Ad
 230:../Library/STM32F10x_StdPeriph_Driver/src/stm32f10x_fsmc.c ****     assert_param(IS_FSMC_ADDRESS_HOLD_TIME(FSMC_NORSRAMInitStruct->FSMC_WriteTimingStruct->FSMC_Add
 231:../Library/STM32F10x_StdPeriph_Driver/src/stm32f10x_fsmc.c ****     assert_param(IS_FSMC_DATASETUP_TIME(FSMC_NORSRAMInitStruct->FSMC_WriteTimingStruct->FSMC_DataSe
 232:../Library/STM32F10x_StdPeriph_Driver/src/stm32f10x_fsmc.c ****     assert_param(IS_FSMC_CLK_DIV(FSMC_NORSRAMInitStruct->FSMC_WriteTimingStruct->FSMC_CLKDivision))
 233:../Library/STM32F10x_StdPeriph_Driver/src/stm32f10x_fsmc.c ****     assert_param(IS_FSMC_DATA_LATENCY(FSMC_NORSRAMInitStruct->FSMC_WriteTimingStruct->FSMC_DataLate
 234:../Library/STM32F10x_StdPeriph_Driver/src/stm32f10x_fsmc.c ****     assert_param(IS_FSMC_ACCESS_MODE(FSMC_NORSRAMInitStruct->FSMC_WriteTimingStruct->FSMC_AccessMod
 235:../Library/STM32F10x_StdPeriph_Driver/src/stm32f10x_fsmc.c ****     FSMC_Bank1E->BWTR[FSMC_NORSRAMInitStruct->FSMC_Bank] = 
 236:../Library/STM32F10x_StdPeriph_Driver/src/stm32f10x_fsmc.c ****               (uint32_t)FSMC_NORSRAMInitStruct->FSMC_WriteTimingStruct->FSMC_AddressSetupTime |
 18758              		.loc 1 236 0
 18759 0096 436B     		ldr	r3, [r0, #52]
 18760 0098 9869     		ldr	r0, [r3, #24]
 18761              	.LVL4:
 18762 009a 1968     		ldr	r1, [r3, #0]
 18763 009c 40EA0101 		orr	r1, r0, r1
 18764 00a0 5868     		ldr	r0, [r3, #4]
 18765 00a2 41EA0011 		orr	r1, r1, r0, lsl #4
 18766 00a6 9868     		ldr	r0, [r3, #8]
 18767 00a8 41EA0021 		orr	r1, r1, r0, lsl #8
 18768 00ac 1869     		ldr	r0, [r3, #16]
 18769 00ae 41EA0051 		orr	r1, r1, r0, lsl #20
 18770 00b2 5B69     		ldr	r3, [r3, #20]
 18771 00b4 41EA0361 		orr	r1, r1, r3, lsl #24
 18772              		.loc 1 235 0
 18773 00b8 40F20413 		movw	r3, #:lower16:-1610612476
 18774 00bc CAF20003 		movt	r3, #:upper16:-1610612476
 18775 00c0 43F82210 		str	r1, [r3, r2, lsl #2]
 18776 00c4 07E0     		b	.L15
 18777              	.LVL5:
 18778              	.L13:
 237:../Library/STM32F10x_StdPeriph_Driver/src/stm32f10x_fsmc.c ****               (FSMC_NORSRAMInitStruct->FSMC_WriteTimingStruct->FSMC_AddressHoldTime << 4 )|
 238:../Library/STM32F10x_StdPeriph_Driver/src/stm32f10x_fsmc.c ****               (FSMC_NORSRAMInitStruct->FSMC_WriteTimingStruct->FSMC_DataSetupTime << 8) |
 239:../Library/STM32F10x_StdPeriph_Driver/src/stm32f10x_fsmc.c ****               (FSMC_NORSRAMInitStruct->FSMC_WriteTimingStruct->FSMC_CLKDivision << 20) |
 240:../Library/STM32F10x_StdPeriph_Driver/src/stm32f10x_fsmc.c ****               (FSMC_NORSRAMInitStruct->FSMC_WriteTimingStruct->FSMC_DataLatency << 24) |
 241:../Library/STM32F10x_StdPeriph_Driver/src/stm32f10x_fsmc.c ****                FSMC_NORSRAMInitStruct->FSMC_WriteTimingStruct->FSMC_AccessMode;
 242:../Library/STM32F10x_StdPeriph_Driver/src/stm32f10x_fsmc.c ****   }
 243:../Library/STM32F10x_StdPeriph_Driver/src/stm32f10x_fsmc.c ****   else
 244:../Library/STM32F10x_StdPeriph_Driver/src/stm32f10x_fsmc.c ****   {
 245:../Library/STM32F10x_StdPeriph_Driver/src/stm32f10x_fsmc.c ****     FSMC_Bank1E->BWTR[FSMC_NORSRAMInitStruct->FSMC_Bank] = 0x0FFFFFFF;
 18779              		.loc 1 245 0
 18780 00c6 40F20413 		movw	r3, #:lower16:-1610612476
 18781 00ca CAF20003 		movt	r3, #:upper16:-1610612476
 18782 00ce 6FF07041 		mvn	r1, #-268435456
 18783 00d2 43F82210 		str	r1, [r3, r2, lsl #2]
 18784              	.L15:
 246:../Library/STM32F10x_StdPeriph_Driver/src/stm32f10x_fsmc.c ****   }
 247:../Library/STM32F10x_StdPeriph_Driver/src/stm32f10x_fsmc.c **** }
 18785              		.loc 1 247 0
 18786 00d6 30BC     		pop	{r4, r5}
 18787 00d8 7047     		bx	lr
 18788              		.cfi_endproc
 18789              	.LFE32:
 18791 00da 00BF     		.section	.text.FSMC_NANDInit,"ax",%progbits
 18792              		.align	2
 18793              		.global	FSMC_NANDInit
 18794              		.thumb
 18795              		.thumb_func
 18797              	FSMC_NANDInit:
 18798              	.LFB33:
 248:../Library/STM32F10x_StdPeriph_Driver/src/stm32f10x_fsmc.c **** 
 249:../Library/STM32F10x_StdPeriph_Driver/src/stm32f10x_fsmc.c **** /**
 250:../Library/STM32F10x_StdPeriph_Driver/src/stm32f10x_fsmc.c ****   * @brief  Initializes the FSMC NAND Banks according to the specified 
 251:../Library/STM32F10x_StdPeriph_Driver/src/stm32f10x_fsmc.c ****   *   parameters in the FSMC_NANDInitStruct.
 252:../Library/STM32F10x_StdPeriph_Driver/src/stm32f10x_fsmc.c ****   * @param  FSMC_NANDInitStruct : pointer to a FSMC_NANDInitTypeDef 
 253:../Library/STM32F10x_StdPeriph_Driver/src/stm32f10x_fsmc.c ****   *   structure that contains the configuration information for the FSMC NAND specified Banks.     
 254:../Library/STM32F10x_StdPeriph_Driver/src/stm32f10x_fsmc.c ****   * @retval None
 255:../Library/STM32F10x_StdPeriph_Driver/src/stm32f10x_fsmc.c ****   */
 256:../Library/STM32F10x_StdPeriph_Driver/src/stm32f10x_fsmc.c **** void FSMC_NANDInit(FSMC_NANDInitTypeDef* FSMC_NANDInitStruct)
 257:../Library/STM32F10x_StdPeriph_Driver/src/stm32f10x_fsmc.c **** {
 18799              		.loc 1 257 0
 18800              		.cfi_startproc
 18801              		@ args = 0, pretend = 0, frame = 0
 18802              		@ frame_needed = 0, uses_anonymous_args = 0
 18803              		@ link register save eliminated.
 18804              	.LVL6:
 18805 0000 30B4     		push	{r4, r5}
 18806              	.LCFI1:
 18807              		.cfi_def_cfa_offset 8
 258:../Library/STM32F10x_StdPeriph_Driver/src/stm32f10x_fsmc.c ****   uint32_t tmppcr = 0x00000000, tmppmem = 0x00000000, tmppatt = 0x00000000; 
 259:../Library/STM32F10x_StdPeriph_Driver/src/stm32f10x_fsmc.c ****     
 260:../Library/STM32F10x_StdPeriph_Driver/src/stm32f10x_fsmc.c ****   /* Check the parameters */
 261:../Library/STM32F10x_StdPeriph_Driver/src/stm32f10x_fsmc.c ****   assert_param( IS_FSMC_NAND_BANK(FSMC_NANDInitStruct->FSMC_Bank));
 262:../Library/STM32F10x_StdPeriph_Driver/src/stm32f10x_fsmc.c ****   assert_param( IS_FSMC_WAIT_FEATURE(FSMC_NANDInitStruct->FSMC_Waitfeature));
 263:../Library/STM32F10x_StdPeriph_Driver/src/stm32f10x_fsmc.c ****   assert_param( IS_FSMC_MEMORY_WIDTH(FSMC_NANDInitStruct->FSMC_MemoryDataWidth));
 264:../Library/STM32F10x_StdPeriph_Driver/src/stm32f10x_fsmc.c ****   assert_param( IS_FSMC_ECC_STATE(FSMC_NANDInitStruct->FSMC_ECC));
 265:../Library/STM32F10x_StdPeriph_Driver/src/stm32f10x_fsmc.c ****   assert_param( IS_FSMC_ECCPAGE_SIZE(FSMC_NANDInitStruct->FSMC_ECCPageSize));
 266:../Library/STM32F10x_StdPeriph_Driver/src/stm32f10x_fsmc.c ****   assert_param( IS_FSMC_TCLR_TIME(FSMC_NANDInitStruct->FSMC_TCLRSetupTime));
 267:../Library/STM32F10x_StdPeriph_Driver/src/stm32f10x_fsmc.c ****   assert_param( IS_FSMC_TAR_TIME(FSMC_NANDInitStruct->FSMC_TARSetupTime));
 268:../Library/STM32F10x_StdPeriph_Driver/src/stm32f10x_fsmc.c ****   assert_param(IS_FSMC_SETUP_TIME(FSMC_NANDInitStruct->FSMC_CommonSpaceTimingStruct->FSMC_SetupTime
 269:../Library/STM32F10x_StdPeriph_Driver/src/stm32f10x_fsmc.c ****   assert_param(IS_FSMC_WAIT_TIME(FSMC_NANDInitStruct->FSMC_CommonSpaceTimingStruct->FSMC_WaitSetupT
 270:../Library/STM32F10x_StdPeriph_Driver/src/stm32f10x_fsmc.c ****   assert_param(IS_FSMC_HOLD_TIME(FSMC_NANDInitStruct->FSMC_CommonSpaceTimingStruct->FSMC_HoldSetupT
 271:../Library/STM32F10x_StdPeriph_Driver/src/stm32f10x_fsmc.c ****   assert_param(IS_FSMC_HIZ_TIME(FSMC_NANDInitStruct->FSMC_CommonSpaceTimingStruct->FSMC_HiZSetupTim
 272:../Library/STM32F10x_StdPeriph_Driver/src/stm32f10x_fsmc.c ****   assert_param(IS_FSMC_SETUP_TIME(FSMC_NANDInitStruct->FSMC_AttributeSpaceTimingStruct->FSMC_SetupT
 273:../Library/STM32F10x_StdPeriph_Driver/src/stm32f10x_fsmc.c ****   assert_param(IS_FSMC_WAIT_TIME(FSMC_NANDInitStruct->FSMC_AttributeSpaceTimingStruct->FSMC_WaitSet
 274:../Library/STM32F10x_StdPeriph_Driver/src/stm32f10x_fsmc.c ****   assert_param(IS_FSMC_HOLD_TIME(FSMC_NANDInitStruct->FSMC_AttributeSpaceTimingStruct->FSMC_HoldSet
 275:../Library/STM32F10x_StdPeriph_Driver/src/stm32f10x_fsmc.c ****   assert_param(IS_FSMC_HIZ_TIME(FSMC_NANDInitStruct->FSMC_AttributeSpaceTimingStruct->FSMC_HiZSetup
 276:../Library/STM32F10x_StdPeriph_Driver/src/stm32f10x_fsmc.c ****   
 277:../Library/STM32F10x_StdPeriph_Driver/src/stm32f10x_fsmc.c ****   /* Set the tmppcr value according to FSMC_NANDInitStruct parameters */
 278:../Library/STM32F10x_StdPeriph_Driver/src/stm32f10x_fsmc.c ****   tmppcr = (uint32_t)FSMC_NANDInitStruct->FSMC_Waitfeature |
 18808              		.loc 1 278 0
 18809 0002 4468     		ldr	r4, [r0, #4]
 18810              		.cfi_offset 5, -4
 18811              		.cfi_offset 4, -8
 18812 0004 8368     		ldr	r3, [r0, #8]
 18813 0006 44EA0304 		orr	r4, r4, r3
 18814 000a 44F00804 		orr	r4, r4, #8
 18815 000e C368     		ldr	r3, [r0, #12]
 18816 0010 44EA0304 		orr	r4, r4, r3
 18817 0014 0369     		ldr	r3, [r0, #16]
 18818 0016 44EA0304 		orr	r4, r4, r3
 18819 001a 4369     		ldr	r3, [r0, #20]
 18820 001c 44EA4324 		orr	r4, r4, r3, lsl #9
 18821 0020 8369     		ldr	r3, [r0, #24]
 18822 0022 44EA4334 		orr	r4, r4, r3, lsl #13
 18823              	.LVL7:
 279:../Library/STM32F10x_StdPeriph_Driver/src/stm32f10x_fsmc.c ****             PCR_MemoryType_NAND |
 280:../Library/STM32F10x_StdPeriph_Driver/src/stm32f10x_fsmc.c ****             FSMC_NANDInitStruct->FSMC_MemoryDataWidth |
 281:../Library/STM32F10x_StdPeriph_Driver/src/stm32f10x_fsmc.c ****             FSMC_NANDInitStruct->FSMC_ECC |
 282:../Library/STM32F10x_StdPeriph_Driver/src/stm32f10x_fsmc.c ****             FSMC_NANDInitStruct->FSMC_ECCPageSize |
 283:../Library/STM32F10x_StdPeriph_Driver/src/stm32f10x_fsmc.c ****             (FSMC_NANDInitStruct->FSMC_TCLRSetupTime << 9 )|
 284:../Library/STM32F10x_StdPeriph_Driver/src/stm32f10x_fsmc.c ****             (FSMC_NANDInitStruct->FSMC_TARSetupTime << 13);
 285:../Library/STM32F10x_StdPeriph_Driver/src/stm32f10x_fsmc.c ****             
 286:../Library/STM32F10x_StdPeriph_Driver/src/stm32f10x_fsmc.c ****   /* Set tmppmem value according to FSMC_CommonSpaceTimingStructure parameters */
 287:../Library/STM32F10x_StdPeriph_Driver/src/stm32f10x_fsmc.c ****   tmppmem = (uint32_t)FSMC_NANDInitStruct->FSMC_CommonSpaceTimingStruct->FSMC_SetupTime |
 18824              		.loc 1 287 0
 18825 0026 C369     		ldr	r3, [r0, #28]
 18826 0028 5A68     		ldr	r2, [r3, #4]
 18827 002a 9D68     		ldr	r5, [r3, #8]
 18828 002c 4FEA0545 		lsl	r5, r5, #16
 18829 0030 45EA0225 		orr	r5, r5, r2, lsl #8
 18830 0034 1A68     		ldr	r2, [r3, #0]
 18831 0036 45EA0205 		orr	r5, r5, r2
 18832 003a DB68     		ldr	r3, [r3, #12]
 18833 003c 45EA0365 		orr	r5, r5, r3, lsl #24
 18834              	.LVL8:
 288:../Library/STM32F10x_StdPeriph_Driver/src/stm32f10x_fsmc.c ****             (FSMC_NANDInitStruct->FSMC_CommonSpaceTimingStruct->FSMC_WaitSetupTime << 8) |
 289:../Library/STM32F10x_StdPeriph_Driver/src/stm32f10x_fsmc.c ****             (FSMC_NANDInitStruct->FSMC_CommonSpaceTimingStruct->FSMC_HoldSetupTime << 16)|
 290:../Library/STM32F10x_StdPeriph_Driver/src/stm32f10x_fsmc.c ****             (FSMC_NANDInitStruct->FSMC_CommonSpaceTimingStruct->FSMC_HiZSetupTime << 24); 
 291:../Library/STM32F10x_StdPeriph_Driver/src/stm32f10x_fsmc.c ****             
 292:../Library/STM32F10x_StdPeriph_Driver/src/stm32f10x_fsmc.c ****   /* Set tmppatt value according to FSMC_AttributeSpaceTimingStructure parameters */
 293:../Library/STM32F10x_StdPeriph_Driver/src/stm32f10x_fsmc.c ****   tmppatt = (uint32_t)FSMC_NANDInitStruct->FSMC_AttributeSpaceTimingStruct->FSMC_SetupTime |
 18835              		.loc 1 293 0
 18836 0040 036A     		ldr	r3, [r0, #32]
 18837 0042 5968     		ldr	r1, [r3, #4]
 18838 0044 9A68     		ldr	r2, [r3, #8]
 18839 0046 4FEA0242 		lsl	r2, r2, #16
 18840 004a 42EA0122 		orr	r2, r2, r1, lsl #8
 18841 004e 1968     		ldr	r1, [r3, #0]
 18842 0050 42EA0102 		orr	r2, r2, r1
 18843 0054 DB68     		ldr	r3, [r3, #12]
 18844 0056 42EA0362 		orr	r2, r2, r3, lsl #24
 18845              	.LVL9:
 294:../Library/STM32F10x_StdPeriph_Driver/src/stm32f10x_fsmc.c ****             (FSMC_NANDInitStruct->FSMC_AttributeSpaceTimingStruct->FSMC_WaitSetupTime << 8) |
 295:../Library/STM32F10x_StdPeriph_Driver/src/stm32f10x_fsmc.c ****             (FSMC_NANDInitStruct->FSMC_AttributeSpaceTimingStruct->FSMC_HoldSetupTime << 16)|
 296:../Library/STM32F10x_StdPeriph_Driver/src/stm32f10x_fsmc.c ****             (FSMC_NANDInitStruct->FSMC_AttributeSpaceTimingStruct->FSMC_HiZSetupTime << 24);
 297:../Library/STM32F10x_StdPeriph_Driver/src/stm32f10x_fsmc.c ****   
 298:../Library/STM32F10x_StdPeriph_Driver/src/stm32f10x_fsmc.c ****   if(FSMC_NANDInitStruct->FSMC_Bank == FSMC_Bank2_NAND)
 18846              		.loc 1 298 0
 18847 005a 0368     		ldr	r3, [r0, #0]
 18848 005c 102B     		cmp	r3, #16
 299:../Library/STM32F10x_StdPeriph_Driver/src/stm32f10x_fsmc.c ****   {
 300:../Library/STM32F10x_StdPeriph_Driver/src/stm32f10x_fsmc.c ****     /* FSMC_Bank2_NAND registers configuration */
 301:../Library/STM32F10x_StdPeriph_Driver/src/stm32f10x_fsmc.c ****     FSMC_Bank2->PCR2 = tmppcr;
 18849              		.loc 1 301 0
 18850 005e 07BF     		ittee	eq
 18851 0060 40F26003 		movweq	r3, #:lower16:-1610612640
 18852 0064 CAF20003 		movteq	r3, #:upper16:-1610612640
 302:../Library/STM32F10x_StdPeriph_Driver/src/stm32f10x_fsmc.c ****     FSMC_Bank2->PMEM2 = tmppmem;
 303:../Library/STM32F10x_StdPeriph_Driver/src/stm32f10x_fsmc.c ****     FSMC_Bank2->PATT2 = tmppatt;
 304:../Library/STM32F10x_StdPeriph_Driver/src/stm32f10x_fsmc.c ****   }
 305:../Library/STM32F10x_StdPeriph_Driver/src/stm32f10x_fsmc.c ****   else
 306:../Library/STM32F10x_StdPeriph_Driver/src/stm32f10x_fsmc.c ****   {
 307:../Library/STM32F10x_StdPeriph_Driver/src/stm32f10x_fsmc.c ****     /* FSMC_Bank3_NAND registers configuration */
 308:../Library/STM32F10x_StdPeriph_Driver/src/stm32f10x_fsmc.c ****     FSMC_Bank3->PCR3 = tmppcr;
 18853              		.loc 1 308 0
 18854 0068 40F28003 		movwne	r3, #:lower16:-1610612608
 18855 006c CAF20003 		movtne	r3, #:upper16:-1610612608
 18856 0070 1C60     		str	r4, [r3, #0]
 309:../Library/STM32F10x_StdPeriph_Driver/src/stm32f10x_fsmc.c ****     FSMC_Bank3->PMEM3 = tmppmem;
 18857              		.loc 1 309 0
 18858 0072 9D60     		str	r5, [r3, #8]
 310:../Library/STM32F10x_StdPeriph_Driver/src/stm32f10x_fsmc.c ****     FSMC_Bank3->PATT3 = tmppatt;
 18859              		.loc 1 310 0
 18860 0074 DA60     		str	r2, [r3, #12]
 311:../Library/STM32F10x_StdPeriph_Driver/src/stm32f10x_fsmc.c ****   }
 312:../Library/STM32F10x_StdPeriph_Driver/src/stm32f10x_fsmc.c **** }
 18861              		.loc 1 312 0
 18862 0076 30BC     		pop	{r4, r5}
 18863 0078 7047     		bx	lr
 18864              		.cfi_endproc
 18865              	.LFE33:
 18867 007a 00BF     		.section	.text.FSMC_PCCARDInit,"ax",%progbits
 18868              		.align	2
 18869              		.global	FSMC_PCCARDInit
 18870              		.thumb
 18871              		.thumb_func
 18873              	FSMC_PCCARDInit:
 18874              	.LFB34:
 313:../Library/STM32F10x_StdPeriph_Driver/src/stm32f10x_fsmc.c **** 
 314:../Library/STM32F10x_StdPeriph_Driver/src/stm32f10x_fsmc.c **** /**
 315:../Library/STM32F10x_StdPeriph_Driver/src/stm32f10x_fsmc.c ****   * @brief  Initializes the FSMC PCCARD Bank according to the specified 
 316:../Library/STM32F10x_StdPeriph_Driver/src/stm32f10x_fsmc.c ****   *   parameters in the FSMC_PCCARDInitStruct.
 317:../Library/STM32F10x_StdPeriph_Driver/src/stm32f10x_fsmc.c ****   * @param  FSMC_PCCARDInitStruct : pointer to a FSMC_PCCARDInitTypeDef
 318:../Library/STM32F10x_StdPeriph_Driver/src/stm32f10x_fsmc.c ****   *   structure that contains the configuration information for the FSMC PCCARD Bank.              
 319:../Library/STM32F10x_StdPeriph_Driver/src/stm32f10x_fsmc.c ****   * @retval None
 320:../Library/STM32F10x_StdPeriph_Driver/src/stm32f10x_fsmc.c ****   */
 321:../Library/STM32F10x_StdPeriph_Driver/src/stm32f10x_fsmc.c **** void FSMC_PCCARDInit(FSMC_PCCARDInitTypeDef* FSMC_PCCARDInitStruct)
 322:../Library/STM32F10x_StdPeriph_Driver/src/stm32f10x_fsmc.c **** {
 18875              		.loc 1 322 0
 18876              		.cfi_startproc
 18877              		@ args = 0, pretend = 0, frame = 0
 18878              		@ frame_needed = 0, uses_anonymous_args = 0
 18879              		@ link register save eliminated.
 18880              	.LVL10:
 18881 0000 10B4     		push	{r4}
 18882              	.LCFI2:
 18883              		.cfi_def_cfa_offset 4
 323:../Library/STM32F10x_StdPeriph_Driver/src/stm32f10x_fsmc.c ****   /* Check the parameters */
 324:../Library/STM32F10x_StdPeriph_Driver/src/stm32f10x_fsmc.c ****   assert_param(IS_FSMC_WAIT_FEATURE(FSMC_PCCARDInitStruct->FSMC_Waitfeature));
 325:../Library/STM32F10x_StdPeriph_Driver/src/stm32f10x_fsmc.c ****   assert_param(IS_FSMC_TCLR_TIME(FSMC_PCCARDInitStruct->FSMC_TCLRSetupTime));
 326:../Library/STM32F10x_StdPeriph_Driver/src/stm32f10x_fsmc.c ****   assert_param(IS_FSMC_TAR_TIME(FSMC_PCCARDInitStruct->FSMC_TARSetupTime));
 327:../Library/STM32F10x_StdPeriph_Driver/src/stm32f10x_fsmc.c ****  
 328:../Library/STM32F10x_StdPeriph_Driver/src/stm32f10x_fsmc.c ****   assert_param(IS_FSMC_SETUP_TIME(FSMC_PCCARDInitStruct->FSMC_CommonSpaceTimingStruct->FSMC_SetupTi
 329:../Library/STM32F10x_StdPeriph_Driver/src/stm32f10x_fsmc.c ****   assert_param(IS_FSMC_WAIT_TIME(FSMC_PCCARDInitStruct->FSMC_CommonSpaceTimingStruct->FSMC_WaitSetu
 330:../Library/STM32F10x_StdPeriph_Driver/src/stm32f10x_fsmc.c ****   assert_param(IS_FSMC_HOLD_TIME(FSMC_PCCARDInitStruct->FSMC_CommonSpaceTimingStruct->FSMC_HoldSetu
 331:../Library/STM32F10x_StdPeriph_Driver/src/stm32f10x_fsmc.c ****   assert_param(IS_FSMC_HIZ_TIME(FSMC_PCCARDInitStruct->FSMC_CommonSpaceTimingStruct->FSMC_HiZSetupT
 332:../Library/STM32F10x_StdPeriph_Driver/src/stm32f10x_fsmc.c ****   
 333:../Library/STM32F10x_StdPeriph_Driver/src/stm32f10x_fsmc.c ****   assert_param(IS_FSMC_SETUP_TIME(FSMC_PCCARDInitStruct->FSMC_AttributeSpaceTimingStruct->FSMC_Setu
 334:../Library/STM32F10x_StdPeriph_Driver/src/stm32f10x_fsmc.c ****   assert_param(IS_FSMC_WAIT_TIME(FSMC_PCCARDInitStruct->FSMC_AttributeSpaceTimingStruct->FSMC_WaitS
 335:../Library/STM32F10x_StdPeriph_Driver/src/stm32f10x_fsmc.c ****   assert_param(IS_FSMC_HOLD_TIME(FSMC_PCCARDInitStruct->FSMC_AttributeSpaceTimingStruct->FSMC_HoldS
 336:../Library/STM32F10x_StdPeriph_Driver/src/stm32f10x_fsmc.c ****   assert_param(IS_FSMC_HIZ_TIME(FSMC_PCCARDInitStruct->FSMC_AttributeSpaceTimingStruct->FSMC_HiZSet
 337:../Library/STM32F10x_StdPeriph_Driver/src/stm32f10x_fsmc.c ****   assert_param(IS_FSMC_SETUP_TIME(FSMC_PCCARDInitStruct->FSMC_IOSpaceTimingStruct->FSMC_SetupTime))
 338:../Library/STM32F10x_StdPeriph_Driver/src/stm32f10x_fsmc.c ****   assert_param(IS_FSMC_WAIT_TIME(FSMC_PCCARDInitStruct->FSMC_IOSpaceTimingStruct->FSMC_WaitSetupTim
 339:../Library/STM32F10x_StdPeriph_Driver/src/stm32f10x_fsmc.c ****   assert_param(IS_FSMC_HOLD_TIME(FSMC_PCCARDInitStruct->FSMC_IOSpaceTimingStruct->FSMC_HoldSetupTim
 340:../Library/STM32F10x_StdPeriph_Driver/src/stm32f10x_fsmc.c ****   assert_param(IS_FSMC_HIZ_TIME(FSMC_PCCARDInitStruct->FSMC_IOSpaceTimingStruct->FSMC_HiZSetupTime)
 341:../Library/STM32F10x_StdPeriph_Driver/src/stm32f10x_fsmc.c ****   
 342:../Library/STM32F10x_StdPeriph_Driver/src/stm32f10x_fsmc.c ****   /* Set the PCR4 register value according to FSMC_PCCARDInitStruct parameters */
 343:../Library/STM32F10x_StdPeriph_Driver/src/stm32f10x_fsmc.c ****   FSMC_Bank4->PCR4 = (uint32_t)FSMC_PCCARDInitStruct->FSMC_Waitfeature |
 18884              		.loc 1 343 0
 18885 0002 0268     		ldr	r2, [r0, #0]
 18886 0004 42F01002 		orr	r2, r2, #16
 18887 0008 4368     		ldr	r3, [r0, #4]
 18888 000a 42EA4322 		orr	r2, r2, r3, lsl #9
 18889 000e 8368     		ldr	r3, [r0, #8]
 18890 0010 42EA4332 		orr	r2, r2, r3, lsl #13
 18891 0014 40F2A003 		movw	r3, #:lower16:-1610612576
 18892 0018 CAF20003 		movt	r3, #:upper16:-1610612576
 18893 001c 1A60     		str	r2, [r3, #0]
 344:../Library/STM32F10x_StdPeriph_Driver/src/stm32f10x_fsmc.c ****                      FSMC_MemoryDataWidth_16b |  
 345:../Library/STM32F10x_StdPeriph_Driver/src/stm32f10x_fsmc.c ****                      (FSMC_PCCARDInitStruct->FSMC_TCLRSetupTime << 9) |
 346:../Library/STM32F10x_StdPeriph_Driver/src/stm32f10x_fsmc.c ****                      (FSMC_PCCARDInitStruct->FSMC_TARSetupTime << 13);
 347:../Library/STM32F10x_StdPeriph_Driver/src/stm32f10x_fsmc.c ****             
 348:../Library/STM32F10x_StdPeriph_Driver/src/stm32f10x_fsmc.c ****   /* Set PMEM4 register value according to FSMC_CommonSpaceTimingStructure parameters */
 349:../Library/STM32F10x_StdPeriph_Driver/src/stm32f10x_fsmc.c ****   FSMC_Bank4->PMEM4 = (uint32_t)FSMC_PCCARDInitStruct->FSMC_CommonSpaceTimingStruct->FSMC_SetupTime
 18894              		.loc 1 349 0
 18895 001e C268     		ldr	r2, [r0, #12]
 18896 0020 5468     		ldr	r4, [r2, #4]
 18897              		.cfi_offset 4, -4
 18898 0022 9168     		ldr	r1, [r2, #8]
 18899 0024 4FEA0141 		lsl	r1, r1, #16
 18900 0028 41EA0421 		orr	r1, r1, r4, lsl #8
 18901 002c 1468     		ldr	r4, [r2, #0]
 18902 002e 41EA0401 		orr	r1, r1, r4
 18903 0032 D268     		ldr	r2, [r2, #12]
 18904 0034 41EA0262 		orr	r2, r1, r2, lsl #24
 18905 0038 9A60     		str	r2, [r3, #8]
 350:../Library/STM32F10x_StdPeriph_Driver/src/stm32f10x_fsmc.c ****                       (FSMC_PCCARDInitStruct->FSMC_CommonSpaceTimingStruct->FSMC_WaitSetupTime << 8
 351:../Library/STM32F10x_StdPeriph_Driver/src/stm32f10x_fsmc.c ****                       (FSMC_PCCARDInitStruct->FSMC_CommonSpaceTimingStruct->FSMC_HoldSetupTime << 1
 352:../Library/STM32F10x_StdPeriph_Driver/src/stm32f10x_fsmc.c ****                       (FSMC_PCCARDInitStruct->FSMC_CommonSpaceTimingStruct->FSMC_HiZSetupTime << 24
 353:../Library/STM32F10x_StdPeriph_Driver/src/stm32f10x_fsmc.c ****             
 354:../Library/STM32F10x_StdPeriph_Driver/src/stm32f10x_fsmc.c ****   /* Set PATT4 register value according to FSMC_AttributeSpaceTimingStructure parameters */
 355:../Library/STM32F10x_StdPeriph_Driver/src/stm32f10x_fsmc.c ****   FSMC_Bank4->PATT4 = (uint32_t)FSMC_PCCARDInitStruct->FSMC_AttributeSpaceTimingStruct->FSMC_SetupT
 18906              		.loc 1 355 0
 18907 003a 0269     		ldr	r2, [r0, #16]
 18908 003c 5468     		ldr	r4, [r2, #4]
 18909 003e 9168     		ldr	r1, [r2, #8]
 18910 0040 4FEA0141 		lsl	r1, r1, #16
 18911 0044 41EA0421 		orr	r1, r1, r4, lsl #8
 18912 0048 1468     		ldr	r4, [r2, #0]
 18913 004a 41EA0401 		orr	r1, r1, r4
 18914 004e D268     		ldr	r2, [r2, #12]
 18915 0050 41EA0262 		orr	r2, r1, r2, lsl #24
 18916 0054 DA60     		str	r2, [r3, #12]
 356:../Library/STM32F10x_StdPeriph_Driver/src/stm32f10x_fsmc.c ****                       (FSMC_PCCARDInitStruct->FSMC_AttributeSpaceTimingStruct->FSMC_WaitSetupTime <
 357:../Library/STM32F10x_StdPeriph_Driver/src/stm32f10x_fsmc.c ****                       (FSMC_PCCARDInitStruct->FSMC_AttributeSpaceTimingStruct->FSMC_HoldSetupTime <
 358:../Library/STM32F10x_StdPeriph_Driver/src/stm32f10x_fsmc.c ****                       (FSMC_PCCARDInitStruct->FSMC_AttributeSpaceTimingStruct->FSMC_HiZSetupTime <<
 359:../Library/STM32F10x_StdPeriph_Driver/src/stm32f10x_fsmc.c ****             
 360:../Library/STM32F10x_StdPeriph_Driver/src/stm32f10x_fsmc.c ****   /* Set PIO4 register value according to FSMC_IOSpaceTimingStructure parameters */
 361:../Library/STM32F10x_StdPeriph_Driver/src/stm32f10x_fsmc.c ****   FSMC_Bank4->PIO4 = (uint32_t)FSMC_PCCARDInitStruct->FSMC_IOSpaceTimingStruct->FSMC_SetupTime |
 18917              		.loc 1 361 0
 18918 0056 4269     		ldr	r2, [r0, #20]
 18919 0058 5068     		ldr	r0, [r2, #4]
 18920              	.LVL11:
 18921 005a 9168     		ldr	r1, [r2, #8]
 18922 005c 4FEA0141 		lsl	r1, r1, #16
 18923 0060 41EA0021 		orr	r1, r1, r0, lsl #8
 18924 0064 1068     		ldr	r0, [r2, #0]
 18925 0066 41EA0001 		orr	r1, r1, r0
 18926 006a D268     		ldr	r2, [r2, #12]
 18927 006c 41EA0262 		orr	r2, r1, r2, lsl #24
 18928 0070 1A61     		str	r2, [r3, #16]
 362:../Library/STM32F10x_StdPeriph_Driver/src/stm32f10x_fsmc.c ****                      (FSMC_PCCARDInitStruct->FSMC_IOSpaceTimingStruct->FSMC_WaitSetupTime << 8) |
 363:../Library/STM32F10x_StdPeriph_Driver/src/stm32f10x_fsmc.c ****                      (FSMC_PCCARDInitStruct->FSMC_IOSpaceTimingStruct->FSMC_HoldSetupTime << 16)|
 364:../Library/STM32F10x_StdPeriph_Driver/src/stm32f10x_fsmc.c ****                      (FSMC_PCCARDInitStruct->FSMC_IOSpaceTimingStruct->FSMC_HiZSetupTime << 24);   
 365:../Library/STM32F10x_StdPeriph_Driver/src/stm32f10x_fsmc.c **** }
 18929              		.loc 1 365 0
 18930 0072 10BC     		pop	{r4}
 18931 0074 7047     		bx	lr
 18932              		.cfi_endproc
 18933              	.LFE34:
 18935 0076 00BF     		.section	.text.FSMC_NORSRAMStructInit,"ax",%progbits
 18936              		.align	2
 18937              		.global	FSMC_NORSRAMStructInit
 18938              		.thumb
 18939              		.thumb_func
 18941              	FSMC_NORSRAMStructInit:
 18942              	.LFB35:
 366:../Library/STM32F10x_StdPeriph_Driver/src/stm32f10x_fsmc.c **** 
 367:../Library/STM32F10x_StdPeriph_Driver/src/stm32f10x_fsmc.c **** /**
 368:../Library/STM32F10x_StdPeriph_Driver/src/stm32f10x_fsmc.c ****   * @brief  Fills each FSMC_NORSRAMInitStruct member with its default value.
 369:../Library/STM32F10x_StdPeriph_Driver/src/stm32f10x_fsmc.c ****   * @param  FSMC_NORSRAMInitStruct: pointer to a FSMC_NORSRAMInitTypeDef 
 370:../Library/STM32F10x_StdPeriph_Driver/src/stm32f10x_fsmc.c ****   *   structure which will be initialized.
 371:../Library/STM32F10x_StdPeriph_Driver/src/stm32f10x_fsmc.c ****   * @retval None
 372:../Library/STM32F10x_StdPeriph_Driver/src/stm32f10x_fsmc.c ****   */
 373:../Library/STM32F10x_StdPeriph_Driver/src/stm32f10x_fsmc.c **** void FSMC_NORSRAMStructInit(FSMC_NORSRAMInitTypeDef* FSMC_NORSRAMInitStruct)
 374:../Library/STM32F10x_StdPeriph_Driver/src/stm32f10x_fsmc.c **** {  
 18943              		.loc 1 374 0
 18944              		.cfi_startproc
 18945              		@ args = 0, pretend = 0, frame = 0
 18946              		@ frame_needed = 0, uses_anonymous_args = 0
 18947              		@ link register save eliminated.
 18948              	.LVL12:
 18949 0000 10B4     		push	{r4}
 18950              	.LCFI3:
 18951              		.cfi_def_cfa_offset 4
 375:../Library/STM32F10x_StdPeriph_Driver/src/stm32f10x_fsmc.c ****   /* Reset NOR/SRAM Init structure parameters values */
 376:../Library/STM32F10x_StdPeriph_Driver/src/stm32f10x_fsmc.c ****   FSMC_NORSRAMInitStruct->FSMC_Bank = FSMC_Bank1_NORSRAM1;
 18952              		.loc 1 376 0
 18953 0002 4FF00003 		mov	r3, #0
 18954 0006 0360     		str	r3, [r0, #0]
 377:../Library/STM32F10x_StdPeriph_Driver/src/stm32f10x_fsmc.c ****   FSMC_NORSRAMInitStruct->FSMC_DataAddressMux = FSMC_DataAddressMux_Enable;
 18955              		.loc 1 377 0
 18956 0008 4FF00202 		mov	r2, #2
 18957 000c 4260     		str	r2, [r0, #4]
 378:../Library/STM32F10x_StdPeriph_Driver/src/stm32f10x_fsmc.c ****   FSMC_NORSRAMInitStruct->FSMC_MemoryType = FSMC_MemoryType_SRAM;
 18958              		.loc 1 378 0
 18959 000e 8360     		str	r3, [r0, #8]
 379:../Library/STM32F10x_StdPeriph_Driver/src/stm32f10x_fsmc.c ****   FSMC_NORSRAMInitStruct->FSMC_MemoryDataWidth = FSMC_MemoryDataWidth_8b;
 18960              		.loc 1 379 0
 18961 0010 C360     		str	r3, [r0, #12]
 380:../Library/STM32F10x_StdPeriph_Driver/src/stm32f10x_fsmc.c ****   FSMC_NORSRAMInitStruct->FSMC_BurstAccessMode = FSMC_BurstAccessMode_Disable;
 18962              		.loc 1 380 0
 18963 0012 0361     		str	r3, [r0, #16]
 381:../Library/STM32F10x_StdPeriph_Driver/src/stm32f10x_fsmc.c ****   FSMC_NORSRAMInitStruct->FSMC_WaitSignalPolarity = FSMC_WaitSignalPolarity_Low;
 18964              		.loc 1 381 0
 18965 0014 4361     		str	r3, [r0, #20]
 382:../Library/STM32F10x_StdPeriph_Driver/src/stm32f10x_fsmc.c ****   FSMC_NORSRAMInitStruct->FSMC_WrapMode = FSMC_WrapMode_Disable;
 18966              		.loc 1 382 0
 18967 0016 8361     		str	r3, [r0, #24]
 383:../Library/STM32F10x_StdPeriph_Driver/src/stm32f10x_fsmc.c ****   FSMC_NORSRAMInitStruct->FSMC_WaitSignalActive = FSMC_WaitSignalActive_BeforeWaitState;
 18968              		.loc 1 383 0
 18969 0018 C361     		str	r3, [r0, #28]
 384:../Library/STM32F10x_StdPeriph_Driver/src/stm32f10x_fsmc.c ****   FSMC_NORSRAMInitStruct->FSMC_WriteOperation = FSMC_WriteOperation_Enable;
 18970              		.loc 1 384 0
 18971 001a 4FF48052 		mov	r2, #4096
 18972 001e 0262     		str	r2, [r0, #32]
 385:../Library/STM32F10x_StdPeriph_Driver/src/stm32f10x_fsmc.c ****   FSMC_NORSRAMInitStruct->FSMC_WaitSignal = FSMC_WaitSignal_Enable;
 18973              		.loc 1 385 0
 18974 0020 4FF40052 		mov	r2, #8192
 18975 0024 4262     		str	r2, [r0, #36]
 386:../Library/STM32F10x_StdPeriph_Driver/src/stm32f10x_fsmc.c ****   FSMC_NORSRAMInitStruct->FSMC_ExtendedMode = FSMC_ExtendedMode_Disable;
 18976              		.loc 1 386 0
 18977 0026 8362     		str	r3, [r0, #40]
 387:../Library/STM32F10x_StdPeriph_Driver/src/stm32f10x_fsmc.c ****   FSMC_NORSRAMInitStruct->FSMC_WriteBurst = FSMC_WriteBurst_Disable;
 18978              		.loc 1 387 0
 18979 0028 C362     		str	r3, [r0, #44]
 388:../Library/STM32F10x_StdPeriph_Driver/src/stm32f10x_fsmc.c ****   FSMC_NORSRAMInitStruct->FSMC_ReadWriteTimingStruct->FSMC_AddressSetupTime = 0xF;
 18980              		.loc 1 388 0
 18981 002a 016B     		ldr	r1, [r0, #48]
 18982 002c 4FF00F02 		mov	r2, #15
 18983 0030 0A60     		str	r2, [r1, #0]
 389:../Library/STM32F10x_StdPeriph_Driver/src/stm32f10x_fsmc.c ****   FSMC_NORSRAMInitStruct->FSMC_ReadWriteTimingStruct->FSMC_AddressHoldTime = 0xF;
 18984              		.loc 1 389 0
 18985 0032 016B     		ldr	r1, [r0, #48]
 18986 0034 4A60     		str	r2, [r1, #4]
 390:../Library/STM32F10x_StdPeriph_Driver/src/stm32f10x_fsmc.c ****   FSMC_NORSRAMInitStruct->FSMC_ReadWriteTimingStruct->FSMC_DataSetupTime = 0xFF;
 18987              		.loc 1 390 0
 18988 0036 046B     		ldr	r4, [r0, #48]
 18989              		.cfi_offset 4, -4
 18990 0038 4FF0FF01 		mov	r1, #255
 18991 003c A160     		str	r1, [r4, #8]
 391:../Library/STM32F10x_StdPeriph_Driver/src/stm32f10x_fsmc.c ****   FSMC_NORSRAMInitStruct->FSMC_ReadWriteTimingStruct->FSMC_BusTurnAroundDuration = 0xF;
 18992              		.loc 1 391 0
 18993 003e 046B     		ldr	r4, [r0, #48]
 18994 0040 E260     		str	r2, [r4, #12]
 392:../Library/STM32F10x_StdPeriph_Driver/src/stm32f10x_fsmc.c ****   FSMC_NORSRAMInitStruct->FSMC_ReadWriteTimingStruct->FSMC_CLKDivision = 0xF;
 18995              		.loc 1 392 0
 18996 0042 046B     		ldr	r4, [r0, #48]
 18997 0044 2261     		str	r2, [r4, #16]
 393:../Library/STM32F10x_StdPeriph_Driver/src/stm32f10x_fsmc.c ****   FSMC_NORSRAMInitStruct->FSMC_ReadWriteTimingStruct->FSMC_DataLatency = 0xF;
 18998              		.loc 1 393 0
 18999 0046 046B     		ldr	r4, [r0, #48]
 19000 0048 6261     		str	r2, [r4, #20]
 394:../Library/STM32F10x_StdPeriph_Driver/src/stm32f10x_fsmc.c ****   FSMC_NORSRAMInitStruct->FSMC_ReadWriteTimingStruct->FSMC_AccessMode = FSMC_AccessMode_A; 
 19001              		.loc 1 394 0
 19002 004a 046B     		ldr	r4, [r0, #48]
 19003 004c A361     		str	r3, [r4, #24]
 395:../Library/STM32F10x_StdPeriph_Driver/src/stm32f10x_fsmc.c ****   FSMC_NORSRAMInitStruct->FSMC_WriteTimingStruct->FSMC_AddressSetupTime = 0xF;
 19004              		.loc 1 395 0
 19005 004e 446B     		ldr	r4, [r0, #52]
 19006 0050 2260     		str	r2, [r4, #0]
 396:../Library/STM32F10x_StdPeriph_Driver/src/stm32f10x_fsmc.c ****   FSMC_NORSRAMInitStruct->FSMC_WriteTimingStruct->FSMC_AddressHoldTime = 0xF;
 19007              		.loc 1 396 0
 19008 0052 446B     		ldr	r4, [r0, #52]
 19009 0054 6260     		str	r2, [r4, #4]
 397:../Library/STM32F10x_StdPeriph_Driver/src/stm32f10x_fsmc.c ****   FSMC_NORSRAMInitStruct->FSMC_WriteTimingStruct->FSMC_DataSetupTime = 0xFF;
 19010              		.loc 1 397 0
 19011 0056 446B     		ldr	r4, [r0, #52]
 19012 0058 A160     		str	r1, [r4, #8]
 398:../Library/STM32F10x_StdPeriph_Driver/src/stm32f10x_fsmc.c ****   FSMC_NORSRAMInitStruct->FSMC_WriteTimingStruct->FSMC_BusTurnAroundDuration = 0xF;
 19013              		.loc 1 398 0
 19014 005a 416B     		ldr	r1, [r0, #52]
 19015 005c CA60     		str	r2, [r1, #12]
 399:../Library/STM32F10x_StdPeriph_Driver/src/stm32f10x_fsmc.c ****   FSMC_NORSRAMInitStruct->FSMC_WriteTimingStruct->FSMC_CLKDivision = 0xF;
 19016              		.loc 1 399 0
 19017 005e 416B     		ldr	r1, [r0, #52]
 19018 0060 0A61     		str	r2, [r1, #16]
 400:../Library/STM32F10x_StdPeriph_Driver/src/stm32f10x_fsmc.c ****   FSMC_NORSRAMInitStruct->FSMC_WriteTimingStruct->FSMC_DataLatency = 0xF;
 19019              		.loc 1 400 0
 19020 0062 416B     		ldr	r1, [r0, #52]
 19021 0064 4A61     		str	r2, [r1, #20]
 401:../Library/STM32F10x_StdPeriph_Driver/src/stm32f10x_fsmc.c ****   FSMC_NORSRAMInitStruct->FSMC_WriteTimingStruct->FSMC_AccessMode = FSMC_AccessMode_A;
 19022              		.loc 1 401 0
 19023 0066 426B     		ldr	r2, [r0, #52]
 19024 0068 9361     		str	r3, [r2, #24]
 402:../Library/STM32F10x_StdPeriph_Driver/src/stm32f10x_fsmc.c **** }
 19025              		.loc 1 402 0
 19026 006a 10BC     		pop	{r4}
 19027 006c 7047     		bx	lr
 19028              		.cfi_endproc
 19029              	.LFE35:
 19031 006e 00BF     		.section	.text.FSMC_NANDStructInit,"ax",%progbits
 19032              		.align	2
 19033              		.global	FSMC_NANDStructInit
 19034              		.thumb
 19035              		.thumb_func
 19037              	FSMC_NANDStructInit:
 19038              	.LFB36:
 403:../Library/STM32F10x_StdPeriph_Driver/src/stm32f10x_fsmc.c **** 
 404:../Library/STM32F10x_StdPeriph_Driver/src/stm32f10x_fsmc.c **** /**
 405:../Library/STM32F10x_StdPeriph_Driver/src/stm32f10x_fsmc.c ****   * @brief  Fills each FSMC_NANDInitStruct member with its default value.
 406:../Library/STM32F10x_StdPeriph_Driver/src/stm32f10x_fsmc.c ****   * @param  FSMC_NANDInitStruct: pointer to a FSMC_NANDInitTypeDef 
 407:../Library/STM32F10x_StdPeriph_Driver/src/stm32f10x_fsmc.c ****   *   structure which will be initialized.
 408:../Library/STM32F10x_StdPeriph_Driver/src/stm32f10x_fsmc.c ****   * @retval None
 409:../Library/STM32F10x_StdPeriph_Driver/src/stm32f10x_fsmc.c ****   */
 410:../Library/STM32F10x_StdPeriph_Driver/src/stm32f10x_fsmc.c **** void FSMC_NANDStructInit(FSMC_NANDInitTypeDef* FSMC_NANDInitStruct)
 411:../Library/STM32F10x_StdPeriph_Driver/src/stm32f10x_fsmc.c **** { 
 19039              		.loc 1 411 0
 19040              		.cfi_startproc
 19041              		@ args = 0, pretend = 0, frame = 0
 19042              		@ frame_needed = 0, uses_anonymous_args = 0
 19043              		@ link register save eliminated.
 19044              	.LVL13:
 412:../Library/STM32F10x_StdPeriph_Driver/src/stm32f10x_fsmc.c ****   /* Reset NAND Init structure parameters values */
 413:../Library/STM32F10x_StdPeriph_Driver/src/stm32f10x_fsmc.c ****   FSMC_NANDInitStruct->FSMC_Bank = FSMC_Bank2_NAND;
 19045              		.loc 1 413 0
 19046 0000 4FF01003 		mov	r3, #16
 19047 0004 0360     		str	r3, [r0, #0]
 414:../Library/STM32F10x_StdPeriph_Driver/src/stm32f10x_fsmc.c ****   FSMC_NANDInitStruct->FSMC_Waitfeature = FSMC_Waitfeature_Disable;
 19048              		.loc 1 414 0
 19049 0006 4FF00003 		mov	r3, #0
 19050 000a 4360     		str	r3, [r0, #4]
 415:../Library/STM32F10x_StdPeriph_Driver/src/stm32f10x_fsmc.c ****   FSMC_NANDInitStruct->FSMC_MemoryDataWidth = FSMC_MemoryDataWidth_8b;
 19051              		.loc 1 415 0
 19052 000c 8360     		str	r3, [r0, #8]
 416:../Library/STM32F10x_StdPeriph_Driver/src/stm32f10x_fsmc.c ****   FSMC_NANDInitStruct->FSMC_ECC = FSMC_ECC_Disable;
 19053              		.loc 1 416 0
 19054 000e C360     		str	r3, [r0, #12]
 417:../Library/STM32F10x_StdPeriph_Driver/src/stm32f10x_fsmc.c ****   FSMC_NANDInitStruct->FSMC_ECCPageSize = FSMC_ECCPageSize_256Bytes;
 19055              		.loc 1 417 0
 19056 0010 0361     		str	r3, [r0, #16]
 418:../Library/STM32F10x_StdPeriph_Driver/src/stm32f10x_fsmc.c ****   FSMC_NANDInitStruct->FSMC_TCLRSetupTime = 0x0;
 19057              		.loc 1 418 0
 19058 0012 4361     		str	r3, [r0, #20]
 419:../Library/STM32F10x_StdPeriph_Driver/src/stm32f10x_fsmc.c ****   FSMC_NANDInitStruct->FSMC_TARSetupTime = 0x0;
 19059              		.loc 1 419 0
 19060 0014 8361     		str	r3, [r0, #24]
 420:../Library/STM32F10x_StdPeriph_Driver/src/stm32f10x_fsmc.c ****   FSMC_NANDInitStruct->FSMC_CommonSpaceTimingStruct->FSMC_SetupTime = 0xFC;
 19061              		.loc 1 420 0
 19062 0016 C269     		ldr	r2, [r0, #28]
 19063 0018 4FF0FC03 		mov	r3, #252
 19064 001c 1360     		str	r3, [r2, #0]
 421:../Library/STM32F10x_StdPeriph_Driver/src/stm32f10x_fsmc.c ****   FSMC_NANDInitStruct->FSMC_CommonSpaceTimingStruct->FSMC_WaitSetupTime = 0xFC;
 19065              		.loc 1 421 0
 19066 001e C269     		ldr	r2, [r0, #28]
 19067 0020 5360     		str	r3, [r2, #4]
 422:../Library/STM32F10x_StdPeriph_Driver/src/stm32f10x_fsmc.c ****   FSMC_NANDInitStruct->FSMC_CommonSpaceTimingStruct->FSMC_HoldSetupTime = 0xFC;
 19068              		.loc 1 422 0
 19069 0022 C269     		ldr	r2, [r0, #28]
 19070 0024 9360     		str	r3, [r2, #8]
 423:../Library/STM32F10x_StdPeriph_Driver/src/stm32f10x_fsmc.c ****   FSMC_NANDInitStruct->FSMC_CommonSpaceTimingStruct->FSMC_HiZSetupTime = 0xFC;
 19071              		.loc 1 423 0
 19072 0026 C269     		ldr	r2, [r0, #28]
 19073 0028 D360     		str	r3, [r2, #12]
 424:../Library/STM32F10x_StdPeriph_Driver/src/stm32f10x_fsmc.c ****   FSMC_NANDInitStruct->FSMC_AttributeSpaceTimingStruct->FSMC_SetupTime = 0xFC;
 19074              		.loc 1 424 0
 19075 002a 026A     		ldr	r2, [r0, #32]
 19076 002c 1360     		str	r3, [r2, #0]
 425:../Library/STM32F10x_StdPeriph_Driver/src/stm32f10x_fsmc.c ****   FSMC_NANDInitStruct->FSMC_AttributeSpaceTimingStruct->FSMC_WaitSetupTime = 0xFC;
 19077              		.loc 1 425 0
 19078 002e 026A     		ldr	r2, [r0, #32]
 19079 0030 5360     		str	r3, [r2, #4]
 426:../Library/STM32F10x_StdPeriph_Driver/src/stm32f10x_fsmc.c ****   FSMC_NANDInitStruct->FSMC_AttributeSpaceTimingStruct->FSMC_HoldSetupTime = 0xFC;
 19080              		.loc 1 426 0
 19081 0032 026A     		ldr	r2, [r0, #32]
 19082 0034 9360     		str	r3, [r2, #8]
 427:../Library/STM32F10x_StdPeriph_Driver/src/stm32f10x_fsmc.c ****   FSMC_NANDInitStruct->FSMC_AttributeSpaceTimingStruct->FSMC_HiZSetupTime = 0xFC;	  
 19083              		.loc 1 427 0
 19084 0036 026A     		ldr	r2, [r0, #32]
 19085 0038 D360     		str	r3, [r2, #12]
 428:../Library/STM32F10x_StdPeriph_Driver/src/stm32f10x_fsmc.c **** }
 19086              		.loc 1 428 0
 19087 003a 7047     		bx	lr
 19088              		.cfi_endproc
 19089              	.LFE36:
 19091              		.section	.text.FSMC_PCCARDStructInit,"ax",%progbits
 19092              		.align	2
 19093              		.global	FSMC_PCCARDStructInit
 19094              		.thumb
 19095              		.thumb_func
 19097              	FSMC_PCCARDStructInit:
 19098              	.LFB37:
 429:../Library/STM32F10x_StdPeriph_Driver/src/stm32f10x_fsmc.c **** 
 430:../Library/STM32F10x_StdPeriph_Driver/src/stm32f10x_fsmc.c **** /**
 431:../Library/STM32F10x_StdPeriph_Driver/src/stm32f10x_fsmc.c ****   * @brief  Fills each FSMC_PCCARDInitStruct member with its default value.
 432:../Library/STM32F10x_StdPeriph_Driver/src/stm32f10x_fsmc.c ****   * @param  FSMC_PCCARDInitStruct: pointer to a FSMC_PCCARDInitTypeDef 
 433:../Library/STM32F10x_StdPeriph_Driver/src/stm32f10x_fsmc.c ****   *   structure which will be initialized.
 434:../Library/STM32F10x_StdPeriph_Driver/src/stm32f10x_fsmc.c ****   * @retval None
 435:../Library/STM32F10x_StdPeriph_Driver/src/stm32f10x_fsmc.c ****   */
 436:../Library/STM32F10x_StdPeriph_Driver/src/stm32f10x_fsmc.c **** void FSMC_PCCARDStructInit(FSMC_PCCARDInitTypeDef* FSMC_PCCARDInitStruct)
 437:../Library/STM32F10x_StdPeriph_Driver/src/stm32f10x_fsmc.c **** {
 19099              		.loc 1 437 0
 19100              		.cfi_startproc
 19101              		@ args = 0, pretend = 0, frame = 0
 19102              		@ frame_needed = 0, uses_anonymous_args = 0
 19103              		@ link register save eliminated.
 19104              	.LVL14:
 438:../Library/STM32F10x_StdPeriph_Driver/src/stm32f10x_fsmc.c ****   /* Reset PCCARD Init structure parameters values */
 439:../Library/STM32F10x_StdPeriph_Driver/src/stm32f10x_fsmc.c ****   FSMC_PCCARDInitStruct->FSMC_Waitfeature = FSMC_Waitfeature_Disable;
 19105              		.loc 1 439 0
 19106 0000 4FF00003 		mov	r3, #0
 19107 0004 0360     		str	r3, [r0, #0]
 440:../Library/STM32F10x_StdPeriph_Driver/src/stm32f10x_fsmc.c ****   FSMC_PCCARDInitStruct->FSMC_TCLRSetupTime = 0x0;
 19108              		.loc 1 440 0
 19109 0006 4360     		str	r3, [r0, #4]
 441:../Library/STM32F10x_StdPeriph_Driver/src/stm32f10x_fsmc.c ****   FSMC_PCCARDInitStruct->FSMC_TARSetupTime = 0x0;
 19110              		.loc 1 441 0
 19111 0008 8360     		str	r3, [r0, #8]
 442:../Library/STM32F10x_StdPeriph_Driver/src/stm32f10x_fsmc.c ****   FSMC_PCCARDInitStruct->FSMC_CommonSpaceTimingStruct->FSMC_SetupTime = 0xFC;
 19112              		.loc 1 442 0
 19113 000a C268     		ldr	r2, [r0, #12]
 19114 000c 4FF0FC03 		mov	r3, #252
 19115 0010 1360     		str	r3, [r2, #0]
 443:../Library/STM32F10x_StdPeriph_Driver/src/stm32f10x_fsmc.c ****   FSMC_PCCARDInitStruct->FSMC_CommonSpaceTimingStruct->FSMC_WaitSetupTime = 0xFC;
 19116              		.loc 1 443 0
 19117 0012 C268     		ldr	r2, [r0, #12]
 19118 0014 5360     		str	r3, [r2, #4]
 444:../Library/STM32F10x_StdPeriph_Driver/src/stm32f10x_fsmc.c ****   FSMC_PCCARDInitStruct->FSMC_CommonSpaceTimingStruct->FSMC_HoldSetupTime = 0xFC;
 19119              		.loc 1 444 0
 19120 0016 C268     		ldr	r2, [r0, #12]
 19121 0018 9360     		str	r3, [r2, #8]
 445:../Library/STM32F10x_StdPeriph_Driver/src/stm32f10x_fsmc.c ****   FSMC_PCCARDInitStruct->FSMC_CommonSpaceTimingStruct->FSMC_HiZSetupTime = 0xFC;
 19122              		.loc 1 445 0
 19123 001a C268     		ldr	r2, [r0, #12]
 19124 001c D360     		str	r3, [r2, #12]
 446:../Library/STM32F10x_StdPeriph_Driver/src/stm32f10x_fsmc.c ****   FSMC_PCCARDInitStruct->FSMC_AttributeSpaceTimingStruct->FSMC_SetupTime = 0xFC;
 19125              		.loc 1 446 0
 19126 001e 0269     		ldr	r2, [r0, #16]
 19127 0020 1360     		str	r3, [r2, #0]
 447:../Library/STM32F10x_StdPeriph_Driver/src/stm32f10x_fsmc.c ****   FSMC_PCCARDInitStruct->FSMC_AttributeSpaceTimingStruct->FSMC_WaitSetupTime = 0xFC;
 19128              		.loc 1 447 0
 19129 0022 0269     		ldr	r2, [r0, #16]
 19130 0024 5360     		str	r3, [r2, #4]
 448:../Library/STM32F10x_StdPeriph_Driver/src/stm32f10x_fsmc.c ****   FSMC_PCCARDInitStruct->FSMC_AttributeSpaceTimingStruct->FSMC_HoldSetupTime = 0xFC;
 19131              		.loc 1 448 0
 19132 0026 0269     		ldr	r2, [r0, #16]
 19133 0028 9360     		str	r3, [r2, #8]
 449:../Library/STM32F10x_StdPeriph_Driver/src/stm32f10x_fsmc.c ****   FSMC_PCCARDInitStruct->FSMC_AttributeSpaceTimingStruct->FSMC_HiZSetupTime = 0xFC;	
 19134              		.loc 1 449 0
 19135 002a 0269     		ldr	r2, [r0, #16]
 19136 002c D360     		str	r3, [r2, #12]
 450:../Library/STM32F10x_StdPeriph_Driver/src/stm32f10x_fsmc.c ****   FSMC_PCCARDInitStruct->FSMC_IOSpaceTimingStruct->FSMC_SetupTime = 0xFC;
 19137              		.loc 1 450 0
 19138 002e 4269     		ldr	r2, [r0, #20]
 19139 0030 1360     		str	r3, [r2, #0]
 451:../Library/STM32F10x_StdPeriph_Driver/src/stm32f10x_fsmc.c ****   FSMC_PCCARDInitStruct->FSMC_IOSpaceTimingStruct->FSMC_WaitSetupTime = 0xFC;
 19140              		.loc 1 451 0
 19141 0032 4269     		ldr	r2, [r0, #20]
 19142 0034 5360     		str	r3, [r2, #4]
 452:../Library/STM32F10x_StdPeriph_Driver/src/stm32f10x_fsmc.c ****   FSMC_PCCARDInitStruct->FSMC_IOSpaceTimingStruct->FSMC_HoldSetupTime = 0xFC;
 19143              		.loc 1 452 0
 19144 0036 4269     		ldr	r2, [r0, #20]
 19145 0038 9360     		str	r3, [r2, #8]
 453:../Library/STM32F10x_StdPeriph_Driver/src/stm32f10x_fsmc.c ****   FSMC_PCCARDInitStruct->FSMC_IOSpaceTimingStruct->FSMC_HiZSetupTime = 0xFC;
 19146              		.loc 1 453 0
 19147 003a 4269     		ldr	r2, [r0, #20]
 19148 003c D360     		str	r3, [r2, #12]
 454:../Library/STM32F10x_StdPeriph_Driver/src/stm32f10x_fsmc.c **** }
 19149              		.loc 1 454 0
 19150 003e 7047     		bx	lr
 19151              		.cfi_endproc
 19152              	.LFE37:
 19154              		.section	.text.FSMC_NORSRAMCmd,"ax",%progbits
 19155              		.align	2
 19156              		.global	FSMC_NORSRAMCmd
 19157              		.thumb
 19158              		.thumb_func
 19160              	FSMC_NORSRAMCmd:
 19161              	.LFB38:
 455:../Library/STM32F10x_StdPeriph_Driver/src/stm32f10x_fsmc.c **** 
 456:../Library/STM32F10x_StdPeriph_Driver/src/stm32f10x_fsmc.c **** /**
 457:../Library/STM32F10x_StdPeriph_Driver/src/stm32f10x_fsmc.c ****   * @brief  Enables or disables the specified NOR/SRAM Memory Bank.
 458:../Library/STM32F10x_StdPeriph_Driver/src/stm32f10x_fsmc.c ****   * @param  FSMC_Bank: specifies the FSMC Bank to be used
 459:../Library/STM32F10x_StdPeriph_Driver/src/stm32f10x_fsmc.c ****   *   This parameter can be one of the following values:
 460:../Library/STM32F10x_StdPeriph_Driver/src/stm32f10x_fsmc.c ****   *     @arg FSMC_Bank1_NORSRAM1: FSMC Bank1 NOR/SRAM1  
 461:../Library/STM32F10x_StdPeriph_Driver/src/stm32f10x_fsmc.c ****   *     @arg FSMC_Bank1_NORSRAM2: FSMC Bank1 NOR/SRAM2 
 462:../Library/STM32F10x_StdPeriph_Driver/src/stm32f10x_fsmc.c ****   *     @arg FSMC_Bank1_NORSRAM3: FSMC Bank1 NOR/SRAM3 
 463:../Library/STM32F10x_StdPeriph_Driver/src/stm32f10x_fsmc.c ****   *     @arg FSMC_Bank1_NORSRAM4: FSMC Bank1 NOR/SRAM4 
 464:../Library/STM32F10x_StdPeriph_Driver/src/stm32f10x_fsmc.c ****   * @param  NewState: new state of the FSMC_Bank. This parameter can be: ENABLE or DISABLE.
 465:../Library/STM32F10x_StdPeriph_Driver/src/stm32f10x_fsmc.c ****   * @retval None
 466:../Library/STM32F10x_StdPeriph_Driver/src/stm32f10x_fsmc.c ****   */
 467:../Library/STM32F10x_StdPeriph_Driver/src/stm32f10x_fsmc.c **** void FSMC_NORSRAMCmd(uint32_t FSMC_Bank, FunctionalState NewState)
 468:../Library/STM32F10x_StdPeriph_Driver/src/stm32f10x_fsmc.c **** {
 19162              		.loc 1 468 0
 19163              		.cfi_startproc
 19164              		@ args = 0, pretend = 0, frame = 0
 19165              		@ frame_needed = 0, uses_anonymous_args = 0
 19166              		@ link register save eliminated.
 19167              	.LVL15:
 469:../Library/STM32F10x_StdPeriph_Driver/src/stm32f10x_fsmc.c ****   assert_param(IS_FSMC_NORSRAM_BANK(FSMC_Bank));
 470:../Library/STM32F10x_StdPeriph_Driver/src/stm32f10x_fsmc.c ****   assert_param(IS_FUNCTIONAL_STATE(NewState));
 471:../Library/STM32F10x_StdPeriph_Driver/src/stm32f10x_fsmc.c ****   
 472:../Library/STM32F10x_StdPeriph_Driver/src/stm32f10x_fsmc.c ****   if (NewState != DISABLE)
 19168              		.loc 1 472 0
 19169 0000 41B1     		cbz	r1, .L29
 473:../Library/STM32F10x_StdPeriph_Driver/src/stm32f10x_fsmc.c ****   {
 474:../Library/STM32F10x_StdPeriph_Driver/src/stm32f10x_fsmc.c ****     /* Enable the selected NOR/SRAM Bank by setting the PBKEN bit in the BCRx register */
 475:../Library/STM32F10x_StdPeriph_Driver/src/stm32f10x_fsmc.c ****     FSMC_Bank1->BTCR[FSMC_Bank] |= BCR_MBKEN_Set;
 19170              		.loc 1 475 0
 19171 0002 4FF02043 		mov	r3, #-1610612736
 19172 0006 53F82020 		ldr	r2, [r3, r0, lsl #2]
 19173 000a 42F00102 		orr	r2, r2, #1
 19174 000e 43F82020 		str	r2, [r3, r0, lsl #2]
 19175 0012 7047     		bx	lr
 19176              	.L29:
 476:../Library/STM32F10x_StdPeriph_Driver/src/stm32f10x_fsmc.c ****   }
 477:../Library/STM32F10x_StdPeriph_Driver/src/stm32f10x_fsmc.c ****   else
 478:../Library/STM32F10x_StdPeriph_Driver/src/stm32f10x_fsmc.c ****   {
 479:../Library/STM32F10x_StdPeriph_Driver/src/stm32f10x_fsmc.c ****     /* Disable the selected NOR/SRAM Bank by clearing the PBKEN bit in the BCRx register */
 480:../Library/STM32F10x_StdPeriph_Driver/src/stm32f10x_fsmc.c ****     FSMC_Bank1->BTCR[FSMC_Bank] &= BCR_MBKEN_Reset;
 19177              		.loc 1 480 0
 19178 0014 4FF02042 		mov	r2, #-1610612736
 19179 0018 52F82010 		ldr	r1, [r2, r0, lsl #2]
 19180              	.LVL16:
 19181 001c 4FF6FE73 		movw	r3, #:lower16:1048574
 19182 0020 C0F20F03 		movt	r3, #:upper16:1048574
 19183 0024 01EA0303 		and	r3, r1, r3
 19184 0028 42F82030 		str	r3, [r2, r0, lsl #2]
 19185 002c 7047     		bx	lr
 19186              		.cfi_endproc
 19187              	.LFE38:
 19189 002e 00BF     		.section	.text.FSMC_NANDCmd,"ax",%progbits
 19190              		.align	2
 19191              		.global	FSMC_NANDCmd
 19192              		.thumb
 19193              		.thumb_func
 19195              	FSMC_NANDCmd:
 19196              	.LFB39:
 481:../Library/STM32F10x_StdPeriph_Driver/src/stm32f10x_fsmc.c ****   }
 482:../Library/STM32F10x_StdPeriph_Driver/src/stm32f10x_fsmc.c **** }
 483:../Library/STM32F10x_StdPeriph_Driver/src/stm32f10x_fsmc.c **** 
 484:../Library/STM32F10x_StdPeriph_Driver/src/stm32f10x_fsmc.c **** /**
 485:../Library/STM32F10x_StdPeriph_Driver/src/stm32f10x_fsmc.c ****   * @brief  Enables or disables the specified NAND Memory Bank.
 486:../Library/STM32F10x_StdPeriph_Driver/src/stm32f10x_fsmc.c ****   * @param  FSMC_Bank: specifies the FSMC Bank to be used
 487:../Library/STM32F10x_StdPeriph_Driver/src/stm32f10x_fsmc.c ****   *   This parameter can be one of the following values:
 488:../Library/STM32F10x_StdPeriph_Driver/src/stm32f10x_fsmc.c ****   *     @arg FSMC_Bank2_NAND: FSMC Bank2 NAND 
 489:../Library/STM32F10x_StdPeriph_Driver/src/stm32f10x_fsmc.c ****   *     @arg FSMC_Bank3_NAND: FSMC Bank3 NAND
 490:../Library/STM32F10x_StdPeriph_Driver/src/stm32f10x_fsmc.c ****   * @param  NewState: new state of the FSMC_Bank. This parameter can be: ENABLE or DISABLE.
 491:../Library/STM32F10x_StdPeriph_Driver/src/stm32f10x_fsmc.c ****   * @retval None
 492:../Library/STM32F10x_StdPeriph_Driver/src/stm32f10x_fsmc.c ****   */
 493:../Library/STM32F10x_StdPeriph_Driver/src/stm32f10x_fsmc.c **** void FSMC_NANDCmd(uint32_t FSMC_Bank, FunctionalState NewState)
 494:../Library/STM32F10x_StdPeriph_Driver/src/stm32f10x_fsmc.c **** {
 19197              		.loc 1 494 0
 19198              		.cfi_startproc
 19199              		@ args = 0, pretend = 0, frame = 0
 19200              		@ frame_needed = 0, uses_anonymous_args = 0
 19201              		@ link register save eliminated.
 19202              	.LVL17:
 495:../Library/STM32F10x_StdPeriph_Driver/src/stm32f10x_fsmc.c ****   assert_param(IS_FSMC_NAND_BANK(FSMC_Bank));
 496:../Library/STM32F10x_StdPeriph_Driver/src/stm32f10x_fsmc.c ****   assert_param(IS_FUNCTIONAL_STATE(NewState));
 497:../Library/STM32F10x_StdPeriph_Driver/src/stm32f10x_fsmc.c ****   
 498:../Library/STM32F10x_StdPeriph_Driver/src/stm32f10x_fsmc.c ****   if (NewState != DISABLE)
 19203              		.loc 1 498 0
 19204 0000 71B1     		cbz	r1, .L33
 499:../Library/STM32F10x_StdPeriph_Driver/src/stm32f10x_fsmc.c ****   {
 500:../Library/STM32F10x_StdPeriph_Driver/src/stm32f10x_fsmc.c ****     /* Enable the selected NAND Bank by setting the PBKEN bit in the PCRx register */
 501:../Library/STM32F10x_StdPeriph_Driver/src/stm32f10x_fsmc.c ****     if(FSMC_Bank == FSMC_Bank2_NAND)
 19205              		.loc 1 501 0
 19206 0002 1028     		cmp	r0, #16
 502:../Library/STM32F10x_StdPeriph_Driver/src/stm32f10x_fsmc.c ****     {
 503:../Library/STM32F10x_StdPeriph_Driver/src/stm32f10x_fsmc.c ****       FSMC_Bank2->PCR2 |= PCR_PBKEN_Set;
 19207              		.loc 1 503 0
 19208 0004 07BF     		ittee	eq
 19209 0006 40F26003 		movweq	r3, #:lower16:-1610612640
 19210 000a CAF20003 		movteq	r3, #:upper16:-1610612640
 504:../Library/STM32F10x_StdPeriph_Driver/src/stm32f10x_fsmc.c ****     }
 505:../Library/STM32F10x_StdPeriph_Driver/src/stm32f10x_fsmc.c ****     else
 506:../Library/STM32F10x_StdPeriph_Driver/src/stm32f10x_fsmc.c ****     {
 507:../Library/STM32F10x_StdPeriph_Driver/src/stm32f10x_fsmc.c ****       FSMC_Bank3->PCR3 |= PCR_PBKEN_Set;
 19211              		.loc 1 507 0
 19212 000e 40F28003 		movwne	r3, #:lower16:-1610612608
 19213 0012 CAF20003 		movtne	r3, #:upper16:-1610612608
 19214 0016 1A68     		ldr	r2, [r3, #0]
 19215 0018 42F00402 		orr	r2, r2, #4
 19216 001c 1A60     		str	r2, [r3, #0]
 19217 001e 7047     		bx	lr
 19218              	.L33:
 508:../Library/STM32F10x_StdPeriph_Driver/src/stm32f10x_fsmc.c ****     }
 509:../Library/STM32F10x_StdPeriph_Driver/src/stm32f10x_fsmc.c ****   }
 510:../Library/STM32F10x_StdPeriph_Driver/src/stm32f10x_fsmc.c ****   else
 511:../Library/STM32F10x_StdPeriph_Driver/src/stm32f10x_fsmc.c ****   {
 512:../Library/STM32F10x_StdPeriph_Driver/src/stm32f10x_fsmc.c ****     /* Disable the selected NAND Bank by clearing the PBKEN bit in the PCRx register */
 513:../Library/STM32F10x_StdPeriph_Driver/src/stm32f10x_fsmc.c ****     if(FSMC_Bank == FSMC_Bank2_NAND)
 19219              		.loc 1 513 0
 19220 0020 1028     		cmp	r0, #16
 514:../Library/STM32F10x_StdPeriph_Driver/src/stm32f10x_fsmc.c ****     {
 515:../Library/STM32F10x_StdPeriph_Driver/src/stm32f10x_fsmc.c ****       FSMC_Bank2->PCR2 &= PCR_PBKEN_Reset;
 19221              		.loc 1 515 0
 19222 0022 07BF     		ittee	eq
 19223 0024 40F26002 		movweq	r2, #:lower16:-1610612640
 19224 0028 CAF20002 		movteq	r2, #:upper16:-1610612640
 516:../Library/STM32F10x_StdPeriph_Driver/src/stm32f10x_fsmc.c ****     }
 517:../Library/STM32F10x_StdPeriph_Driver/src/stm32f10x_fsmc.c ****     else
 518:../Library/STM32F10x_StdPeriph_Driver/src/stm32f10x_fsmc.c ****     {
 519:../Library/STM32F10x_StdPeriph_Driver/src/stm32f10x_fsmc.c ****       FSMC_Bank3->PCR3 &= PCR_PBKEN_Reset;
 19225              		.loc 1 519 0
 19226 002c 40F28002 		movwne	r2, #:lower16:-1610612608
 19227 0030 CAF20002 		movtne	r2, #:upper16:-1610612608
 19228 0034 1168     		ldr	r1, [r2, #0]
 19229              	.LVL18:
 19230 0036 4FF6FB73 		movw	r3, #:lower16:1048571
 19231 003a C0F20F03 		movt	r3, #:upper16:1048571
 19232 003e 01EA0303 		and	r3, r1, r3
 19233 0042 1360     		str	r3, [r2, #0]
 19234 0044 7047     		bx	lr
 19235              		.cfi_endproc
 19236              	.LFE39:
 19238 0046 00BF     		.section	.text.FSMC_PCCARDCmd,"ax",%progbits
 19239              		.align	2
 19240              		.global	FSMC_PCCARDCmd
 19241              		.thumb
 19242              		.thumb_func
 19244              	FSMC_PCCARDCmd:
 19245              	.LFB40:
 520:../Library/STM32F10x_StdPeriph_Driver/src/stm32f10x_fsmc.c ****     }
 521:../Library/STM32F10x_StdPeriph_Driver/src/stm32f10x_fsmc.c ****   }
 522:../Library/STM32F10x_StdPeriph_Driver/src/stm32f10x_fsmc.c **** }
 523:../Library/STM32F10x_StdPeriph_Driver/src/stm32f10x_fsmc.c **** 
 524:../Library/STM32F10x_StdPeriph_Driver/src/stm32f10x_fsmc.c **** /**
 525:../Library/STM32F10x_StdPeriph_Driver/src/stm32f10x_fsmc.c ****   * @brief  Enables or disables the PCCARD Memory Bank.
 526:../Library/STM32F10x_StdPeriph_Driver/src/stm32f10x_fsmc.c ****   * @param  NewState: new state of the PCCARD Memory Bank.  
 527:../Library/STM32F10x_StdPeriph_Driver/src/stm32f10x_fsmc.c ****   *   This parameter can be: ENABLE or DISABLE.
 528:../Library/STM32F10x_StdPeriph_Driver/src/stm32f10x_fsmc.c ****   * @retval None
 529:../Library/STM32F10x_StdPeriph_Driver/src/stm32f10x_fsmc.c ****   */
 530:../Library/STM32F10x_StdPeriph_Driver/src/stm32f10x_fsmc.c **** void FSMC_PCCARDCmd(FunctionalState NewState)
 531:../Library/STM32F10x_StdPeriph_Driver/src/stm32f10x_fsmc.c **** {
 19246              		.loc 1 531 0
 19247              		.cfi_startproc
 19248              		@ args = 0, pretend = 0, frame = 0
 19249              		@ frame_needed = 0, uses_anonymous_args = 0
 19250              		@ link register save eliminated.
 19251              	.LVL19:
 532:../Library/STM32F10x_StdPeriph_Driver/src/stm32f10x_fsmc.c ****   assert_param(IS_FUNCTIONAL_STATE(NewState));
 533:../Library/STM32F10x_StdPeriph_Driver/src/stm32f10x_fsmc.c ****   
 534:../Library/STM32F10x_StdPeriph_Driver/src/stm32f10x_fsmc.c ****   if (NewState != DISABLE)
 19252              		.loc 1 534 0
 19253 0000 40B1     		cbz	r0, .L39
 535:../Library/STM32F10x_StdPeriph_Driver/src/stm32f10x_fsmc.c ****   {
 536:../Library/STM32F10x_StdPeriph_Driver/src/stm32f10x_fsmc.c ****     /* Enable the PCCARD Bank by setting the PBKEN bit in the PCR4 register */
 537:../Library/STM32F10x_StdPeriph_Driver/src/stm32f10x_fsmc.c ****     FSMC_Bank4->PCR4 |= PCR_PBKEN_Set;
 19254              		.loc 1 537 0
 19255 0002 40F2A003 		movw	r3, #:lower16:-1610612576
 19256 0006 CAF20003 		movt	r3, #:upper16:-1610612576
 19257 000a 1A68     		ldr	r2, [r3, #0]
 19258 000c 42F00402 		orr	r2, r2, #4
 19259 0010 1A60     		str	r2, [r3, #0]
 19260 0012 7047     		bx	lr
 19261              	.L39:
 538:../Library/STM32F10x_StdPeriph_Driver/src/stm32f10x_fsmc.c ****   }
 539:../Library/STM32F10x_StdPeriph_Driver/src/stm32f10x_fsmc.c ****   else
 540:../Library/STM32F10x_StdPeriph_Driver/src/stm32f10x_fsmc.c ****   {
 541:../Library/STM32F10x_StdPeriph_Driver/src/stm32f10x_fsmc.c ****     /* Disable the PCCARD Bank by clearing the PBKEN bit in the PCR4 register */
 542:../Library/STM32F10x_StdPeriph_Driver/src/stm32f10x_fsmc.c ****     FSMC_Bank4->PCR4 &= PCR_PBKEN_Reset;
 19262              		.loc 1 542 0
 19263 0014 40F2A002 		movw	r2, #:lower16:-1610612576
 19264 0018 CAF20002 		movt	r2, #:upper16:-1610612576
 19265 001c 1168     		ldr	r1, [r2, #0]
 19266 001e 4FF6FB73 		movw	r3, #:lower16:1048571
 19267 0022 C0F20F03 		movt	r3, #:upper16:1048571
 19268 0026 01EA0303 		and	r3, r1, r3
 19269 002a 1360     		str	r3, [r2, #0]
 19270 002c 7047     		bx	lr
 19271              		.cfi_endproc
 19272              	.LFE40:
 19274 002e 00BF     		.section	.text.FSMC_NANDECCCmd,"ax",%progbits
 19275              		.align	2
 19276              		.global	FSMC_NANDECCCmd
 19277              		.thumb
 19278              		.thumb_func
 19280              	FSMC_NANDECCCmd:
 19281              	.LFB41:
 543:../Library/STM32F10x_StdPeriph_Driver/src/stm32f10x_fsmc.c ****   }
 544:../Library/STM32F10x_StdPeriph_Driver/src/stm32f10x_fsmc.c **** }
 545:../Library/STM32F10x_StdPeriph_Driver/src/stm32f10x_fsmc.c **** 
 546:../Library/STM32F10x_StdPeriph_Driver/src/stm32f10x_fsmc.c **** /**
 547:../Library/STM32F10x_StdPeriph_Driver/src/stm32f10x_fsmc.c ****   * @brief  Enables or disables the FSMC NAND ECC feature.
 548:../Library/STM32F10x_StdPeriph_Driver/src/stm32f10x_fsmc.c ****   * @param  FSMC_Bank: specifies the FSMC Bank to be used
 549:../Library/STM32F10x_StdPeriph_Driver/src/stm32f10x_fsmc.c ****   *   This parameter can be one of the following values:
 550:../Library/STM32F10x_StdPeriph_Driver/src/stm32f10x_fsmc.c ****   *     @arg FSMC_Bank2_NAND: FSMC Bank2 NAND 
 551:../Library/STM32F10x_StdPeriph_Driver/src/stm32f10x_fsmc.c ****   *     @arg FSMC_Bank3_NAND: FSMC Bank3 NAND
 552:../Library/STM32F10x_StdPeriph_Driver/src/stm32f10x_fsmc.c ****   * @param  NewState: new state of the FSMC NAND ECC feature.  
 553:../Library/STM32F10x_StdPeriph_Driver/src/stm32f10x_fsmc.c ****   *   This parameter can be: ENABLE or DISABLE.
 554:../Library/STM32F10x_StdPeriph_Driver/src/stm32f10x_fsmc.c ****   * @retval None
 555:../Library/STM32F10x_StdPeriph_Driver/src/stm32f10x_fsmc.c ****   */
 556:../Library/STM32F10x_StdPeriph_Driver/src/stm32f10x_fsmc.c **** void FSMC_NANDECCCmd(uint32_t FSMC_Bank, FunctionalState NewState)
 557:../Library/STM32F10x_StdPeriph_Driver/src/stm32f10x_fsmc.c **** {
 19282              		.loc 1 557 0
 19283              		.cfi_startproc
 19284              		@ args = 0, pretend = 0, frame = 0
 19285              		@ frame_needed = 0, uses_anonymous_args = 0
 19286              		@ link register save eliminated.
 19287              	.LVL20:
 558:../Library/STM32F10x_StdPeriph_Driver/src/stm32f10x_fsmc.c ****   assert_param(IS_FSMC_NAND_BANK(FSMC_Bank));
 559:../Library/STM32F10x_StdPeriph_Driver/src/stm32f10x_fsmc.c ****   assert_param(IS_FUNCTIONAL_STATE(NewState));
 560:../Library/STM32F10x_StdPeriph_Driver/src/stm32f10x_fsmc.c ****   
 561:../Library/STM32F10x_StdPeriph_Driver/src/stm32f10x_fsmc.c ****   if (NewState != DISABLE)
 19288              		.loc 1 561 0
 19289 0000 71B1     		cbz	r1, .L43
 562:../Library/STM32F10x_StdPeriph_Driver/src/stm32f10x_fsmc.c ****   {
 563:../Library/STM32F10x_StdPeriph_Driver/src/stm32f10x_fsmc.c ****     /* Enable the selected NAND Bank ECC function by setting the ECCEN bit in the PCRx register */
 564:../Library/STM32F10x_StdPeriph_Driver/src/stm32f10x_fsmc.c ****     if(FSMC_Bank == FSMC_Bank2_NAND)
 19290              		.loc 1 564 0
 19291 0002 1028     		cmp	r0, #16
 565:../Library/STM32F10x_StdPeriph_Driver/src/stm32f10x_fsmc.c ****     {
 566:../Library/STM32F10x_StdPeriph_Driver/src/stm32f10x_fsmc.c ****       FSMC_Bank2->PCR2 |= PCR_ECCEN_Set;
 19292              		.loc 1 566 0
 19293 0004 07BF     		ittee	eq
 19294 0006 40F26003 		movweq	r3, #:lower16:-1610612640
 19295 000a CAF20003 		movteq	r3, #:upper16:-1610612640
 567:../Library/STM32F10x_StdPeriph_Driver/src/stm32f10x_fsmc.c ****     }
 568:../Library/STM32F10x_StdPeriph_Driver/src/stm32f10x_fsmc.c ****     else
 569:../Library/STM32F10x_StdPeriph_Driver/src/stm32f10x_fsmc.c ****     {
 570:../Library/STM32F10x_StdPeriph_Driver/src/stm32f10x_fsmc.c ****       FSMC_Bank3->PCR3 |= PCR_ECCEN_Set;
 19296              		.loc 1 570 0
 19297 000e 40F28003 		movwne	r3, #:lower16:-1610612608
 19298 0012 CAF20003 		movtne	r3, #:upper16:-1610612608
 19299 0016 1A68     		ldr	r2, [r3, #0]
 19300 0018 42F04002 		orr	r2, r2, #64
 19301 001c 1A60     		str	r2, [r3, #0]
 19302 001e 7047     		bx	lr
 19303              	.L43:
 571:../Library/STM32F10x_StdPeriph_Driver/src/stm32f10x_fsmc.c ****     }
 572:../Library/STM32F10x_StdPeriph_Driver/src/stm32f10x_fsmc.c ****   }
 573:../Library/STM32F10x_StdPeriph_Driver/src/stm32f10x_fsmc.c ****   else
 574:../Library/STM32F10x_StdPeriph_Driver/src/stm32f10x_fsmc.c ****   {
 575:../Library/STM32F10x_StdPeriph_Driver/src/stm32f10x_fsmc.c ****     /* Disable the selected NAND Bank ECC function by clearing the ECCEN bit in the PCRx register *
 576:../Library/STM32F10x_StdPeriph_Driver/src/stm32f10x_fsmc.c ****     if(FSMC_Bank == FSMC_Bank2_NAND)
 19304              		.loc 1 576 0
 19305 0020 1028     		cmp	r0, #16
 577:../Library/STM32F10x_StdPeriph_Driver/src/stm32f10x_fsmc.c ****     {
 578:../Library/STM32F10x_StdPeriph_Driver/src/stm32f10x_fsmc.c ****       FSMC_Bank2->PCR2 &= PCR_ECCEN_Reset;
 19306              		.loc 1 578 0
 19307 0022 07BF     		ittee	eq
 19308 0024 40F26002 		movweq	r2, #:lower16:-1610612640
 19309 0028 CAF20002 		movteq	r2, #:upper16:-1610612640
 579:../Library/STM32F10x_StdPeriph_Driver/src/stm32f10x_fsmc.c ****     }
 580:../Library/STM32F10x_StdPeriph_Driver/src/stm32f10x_fsmc.c ****     else
 581:../Library/STM32F10x_StdPeriph_Driver/src/stm32f10x_fsmc.c ****     {
 582:../Library/STM32F10x_StdPeriph_Driver/src/stm32f10x_fsmc.c ****       FSMC_Bank3->PCR3 &= PCR_ECCEN_Reset;
 19310              		.loc 1 582 0
 19311 002c 40F28002 		movwne	r2, #:lower16:-1610612608
 19312 0030 CAF20002 		movtne	r2, #:upper16:-1610612608
 19313 0034 1168     		ldr	r1, [r2, #0]
 19314              	.LVL21:
 19315 0036 4FF6BF73 		movw	r3, #:lower16:1048511
 19316 003a C0F20F03 		movt	r3, #:upper16:1048511
 19317 003e 01EA0303 		and	r3, r1, r3
 19318 0042 1360     		str	r3, [r2, #0]
 19319 0044 7047     		bx	lr
 19320              		.cfi_endproc
 19321              	.LFE41:
 19323 0046 00BF     		.section	.text.FSMC_GetECC,"ax",%progbits
 19324              		.align	2
 19325              		.global	FSMC_GetECC
 19326              		.thumb
 19327              		.thumb_func
 19329              	FSMC_GetECC:
 19330              	.LFB42:
 583:../Library/STM32F10x_StdPeriph_Driver/src/stm32f10x_fsmc.c ****     }
 584:../Library/STM32F10x_StdPeriph_Driver/src/stm32f10x_fsmc.c ****   }
 585:../Library/STM32F10x_StdPeriph_Driver/src/stm32f10x_fsmc.c **** }
 586:../Library/STM32F10x_StdPeriph_Driver/src/stm32f10x_fsmc.c **** 
 587:../Library/STM32F10x_StdPeriph_Driver/src/stm32f10x_fsmc.c **** /**
 588:../Library/STM32F10x_StdPeriph_Driver/src/stm32f10x_fsmc.c ****   * @brief  Returns the error correction code register value.
 589:../Library/STM32F10x_StdPeriph_Driver/src/stm32f10x_fsmc.c ****   * @param  FSMC_Bank: specifies the FSMC Bank to be used
 590:../Library/STM32F10x_StdPeriph_Driver/src/stm32f10x_fsmc.c ****   *   This parameter can be one of the following values:
 591:../Library/STM32F10x_StdPeriph_Driver/src/stm32f10x_fsmc.c ****   *     @arg FSMC_Bank2_NAND: FSMC Bank2 NAND 
 592:../Library/STM32F10x_StdPeriph_Driver/src/stm32f10x_fsmc.c ****   *     @arg FSMC_Bank3_NAND: FSMC Bank3 NAND
 593:../Library/STM32F10x_StdPeriph_Driver/src/stm32f10x_fsmc.c ****   * @retval The Error Correction Code (ECC) value.
 594:../Library/STM32F10x_StdPeriph_Driver/src/stm32f10x_fsmc.c ****   */
 595:../Library/STM32F10x_StdPeriph_Driver/src/stm32f10x_fsmc.c **** uint32_t FSMC_GetECC(uint32_t FSMC_Bank)
 596:../Library/STM32F10x_StdPeriph_Driver/src/stm32f10x_fsmc.c **** {
 19331              		.loc 1 596 0
 19332              		.cfi_startproc
 19333              		@ args = 0, pretend = 0, frame = 0
 19334              		@ frame_needed = 0, uses_anonymous_args = 0
 19335              		@ link register save eliminated.
 19336              	.LVL22:
 597:../Library/STM32F10x_StdPeriph_Driver/src/stm32f10x_fsmc.c ****   uint32_t eccval = 0x00000000;
 598:../Library/STM32F10x_StdPeriph_Driver/src/stm32f10x_fsmc.c ****   
 599:../Library/STM32F10x_StdPeriph_Driver/src/stm32f10x_fsmc.c ****   if(FSMC_Bank == FSMC_Bank2_NAND)
 19337              		.loc 1 599 0
 19338 0000 1028     		cmp	r0, #16
 600:../Library/STM32F10x_StdPeriph_Driver/src/stm32f10x_fsmc.c ****   {
 601:../Library/STM32F10x_StdPeriph_Driver/src/stm32f10x_fsmc.c ****     /* Get the ECCR2 register value */
 602:../Library/STM32F10x_StdPeriph_Driver/src/stm32f10x_fsmc.c ****     eccval = FSMC_Bank2->ECCR2;
 19339              		.loc 1 602 0
 19340 0002 03BF     		ittte	eq
 19341 0004 40F26003 		movweq	r3, #:lower16:-1610612640
 19342 0008 CAF20003 		movteq	r3, #:upper16:-1610612640
 19343 000c 5869     		ldreq	r0, [r3, #20]
 19344              	.LVL23:
 603:../Library/STM32F10x_StdPeriph_Driver/src/stm32f10x_fsmc.c ****   }
 604:../Library/STM32F10x_StdPeriph_Driver/src/stm32f10x_fsmc.c ****   else
 605:../Library/STM32F10x_StdPeriph_Driver/src/stm32f10x_fsmc.c ****   {
 606:../Library/STM32F10x_StdPeriph_Driver/src/stm32f10x_fsmc.c ****     /* Get the ECCR3 register value */
 607:../Library/STM32F10x_StdPeriph_Driver/src/stm32f10x_fsmc.c ****     eccval = FSMC_Bank3->ECCR3;
 19345              		.loc 1 607 0
 19346 000e 40F28003 		movwne	r3, #:lower16:-1610612608
 19347 0012 1CBF     		itt	ne
 19348 0014 CAF20003 		movtne	r3, #:upper16:-1610612608
 19349 0018 5869     		ldrne	r0, [r3, #20]
 19350              	.LVL24:
 608:../Library/STM32F10x_StdPeriph_Driver/src/stm32f10x_fsmc.c ****   }
 609:../Library/STM32F10x_StdPeriph_Driver/src/stm32f10x_fsmc.c ****   /* Return the error correction code value */
 610:../Library/STM32F10x_StdPeriph_Driver/src/stm32f10x_fsmc.c ****   return(eccval);
 611:../Library/STM32F10x_StdPeriph_Driver/src/stm32f10x_fsmc.c **** }
 19351              		.loc 1 611 0
 19352 001a 7047     		bx	lr
 19353              		.cfi_endproc
 19354              	.LFE42:
 19356              		.section	.text.FSMC_ITConfig,"ax",%progbits
 19357              		.align	2
 19358              		.global	FSMC_ITConfig
 19359              		.thumb
 19360              		.thumb_func
 19362              	FSMC_ITConfig:
 19363              	.LFB43:
 612:../Library/STM32F10x_StdPeriph_Driver/src/stm32f10x_fsmc.c **** 
 613:../Library/STM32F10x_StdPeriph_Driver/src/stm32f10x_fsmc.c **** /**
 614:../Library/STM32F10x_StdPeriph_Driver/src/stm32f10x_fsmc.c ****   * @brief  Enables or disables the specified FSMC interrupts.
 615:../Library/STM32F10x_StdPeriph_Driver/src/stm32f10x_fsmc.c ****   * @param  FSMC_Bank: specifies the FSMC Bank to be used
 616:../Library/STM32F10x_StdPeriph_Driver/src/stm32f10x_fsmc.c ****   *   This parameter can be one of the following values:
 617:../Library/STM32F10x_StdPeriph_Driver/src/stm32f10x_fsmc.c ****   *     @arg FSMC_Bank2_NAND: FSMC Bank2 NAND 
 618:../Library/STM32F10x_StdPeriph_Driver/src/stm32f10x_fsmc.c ****   *     @arg FSMC_Bank3_NAND: FSMC Bank3 NAND
 619:../Library/STM32F10x_StdPeriph_Driver/src/stm32f10x_fsmc.c ****   *     @arg FSMC_Bank4_PCCARD: FSMC Bank4 PCCARD
 620:../Library/STM32F10x_StdPeriph_Driver/src/stm32f10x_fsmc.c ****   * @param  FSMC_IT: specifies the FSMC interrupt sources to be enabled or disabled.
 621:../Library/STM32F10x_StdPeriph_Driver/src/stm32f10x_fsmc.c ****   *   This parameter can be any combination of the following values:
 622:../Library/STM32F10x_StdPeriph_Driver/src/stm32f10x_fsmc.c ****   *     @arg FSMC_IT_RisingEdge: Rising edge detection interrupt. 
 623:../Library/STM32F10x_StdPeriph_Driver/src/stm32f10x_fsmc.c ****   *     @arg FSMC_IT_Level: Level edge detection interrupt.
 624:../Library/STM32F10x_StdPeriph_Driver/src/stm32f10x_fsmc.c ****   *     @arg FSMC_IT_FallingEdge: Falling edge detection interrupt.
 625:../Library/STM32F10x_StdPeriph_Driver/src/stm32f10x_fsmc.c ****   * @param  NewState: new state of the specified FSMC interrupts.
 626:../Library/STM32F10x_StdPeriph_Driver/src/stm32f10x_fsmc.c ****   *   This parameter can be: ENABLE or DISABLE.
 627:../Library/STM32F10x_StdPeriph_Driver/src/stm32f10x_fsmc.c ****   * @retval None
 628:../Library/STM32F10x_StdPeriph_Driver/src/stm32f10x_fsmc.c ****   */
 629:../Library/STM32F10x_StdPeriph_Driver/src/stm32f10x_fsmc.c **** void FSMC_ITConfig(uint32_t FSMC_Bank, uint32_t FSMC_IT, FunctionalState NewState)
 630:../Library/STM32F10x_StdPeriph_Driver/src/stm32f10x_fsmc.c **** {
 19364              		.loc 1 630 0
 19365              		.cfi_startproc
 19366              		@ args = 0, pretend = 0, frame = 0
 19367              		@ frame_needed = 0, uses_anonymous_args = 0
 19368              		@ link register save eliminated.
 19369              	.LVL25:
 631:../Library/STM32F10x_StdPeriph_Driver/src/stm32f10x_fsmc.c ****   assert_param(IS_FSMC_IT_BANK(FSMC_Bank));
 632:../Library/STM32F10x_StdPeriph_Driver/src/stm32f10x_fsmc.c ****   assert_param(IS_FSMC_IT(FSMC_IT));	
 633:../Library/STM32F10x_StdPeriph_Driver/src/stm32f10x_fsmc.c ****   assert_param(IS_FUNCTIONAL_STATE(NewState));
 634:../Library/STM32F10x_StdPeriph_Driver/src/stm32f10x_fsmc.c ****   
 635:../Library/STM32F10x_StdPeriph_Driver/src/stm32f10x_fsmc.c ****   if (NewState != DISABLE)
 19370              		.loc 1 635 0
 19371 0000 D2B1     		cbz	r2, .L53
 636:../Library/STM32F10x_StdPeriph_Driver/src/stm32f10x_fsmc.c ****   {
 637:../Library/STM32F10x_StdPeriph_Driver/src/stm32f10x_fsmc.c ****     /* Enable the selected FSMC_Bank2 interrupts */
 638:../Library/STM32F10x_StdPeriph_Driver/src/stm32f10x_fsmc.c ****     if(FSMC_Bank == FSMC_Bank2_NAND)
 19372              		.loc 1 638 0
 19373 0002 1028     		cmp	r0, #16
 19374 0004 08D1     		bne	.L54
 639:../Library/STM32F10x_StdPeriph_Driver/src/stm32f10x_fsmc.c ****     {
 640:../Library/STM32F10x_StdPeriph_Driver/src/stm32f10x_fsmc.c ****       FSMC_Bank2->SR2 |= FSMC_IT;
 19375              		.loc 1 640 0
 19376 0006 40F26003 		movw	r3, #:lower16:-1610612640
 19377 000a CAF20003 		movt	r3, #:upper16:-1610612640
 19378 000e 5A68     		ldr	r2, [r3, #4]
 19379              	.LVL26:
 19380 0010 41EA0201 		orr	r1, r1, r2
 19381              	.LVL27:
 19382 0014 5960     		str	r1, [r3, #4]
 19383 0016 7047     		bx	lr
 19384              	.LVL28:
 19385              	.L54:
 641:../Library/STM32F10x_StdPeriph_Driver/src/stm32f10x_fsmc.c ****     }
 642:../Library/STM32F10x_StdPeriph_Driver/src/stm32f10x_fsmc.c ****     /* Enable the selected FSMC_Bank3 interrupts */
 643:../Library/STM32F10x_StdPeriph_Driver/src/stm32f10x_fsmc.c ****     else if (FSMC_Bank == FSMC_Bank3_NAND)
 19386              		.loc 1 643 0
 19387 0018 B0F5807F 		cmp	r0, #256
 644:../Library/STM32F10x_StdPeriph_Driver/src/stm32f10x_fsmc.c ****     {
 645:../Library/STM32F10x_StdPeriph_Driver/src/stm32f10x_fsmc.c ****       FSMC_Bank3->SR3 |= FSMC_IT;
 19388              		.loc 1 645 0
 19389 001c 07BF     		ittee	eq
 19390 001e 40F28003 		movweq	r3, #:lower16:-1610612608
 19391 0022 CAF20003 		movteq	r3, #:upper16:-1610612608
 646:../Library/STM32F10x_StdPeriph_Driver/src/stm32f10x_fsmc.c ****     }
 647:../Library/STM32F10x_StdPeriph_Driver/src/stm32f10x_fsmc.c ****     /* Enable the selected FSMC_Bank4 interrupts */
 648:../Library/STM32F10x_StdPeriph_Driver/src/stm32f10x_fsmc.c ****     else
 649:../Library/STM32F10x_StdPeriph_Driver/src/stm32f10x_fsmc.c ****     {
 650:../Library/STM32F10x_StdPeriph_Driver/src/stm32f10x_fsmc.c ****       FSMC_Bank4->SR4 |= FSMC_IT;    
 19392              		.loc 1 650 0
 19393 0026 40F2A003 		movwne	r3, #:lower16:-1610612576
 19394 002a CAF20003 		movtne	r3, #:upper16:-1610612576
 19395 002e 5A68     		ldr	r2, [r3, #4]
 19396              	.LVL29:
 19397 0030 41EA0201 		orr	r1, r1, r2
 19398              	.LVL30:
 19399 0034 5960     		str	r1, [r3, #4]
 19400 0036 7047     		bx	lr
 19401              	.LVL31:
 19402              	.L53:
 651:../Library/STM32F10x_StdPeriph_Driver/src/stm32f10x_fsmc.c ****     }
 652:../Library/STM32F10x_StdPeriph_Driver/src/stm32f10x_fsmc.c ****   }
 653:../Library/STM32F10x_StdPeriph_Driver/src/stm32f10x_fsmc.c ****   else
 654:../Library/STM32F10x_StdPeriph_Driver/src/stm32f10x_fsmc.c ****   {
 655:../Library/STM32F10x_StdPeriph_Driver/src/stm32f10x_fsmc.c ****     /* Disable the selected FSMC_Bank2 interrupts */
 656:../Library/STM32F10x_StdPeriph_Driver/src/stm32f10x_fsmc.c ****     if(FSMC_Bank == FSMC_Bank2_NAND)
 19403              		.loc 1 656 0
 19404 0038 1028     		cmp	r0, #16
 19405 003a 08D1     		bne	.L57
 657:../Library/STM32F10x_StdPeriph_Driver/src/stm32f10x_fsmc.c ****     {
 658:../Library/STM32F10x_StdPeriph_Driver/src/stm32f10x_fsmc.c ****       
 659:../Library/STM32F10x_StdPeriph_Driver/src/stm32f10x_fsmc.c ****       FSMC_Bank2->SR2 &= (uint32_t)~FSMC_IT;
 19406              		.loc 1 659 0
 19407 003c 40F26003 		movw	r3, #:lower16:-1610612640
 19408 0040 CAF20003 		movt	r3, #:upper16:-1610612640
 19409 0044 5A68     		ldr	r2, [r3, #4]
 19410              	.LVL32:
 19411 0046 22EA0101 		bic	r1, r2, r1
 19412              	.LVL33:
 19413 004a 5960     		str	r1, [r3, #4]
 19414 004c 7047     		bx	lr
 19415              	.LVL34:
 19416              	.L57:
 660:../Library/STM32F10x_StdPeriph_Driver/src/stm32f10x_fsmc.c ****     }
 661:../Library/STM32F10x_StdPeriph_Driver/src/stm32f10x_fsmc.c ****     /* Disable the selected FSMC_Bank3 interrupts */
 662:../Library/STM32F10x_StdPeriph_Driver/src/stm32f10x_fsmc.c ****     else if (FSMC_Bank == FSMC_Bank3_NAND)
 19417              		.loc 1 662 0
 19418 004e B0F5807F 		cmp	r0, #256
 663:../Library/STM32F10x_StdPeriph_Driver/src/stm32f10x_fsmc.c ****     {
 664:../Library/STM32F10x_StdPeriph_Driver/src/stm32f10x_fsmc.c ****       FSMC_Bank3->SR3 &= (uint32_t)~FSMC_IT;
 19419              		.loc 1 664 0
 19420 0052 07BF     		ittee	eq
 19421 0054 40F28003 		movweq	r3, #:lower16:-1610612608
 19422 0058 CAF20003 		movteq	r3, #:upper16:-1610612608
 665:../Library/STM32F10x_StdPeriph_Driver/src/stm32f10x_fsmc.c ****     }
 666:../Library/STM32F10x_StdPeriph_Driver/src/stm32f10x_fsmc.c ****     /* Disable the selected FSMC_Bank4 interrupts */
 667:../Library/STM32F10x_StdPeriph_Driver/src/stm32f10x_fsmc.c ****     else
 668:../Library/STM32F10x_StdPeriph_Driver/src/stm32f10x_fsmc.c ****     {
 669:../Library/STM32F10x_StdPeriph_Driver/src/stm32f10x_fsmc.c ****       FSMC_Bank4->SR4 &= (uint32_t)~FSMC_IT;    
 19423              		.loc 1 669 0
 19424 005c 40F2A003 		movwne	r3, #:lower16:-1610612576
 19425 0060 CAF20003 		movtne	r3, #:upper16:-1610612576
 19426 0064 5A68     		ldr	r2, [r3, #4]
 19427              	.LVL35:
 19428 0066 22EA0101 		bic	r1, r2, r1
 19429              	.LVL36:
 19430 006a 5960     		str	r1, [r3, #4]
 19431 006c 7047     		bx	lr
 19432              		.cfi_endproc
 19433              	.LFE43:
 19435 006e 00BF     		.section	.text.FSMC_GetFlagStatus,"ax",%progbits
 19436              		.align	2
 19437              		.global	FSMC_GetFlagStatus
 19438              		.thumb
 19439              		.thumb_func
 19441              	FSMC_GetFlagStatus:
 19442              	.LFB44:
 670:../Library/STM32F10x_StdPeriph_Driver/src/stm32f10x_fsmc.c ****     }
 671:../Library/STM32F10x_StdPeriph_Driver/src/stm32f10x_fsmc.c ****   }
 672:../Library/STM32F10x_StdPeriph_Driver/src/stm32f10x_fsmc.c **** }
 673:../Library/STM32F10x_StdPeriph_Driver/src/stm32f10x_fsmc.c **** 
 674:../Library/STM32F10x_StdPeriph_Driver/src/stm32f10x_fsmc.c **** /**
 675:../Library/STM32F10x_StdPeriph_Driver/src/stm32f10x_fsmc.c ****   * @brief  Checks whether the specified FSMC flag is set or not.
 676:../Library/STM32F10x_StdPeriph_Driver/src/stm32f10x_fsmc.c ****   * @param  FSMC_Bank: specifies the FSMC Bank to be used
 677:../Library/STM32F10x_StdPeriph_Driver/src/stm32f10x_fsmc.c ****   *   This parameter can be one of the following values:
 678:../Library/STM32F10x_StdPeriph_Driver/src/stm32f10x_fsmc.c ****   *     @arg FSMC_Bank2_NAND: FSMC Bank2 NAND 
 679:../Library/STM32F10x_StdPeriph_Driver/src/stm32f10x_fsmc.c ****   *     @arg FSMC_Bank3_NAND: FSMC Bank3 NAND
 680:../Library/STM32F10x_StdPeriph_Driver/src/stm32f10x_fsmc.c ****   *     @arg FSMC_Bank4_PCCARD: FSMC Bank4 PCCARD
 681:../Library/STM32F10x_StdPeriph_Driver/src/stm32f10x_fsmc.c ****   * @param  FSMC_FLAG: specifies the flag to check.
 682:../Library/STM32F10x_StdPeriph_Driver/src/stm32f10x_fsmc.c ****   *   This parameter can be one of the following values:
 683:../Library/STM32F10x_StdPeriph_Driver/src/stm32f10x_fsmc.c ****   *     @arg FSMC_FLAG_RisingEdge: Rising egde detection Flag.
 684:../Library/STM32F10x_StdPeriph_Driver/src/stm32f10x_fsmc.c ****   *     @arg FSMC_FLAG_Level: Level detection Flag.
 685:../Library/STM32F10x_StdPeriph_Driver/src/stm32f10x_fsmc.c ****   *     @arg FSMC_FLAG_FallingEdge: Falling egde detection Flag.
 686:../Library/STM32F10x_StdPeriph_Driver/src/stm32f10x_fsmc.c ****   *     @arg FSMC_FLAG_FEMPT: Fifo empty Flag. 
 687:../Library/STM32F10x_StdPeriph_Driver/src/stm32f10x_fsmc.c ****   * @retval The new state of FSMC_FLAG (SET or RESET).
 688:../Library/STM32F10x_StdPeriph_Driver/src/stm32f10x_fsmc.c ****   */
 689:../Library/STM32F10x_StdPeriph_Driver/src/stm32f10x_fsmc.c **** FlagStatus FSMC_GetFlagStatus(uint32_t FSMC_Bank, uint32_t FSMC_FLAG)
 690:../Library/STM32F10x_StdPeriph_Driver/src/stm32f10x_fsmc.c **** {
 19443              		.loc 1 690 0
 19444              		.cfi_startproc
 19445              		@ args = 0, pretend = 0, frame = 0
 19446              		@ frame_needed = 0, uses_anonymous_args = 0
 19447              		@ link register save eliminated.
 19448              	.LVL37:
 691:../Library/STM32F10x_StdPeriph_Driver/src/stm32f10x_fsmc.c ****   FlagStatus bitstatus = RESET;
 692:../Library/STM32F10x_StdPeriph_Driver/src/stm32f10x_fsmc.c ****   uint32_t tmpsr = 0x00000000;
 693:../Library/STM32F10x_StdPeriph_Driver/src/stm32f10x_fsmc.c ****   
 694:../Library/STM32F10x_StdPeriph_Driver/src/stm32f10x_fsmc.c ****   /* Check the parameters */
 695:../Library/STM32F10x_StdPeriph_Driver/src/stm32f10x_fsmc.c ****   assert_param(IS_FSMC_GETFLAG_BANK(FSMC_Bank));
 696:../Library/STM32F10x_StdPeriph_Driver/src/stm32f10x_fsmc.c ****   assert_param(IS_FSMC_GET_FLAG(FSMC_FLAG));
 697:../Library/STM32F10x_StdPeriph_Driver/src/stm32f10x_fsmc.c ****   
 698:../Library/STM32F10x_StdPeriph_Driver/src/stm32f10x_fsmc.c ****   if(FSMC_Bank == FSMC_Bank2_NAND)
 19449              		.loc 1 698 0
 19450 0000 1028     		cmp	r0, #16
 19451 0002 05D1     		bne	.L61
 699:../Library/STM32F10x_StdPeriph_Driver/src/stm32f10x_fsmc.c ****   {
 700:../Library/STM32F10x_StdPeriph_Driver/src/stm32f10x_fsmc.c ****     tmpsr = FSMC_Bank2->SR2;
 19452              		.loc 1 700 0
 19453 0004 40F26003 		movw	r3, #:lower16:-1610612640
 19454 0008 CAF20003 		movt	r3, #:upper16:-1610612640
 19455 000c 5B68     		ldr	r3, [r3, #4]
 19456              	.LVL38:
 19457 000e 0BE0     		b	.L62
 19458              	.LVL39:
 19459              	.L61:
 701:../Library/STM32F10x_StdPeriph_Driver/src/stm32f10x_fsmc.c ****   }  
 702:../Library/STM32F10x_StdPeriph_Driver/src/stm32f10x_fsmc.c ****   else if(FSMC_Bank == FSMC_Bank3_NAND)
 19460              		.loc 1 702 0
 19461 0010 B0F5807F 		cmp	r0, #256
 703:../Library/STM32F10x_StdPeriph_Driver/src/stm32f10x_fsmc.c ****   {
 704:../Library/STM32F10x_StdPeriph_Driver/src/stm32f10x_fsmc.c ****     tmpsr = FSMC_Bank3->SR3;
 19462              		.loc 1 704 0
 19463 0014 07BF     		ittee	eq
 19464 0016 40F28003 		movweq	r3, #:lower16:-1610612608
 19465 001a CAF20003 		movteq	r3, #:upper16:-1610612608
 705:../Library/STM32F10x_StdPeriph_Driver/src/stm32f10x_fsmc.c ****   }
 706:../Library/STM32F10x_StdPeriph_Driver/src/stm32f10x_fsmc.c ****   /* FSMC_Bank4_PCCARD*/
 707:../Library/STM32F10x_StdPeriph_Driver/src/stm32f10x_fsmc.c ****   else
 708:../Library/STM32F10x_StdPeriph_Driver/src/stm32f10x_fsmc.c ****   {
 709:../Library/STM32F10x_StdPeriph_Driver/src/stm32f10x_fsmc.c ****     tmpsr = FSMC_Bank4->SR4;
 19466              		.loc 1 709 0
 19467 001e 40F2A003 		movwne	r3, #:lower16:-1610612576
 19468 0022 CAF20003 		movtne	r3, #:upper16:-1610612576
 19469 0026 5B68     		ldr	r3, [r3, #4]
 19470              	.LVL40:
 19471              	.L62:
 19472 0028 0B42     		tst	r3, r1
 710:../Library/STM32F10x_StdPeriph_Driver/src/stm32f10x_fsmc.c ****   } 
 711:../Library/STM32F10x_StdPeriph_Driver/src/stm32f10x_fsmc.c ****   
 712:../Library/STM32F10x_StdPeriph_Driver/src/stm32f10x_fsmc.c ****   /* Get the flag status */
 713:../Library/STM32F10x_StdPeriph_Driver/src/stm32f10x_fsmc.c ****   if ((tmpsr & FSMC_FLAG) != (uint16_t)RESET )
 714:../Library/STM32F10x_StdPeriph_Driver/src/stm32f10x_fsmc.c ****   {
 715:../Library/STM32F10x_StdPeriph_Driver/src/stm32f10x_fsmc.c ****     bitstatus = SET;
 716:../Library/STM32F10x_StdPeriph_Driver/src/stm32f10x_fsmc.c ****   }
 717:../Library/STM32F10x_StdPeriph_Driver/src/stm32f10x_fsmc.c ****   else
 718:../Library/STM32F10x_StdPeriph_Driver/src/stm32f10x_fsmc.c ****   {
 719:../Library/STM32F10x_StdPeriph_Driver/src/stm32f10x_fsmc.c ****     bitstatus = RESET;
 720:../Library/STM32F10x_StdPeriph_Driver/src/stm32f10x_fsmc.c ****   }
 721:../Library/STM32F10x_StdPeriph_Driver/src/stm32f10x_fsmc.c ****   /* Return the flag status */
 722:../Library/STM32F10x_StdPeriph_Driver/src/stm32f10x_fsmc.c ****   return bitstatus;
 723:../Library/STM32F10x_StdPeriph_Driver/src/stm32f10x_fsmc.c **** }
 19473              		.loc 1 723 0
 19474 002a 0CBF     		ite	eq
 19475 002c 0020     		moveq	r0, #0
 19476 002e 0120     		movne	r0, #1
 19477              	.LVL41:
 19478 0030 7047     		bx	lr
 19479              		.cfi_endproc
 19480              	.LFE44:
 19482 0032 00BF     		.section	.text.FSMC_ClearFlag,"ax",%progbits
 19483              		.align	2
 19484              		.global	FSMC_ClearFlag
 19485              		.thumb
 19486              		.thumb_func
 19488              	FSMC_ClearFlag:
 19489              	.LFB45:
 724:../Library/STM32F10x_StdPeriph_Driver/src/stm32f10x_fsmc.c **** 
 725:../Library/STM32F10x_StdPeriph_Driver/src/stm32f10x_fsmc.c **** /**
 726:../Library/STM32F10x_StdPeriph_Driver/src/stm32f10x_fsmc.c ****   * @brief  Clears the FSMCs pending flags.
 727:../Library/STM32F10x_StdPeriph_Driver/src/stm32f10x_fsmc.c ****   * @param  FSMC_Bank: specifies the FSMC Bank to be used
 728:../Library/STM32F10x_StdPeriph_Driver/src/stm32f10x_fsmc.c ****   *   This parameter can be one of the following values:
 729:../Library/STM32F10x_StdPeriph_Driver/src/stm32f10x_fsmc.c ****   *     @arg FSMC_Bank2_NAND: FSMC Bank2 NAND 
 730:../Library/STM32F10x_StdPeriph_Driver/src/stm32f10x_fsmc.c ****   *     @arg FSMC_Bank3_NAND: FSMC Bank3 NAND
 731:../Library/STM32F10x_StdPeriph_Driver/src/stm32f10x_fsmc.c ****   *     @arg FSMC_Bank4_PCCARD: FSMC Bank4 PCCARD
 732:../Library/STM32F10x_StdPeriph_Driver/src/stm32f10x_fsmc.c ****   * @param  FSMC_FLAG: specifies the flag to clear.
 733:../Library/STM32F10x_StdPeriph_Driver/src/stm32f10x_fsmc.c ****   *   This parameter can be any combination of the following values:
 734:../Library/STM32F10x_StdPeriph_Driver/src/stm32f10x_fsmc.c ****   *     @arg FSMC_FLAG_RisingEdge: Rising egde detection Flag.
 735:../Library/STM32F10x_StdPeriph_Driver/src/stm32f10x_fsmc.c ****   *     @arg FSMC_FLAG_Level: Level detection Flag.
 736:../Library/STM32F10x_StdPeriph_Driver/src/stm32f10x_fsmc.c ****   *     @arg FSMC_FLAG_FallingEdge: Falling egde detection Flag.
 737:../Library/STM32F10x_StdPeriph_Driver/src/stm32f10x_fsmc.c ****   * @retval None
 738:../Library/STM32F10x_StdPeriph_Driver/src/stm32f10x_fsmc.c ****   */
 739:../Library/STM32F10x_StdPeriph_Driver/src/stm32f10x_fsmc.c **** void FSMC_ClearFlag(uint32_t FSMC_Bank, uint32_t FSMC_FLAG)
 740:../Library/STM32F10x_StdPeriph_Driver/src/stm32f10x_fsmc.c **** {
 19490              		.loc 1 740 0
 19491              		.cfi_startproc
 19492              		@ args = 0, pretend = 0, frame = 0
 19493              		@ frame_needed = 0, uses_anonymous_args = 0
 19494              		@ link register save eliminated.
 19495              	.LVL42:
 741:../Library/STM32F10x_StdPeriph_Driver/src/stm32f10x_fsmc.c ****  /* Check the parameters */
 742:../Library/STM32F10x_StdPeriph_Driver/src/stm32f10x_fsmc.c ****   assert_param(IS_FSMC_GETFLAG_BANK(FSMC_Bank));
 743:../Library/STM32F10x_StdPeriph_Driver/src/stm32f10x_fsmc.c ****   assert_param(IS_FSMC_CLEAR_FLAG(FSMC_FLAG)) ;
 744:../Library/STM32F10x_StdPeriph_Driver/src/stm32f10x_fsmc.c ****     
 745:../Library/STM32F10x_StdPeriph_Driver/src/stm32f10x_fsmc.c ****   if(FSMC_Bank == FSMC_Bank2_NAND)
 19496              		.loc 1 745 0
 19497 0000 1028     		cmp	r0, #16
 19498 0002 08D1     		bne	.L66
 746:../Library/STM32F10x_StdPeriph_Driver/src/stm32f10x_fsmc.c ****   {
 747:../Library/STM32F10x_StdPeriph_Driver/src/stm32f10x_fsmc.c ****     FSMC_Bank2->SR2 &= ~FSMC_FLAG; 
 19499              		.loc 1 747 0
 19500 0004 40F26003 		movw	r3, #:lower16:-1610612640
 19501 0008 CAF20003 		movt	r3, #:upper16:-1610612640
 19502 000c 5A68     		ldr	r2, [r3, #4]
 19503 000e 22EA0101 		bic	r1, r2, r1
 19504              	.LVL43:
 19505 0012 5960     		str	r1, [r3, #4]
 19506 0014 7047     		bx	lr
 19507              	.LVL44:
 19508              	.L66:
 748:../Library/STM32F10x_StdPeriph_Driver/src/stm32f10x_fsmc.c ****   }  
 749:../Library/STM32F10x_StdPeriph_Driver/src/stm32f10x_fsmc.c ****   else if(FSMC_Bank == FSMC_Bank3_NAND)
 19509              		.loc 1 749 0
 19510 0016 B0F5807F 		cmp	r0, #256
 750:../Library/STM32F10x_StdPeriph_Driver/src/stm32f10x_fsmc.c ****   {
 751:../Library/STM32F10x_StdPeriph_Driver/src/stm32f10x_fsmc.c ****     FSMC_Bank3->SR3 &= ~FSMC_FLAG;
 19511              		.loc 1 751 0
 19512 001a 07BF     		ittee	eq
 19513 001c 40F28003 		movweq	r3, #:lower16:-1610612608
 19514 0020 CAF20003 		movteq	r3, #:upper16:-1610612608
 752:../Library/STM32F10x_StdPeriph_Driver/src/stm32f10x_fsmc.c ****   }
 753:../Library/STM32F10x_StdPeriph_Driver/src/stm32f10x_fsmc.c ****   /* FSMC_Bank4_PCCARD*/
 754:../Library/STM32F10x_StdPeriph_Driver/src/stm32f10x_fsmc.c ****   else
 755:../Library/STM32F10x_StdPeriph_Driver/src/stm32f10x_fsmc.c ****   {
 756:../Library/STM32F10x_StdPeriph_Driver/src/stm32f10x_fsmc.c ****     FSMC_Bank4->SR4 &= ~FSMC_FLAG;
 19515              		.loc 1 756 0
 19516 0024 40F2A003 		movwne	r3, #:lower16:-1610612576
 19517 0028 CAF20003 		movtne	r3, #:upper16:-1610612576
 19518 002c 5A68     		ldr	r2, [r3, #4]
 19519 002e 22EA0101 		bic	r1, r2, r1
 19520              	.LVL45:
 19521 0032 5960     		str	r1, [r3, #4]
 19522 0034 7047     		bx	lr
 19523              		.cfi_endproc
 19524              	.LFE45:
 19526 0036 00BF     		.section	.text.FSMC_GetITStatus,"ax",%progbits
 19527              		.align	2
 19528              		.global	FSMC_GetITStatus
 19529              		.thumb
 19530              		.thumb_func
 19532              	FSMC_GetITStatus:
 19533              	.LFB46:
 757:../Library/STM32F10x_StdPeriph_Driver/src/stm32f10x_fsmc.c ****   }
 758:../Library/STM32F10x_StdPeriph_Driver/src/stm32f10x_fsmc.c **** }
 759:../Library/STM32F10x_StdPeriph_Driver/src/stm32f10x_fsmc.c **** 
 760:../Library/STM32F10x_StdPeriph_Driver/src/stm32f10x_fsmc.c **** /**
 761:../Library/STM32F10x_StdPeriph_Driver/src/stm32f10x_fsmc.c ****   * @brief  Checks whether the specified FSMC interrupt has occurred or not.
 762:../Library/STM32F10x_StdPeriph_Driver/src/stm32f10x_fsmc.c ****   * @param  FSMC_Bank: specifies the FSMC Bank to be used
 763:../Library/STM32F10x_StdPeriph_Driver/src/stm32f10x_fsmc.c ****   *   This parameter can be one of the following values:
 764:../Library/STM32F10x_StdPeriph_Driver/src/stm32f10x_fsmc.c ****   *     @arg FSMC_Bank2_NAND: FSMC Bank2 NAND 
 765:../Library/STM32F10x_StdPeriph_Driver/src/stm32f10x_fsmc.c ****   *     @arg FSMC_Bank3_NAND: FSMC Bank3 NAND
 766:../Library/STM32F10x_StdPeriph_Driver/src/stm32f10x_fsmc.c ****   *     @arg FSMC_Bank4_PCCARD: FSMC Bank4 PCCARD
 767:../Library/STM32F10x_StdPeriph_Driver/src/stm32f10x_fsmc.c ****   * @param  FSMC_IT: specifies the FSMC interrupt source to check.
 768:../Library/STM32F10x_StdPeriph_Driver/src/stm32f10x_fsmc.c ****   *   This parameter can be one of the following values:
 769:../Library/STM32F10x_StdPeriph_Driver/src/stm32f10x_fsmc.c ****   *     @arg FSMC_IT_RisingEdge: Rising edge detection interrupt. 
 770:../Library/STM32F10x_StdPeriph_Driver/src/stm32f10x_fsmc.c ****   *     @arg FSMC_IT_Level: Level edge detection interrupt.
 771:../Library/STM32F10x_StdPeriph_Driver/src/stm32f10x_fsmc.c ****   *     @arg FSMC_IT_FallingEdge: Falling edge detection interrupt. 
 772:../Library/STM32F10x_StdPeriph_Driver/src/stm32f10x_fsmc.c ****   * @retval The new state of FSMC_IT (SET or RESET).
 773:../Library/STM32F10x_StdPeriph_Driver/src/stm32f10x_fsmc.c ****   */
 774:../Library/STM32F10x_StdPeriph_Driver/src/stm32f10x_fsmc.c **** ITStatus FSMC_GetITStatus(uint32_t FSMC_Bank, uint32_t FSMC_IT)
 775:../Library/STM32F10x_StdPeriph_Driver/src/stm32f10x_fsmc.c **** {
 19534              		.loc 1 775 0
 19535              		.cfi_startproc
 19536              		@ args = 0, pretend = 0, frame = 0
 19537              		@ frame_needed = 0, uses_anonymous_args = 0
 19538              		@ link register save eliminated.
 19539              	.LVL46:
 776:../Library/STM32F10x_StdPeriph_Driver/src/stm32f10x_fsmc.c ****   ITStatus bitstatus = RESET;
 777:../Library/STM32F10x_StdPeriph_Driver/src/stm32f10x_fsmc.c ****   uint32_t tmpsr = 0x0, itstatus = 0x0, itenable = 0x0; 
 778:../Library/STM32F10x_StdPeriph_Driver/src/stm32f10x_fsmc.c ****   
 779:../Library/STM32F10x_StdPeriph_Driver/src/stm32f10x_fsmc.c ****   /* Check the parameters */
 780:../Library/STM32F10x_StdPeriph_Driver/src/stm32f10x_fsmc.c ****   assert_param(IS_FSMC_IT_BANK(FSMC_Bank));
 781:../Library/STM32F10x_StdPeriph_Driver/src/stm32f10x_fsmc.c ****   assert_param(IS_FSMC_GET_IT(FSMC_IT));
 782:../Library/STM32F10x_StdPeriph_Driver/src/stm32f10x_fsmc.c ****   
 783:../Library/STM32F10x_StdPeriph_Driver/src/stm32f10x_fsmc.c ****   if(FSMC_Bank == FSMC_Bank2_NAND)
 19540              		.loc 1 783 0
 19541 0000 1028     		cmp	r0, #16
 19542 0002 05D1     		bne	.L71
 784:../Library/STM32F10x_StdPeriph_Driver/src/stm32f10x_fsmc.c ****   {
 785:../Library/STM32F10x_StdPeriph_Driver/src/stm32f10x_fsmc.c ****     tmpsr = FSMC_Bank2->SR2;
 19543              		.loc 1 785 0
 19544 0004 40F26003 		movw	r3, #:lower16:-1610612640
 19545 0008 CAF20003 		movt	r3, #:upper16:-1610612640
 19546 000c 5B68     		ldr	r3, [r3, #4]
 19547              	.LVL47:
 19548 000e 0BE0     		b	.L72
 19549              	.LVL48:
 19550              	.L71:
 786:../Library/STM32F10x_StdPeriph_Driver/src/stm32f10x_fsmc.c ****   }  
 787:../Library/STM32F10x_StdPeriph_Driver/src/stm32f10x_fsmc.c ****   else if(FSMC_Bank == FSMC_Bank3_NAND)
 19551              		.loc 1 787 0
 19552 0010 B0F5807F 		cmp	r0, #256
 788:../Library/STM32F10x_StdPeriph_Driver/src/stm32f10x_fsmc.c ****   {
 789:../Library/STM32F10x_StdPeriph_Driver/src/stm32f10x_fsmc.c ****     tmpsr = FSMC_Bank3->SR3;
 19553              		.loc 1 789 0
 19554 0014 07BF     		ittee	eq
 19555 0016 40F28003 		movweq	r3, #:lower16:-1610612608
 19556 001a CAF20003 		movteq	r3, #:upper16:-1610612608
 790:../Library/STM32F10x_StdPeriph_Driver/src/stm32f10x_fsmc.c ****   }
 791:../Library/STM32F10x_StdPeriph_Driver/src/stm32f10x_fsmc.c ****   /* FSMC_Bank4_PCCARD*/
 792:../Library/STM32F10x_StdPeriph_Driver/src/stm32f10x_fsmc.c ****   else
 793:../Library/STM32F10x_StdPeriph_Driver/src/stm32f10x_fsmc.c ****   {
 794:../Library/STM32F10x_StdPeriph_Driver/src/stm32f10x_fsmc.c ****     tmpsr = FSMC_Bank4->SR4;
 19557              		.loc 1 794 0
 19558 001e 40F2A003 		movwne	r3, #:lower16:-1610612576
 19559 0022 CAF20003 		movtne	r3, #:upper16:-1610612576
 19560 0026 5B68     		ldr	r3, [r3, #4]
 19561              	.LVL49:
 19562              	.L72:
 19563 0028 0B42     		tst	r3, r1
 19564 002a 0CBF     		ite	eq
 19565 002c 0020     		moveq	r0, #0
 19566 002e 0120     		movne	r0, #1
 19567              	.LVL50:
 19568 0030 13EAD101 		ands	r1, r3, r1, lsr #3
 19569              	.LVL51:
 795:../Library/STM32F10x_StdPeriph_Driver/src/stm32f10x_fsmc.c ****   } 
 796:../Library/STM32F10x_StdPeriph_Driver/src/stm32f10x_fsmc.c ****   
 797:../Library/STM32F10x_StdPeriph_Driver/src/stm32f10x_fsmc.c ****   itstatus = tmpsr & FSMC_IT;
 798:../Library/STM32F10x_StdPeriph_Driver/src/stm32f10x_fsmc.c ****   
 799:../Library/STM32F10x_StdPeriph_Driver/src/stm32f10x_fsmc.c ****   itenable = tmpsr & (FSMC_IT >> 3);
 800:../Library/STM32F10x_StdPeriph_Driver/src/stm32f10x_fsmc.c ****   if ((itstatus != (uint32_t)RESET)  && (itenable != (uint32_t)RESET))
 801:../Library/STM32F10x_StdPeriph_Driver/src/stm32f10x_fsmc.c ****   {
 802:../Library/STM32F10x_StdPeriph_Driver/src/stm32f10x_fsmc.c ****     bitstatus = SET;
 803:../Library/STM32F10x_StdPeriph_Driver/src/stm32f10x_fsmc.c ****   }
 804:../Library/STM32F10x_StdPeriph_Driver/src/stm32f10x_fsmc.c ****   else
 805:../Library/STM32F10x_StdPeriph_Driver/src/stm32f10x_fsmc.c ****   {
 806:../Library/STM32F10x_StdPeriph_Driver/src/stm32f10x_fsmc.c ****     bitstatus = RESET;
 807:../Library/STM32F10x_StdPeriph_Driver/src/stm32f10x_fsmc.c ****   }
 808:../Library/STM32F10x_StdPeriph_Driver/src/stm32f10x_fsmc.c ****   return bitstatus; 
 809:../Library/STM32F10x_StdPeriph_Driver/src/stm32f10x_fsmc.c **** }
 19570              		.loc 1 809 0
 19571 0034 0CBF     		ite	eq
 19572 0036 0020     		moveq	r0, #0
 19573 0038 00F00100 		andne	r0, r0, #1
 19574 003c 7047     		bx	lr
 19575              		.cfi_endproc
 19576              	.LFE46:
 19578 003e 00BF     		.section	.text.FSMC_ClearITPendingBit,"ax",%progbits
 19579              		.align	2
 19580              		.global	FSMC_ClearITPendingBit
 19581              		.thumb
 19582              		.thumb_func
 19584              	FSMC_ClearITPendingBit:
 19585              	.LFB47:
 810:../Library/STM32F10x_StdPeriph_Driver/src/stm32f10x_fsmc.c **** 
 811:../Library/STM32F10x_StdPeriph_Driver/src/stm32f10x_fsmc.c **** /**
 812:../Library/STM32F10x_StdPeriph_Driver/src/stm32f10x_fsmc.c ****   * @brief  Clears the FSMCs interrupt pending bits.
 813:../Library/STM32F10x_StdPeriph_Driver/src/stm32f10x_fsmc.c ****   * @param  FSMC_Bank: specifies the FSMC Bank to be used
 814:../Library/STM32F10x_StdPeriph_Driver/src/stm32f10x_fsmc.c ****   *   This parameter can be one of the following values:
 815:../Library/STM32F10x_StdPeriph_Driver/src/stm32f10x_fsmc.c ****   *     @arg FSMC_Bank2_NAND: FSMC Bank2 NAND 
 816:../Library/STM32F10x_StdPeriph_Driver/src/stm32f10x_fsmc.c ****   *     @arg FSMC_Bank3_NAND: FSMC Bank3 NAND
 817:../Library/STM32F10x_StdPeriph_Driver/src/stm32f10x_fsmc.c ****   *     @arg FSMC_Bank4_PCCARD: FSMC Bank4 PCCARD
 818:../Library/STM32F10x_StdPeriph_Driver/src/stm32f10x_fsmc.c ****   * @param  FSMC_IT: specifies the interrupt pending bit to clear.
 819:../Library/STM32F10x_StdPeriph_Driver/src/stm32f10x_fsmc.c ****   *   This parameter can be any combination of the following values:
 820:../Library/STM32F10x_StdPeriph_Driver/src/stm32f10x_fsmc.c ****   *     @arg FSMC_IT_RisingEdge: Rising edge detection interrupt. 
 821:../Library/STM32F10x_StdPeriph_Driver/src/stm32f10x_fsmc.c ****   *     @arg FSMC_IT_Level: Level edge detection interrupt.
 822:../Library/STM32F10x_StdPeriph_Driver/src/stm32f10x_fsmc.c ****   *     @arg FSMC_IT_FallingEdge: Falling edge detection interrupt.
 823:../Library/STM32F10x_StdPeriph_Driver/src/stm32f10x_fsmc.c ****   * @retval None
 824:../Library/STM32F10x_StdPeriph_Driver/src/stm32f10x_fsmc.c ****   */
 825:../Library/STM32F10x_StdPeriph_Driver/src/stm32f10x_fsmc.c **** void FSMC_ClearITPendingBit(uint32_t FSMC_Bank, uint32_t FSMC_IT)
 826:../Library/STM32F10x_StdPeriph_Driver/src/stm32f10x_fsmc.c **** {
 19586              		.loc 1 826 0
 19587              		.cfi_startproc
 19588              		@ args = 0, pretend = 0, frame = 0
 19589              		@ frame_needed = 0, uses_anonymous_args = 0
 19590              		@ link register save eliminated.
 19591              	.LVL52:
 827:../Library/STM32F10x_StdPeriph_Driver/src/stm32f10x_fsmc.c ****   /* Check the parameters */
 828:../Library/STM32F10x_StdPeriph_Driver/src/stm32f10x_fsmc.c ****   assert_param(IS_FSMC_IT_BANK(FSMC_Bank));
 829:../Library/STM32F10x_StdPeriph_Driver/src/stm32f10x_fsmc.c ****   assert_param(IS_FSMC_IT(FSMC_IT));
 830:../Library/STM32F10x_StdPeriph_Driver/src/stm32f10x_fsmc.c ****     
 831:../Library/STM32F10x_StdPeriph_Driver/src/stm32f10x_fsmc.c ****   if(FSMC_Bank == FSMC_Bank2_NAND)
 19592              		.loc 1 831 0
 19593 0000 1028     		cmp	r0, #16
 19594 0002 08D1     		bne	.L76
 832:../Library/STM32F10x_StdPeriph_Driver/src/stm32f10x_fsmc.c ****   {
 833:../Library/STM32F10x_StdPeriph_Driver/src/stm32f10x_fsmc.c ****     FSMC_Bank2->SR2 &= ~(FSMC_IT >> 3); 
 19595              		.loc 1 833 0
 19596 0004 40F26003 		movw	r3, #:lower16:-1610612640
 19597 0008 CAF20003 		movt	r3, #:upper16:-1610612640
 19598 000c 5A68     		ldr	r2, [r3, #4]
 19599 000e 22EAD101 		bic	r1, r2, r1, lsr #3
 19600              	.LVL53:
 19601 0012 5960     		str	r1, [r3, #4]
 19602 0014 7047     		bx	lr
 19603              	.LVL54:
 19604              	.L76:
 834:../Library/STM32F10x_StdPeriph_Driver/src/stm32f10x_fsmc.c ****   }  
 835:../Library/STM32F10x_StdPeriph_Driver/src/stm32f10x_fsmc.c ****   else if(FSMC_Bank == FSMC_Bank3_NAND)
 19605              		.loc 1 835 0
 19606 0016 B0F5807F 		cmp	r0, #256
 836:../Library/STM32F10x_StdPeriph_Driver/src/stm32f10x_fsmc.c ****   {
 837:../Library/STM32F10x_StdPeriph_Driver/src/stm32f10x_fsmc.c ****     FSMC_Bank3->SR3 &= ~(FSMC_IT >> 3);
 19607              		.loc 1 837 0
 19608 001a 07BF     		ittee	eq
 19609 001c 40F28003 		movweq	r3, #:lower16:-1610612608
 19610 0020 CAF20003 		movteq	r3, #:upper16:-1610612608
 838:../Library/STM32F10x_StdPeriph_Driver/src/stm32f10x_fsmc.c ****   }
 839:../Library/STM32F10x_StdPeriph_Driver/src/stm32f10x_fsmc.c ****   /* FSMC_Bank4_PCCARD*/
 840:../Library/STM32F10x_StdPeriph_Driver/src/stm32f10x_fsmc.c ****   else
 841:../Library/STM32F10x_StdPeriph_Driver/src/stm32f10x_fsmc.c ****   {
 842:../Library/STM32F10x_StdPeriph_Driver/src/stm32f10x_fsmc.c ****     FSMC_Bank4->SR4 &= ~(FSMC_IT >> 3);
 19611              		.loc 1 842 0
 19612 0024 40F2A003 		movwne	r3, #:lower16:-1610612576
 19613 0028 CAF20003 		movtne	r3, #:upper16:-1610612576
 19614 002c 5A68     		ldr	r2, [r3, #4]
 19615 002e 22EAD101 		bic	r1, r2, r1, lsr #3
 19616              	.LVL55:
 19617 0032 5960     		str	r1, [r3, #4]
 19618 0034 7047     		bx	lr
 19619              		.cfi_endproc
 19620              	.LFE47:
 19622 0036 00BF     		.text
 19623              	.Letext0: