   1              		.syntax unified
   2              		.cpu cortex-m3
   3              		.fpu softvfp
   4              		.eabi_attribute 20, 1
   5              		.eabi_attribute 21, 1
   6              		.eabi_attribute 23, 3
   7              		.eabi_attribute 24, 1
   8              		.eabi_attribute 25, 1
   9              		.eabi_attribute 26, 1
  10              		.eabi_attribute 30, 1
  11              		.eabi_attribute 18, 4
  12              		.thumb
  13              		.file	"stm32f10x_tim.c"
  23              	.Ltext0:
  24              		.file 1 "../Library/STM32F10x_StdPeriph_Driver/src/stm32f10x_tim.c"
 18242              		.align	2
 18243              		.global	TIM_TimeBaseInit
 18244              		.thumb
 18245              		.thumb_func
 18247              	TIM_TimeBaseInit:
 18248              	.LFB30:
   1:../Library/STM32F10x_StdPeriph_Driver/src/stm32f10x_tim.c **** /**
   2:../Library/STM32F10x_StdPeriph_Driver/src/stm32f10x_tim.c ****   ******************************************************************************
   3:../Library/STM32F10x_StdPeriph_Driver/src/stm32f10x_tim.c ****   * @file    stm32f10x_tim.c
   4:../Library/STM32F10x_StdPeriph_Driver/src/stm32f10x_tim.c ****   * @author  MCD Application Team
   5:../Library/STM32F10x_StdPeriph_Driver/src/stm32f10x_tim.c ****   * @version V3.3.0
   6:../Library/STM32F10x_StdPeriph_Driver/src/stm32f10x_tim.c ****   * @date    04/16/2010
   7:../Library/STM32F10x_StdPeriph_Driver/src/stm32f10x_tim.c ****   * @brief   This file provides all the TIM firmware functions.
   8:../Library/STM32F10x_StdPeriph_Driver/src/stm32f10x_tim.c ****   ******************************************************************************
   9:../Library/STM32F10x_StdPeriph_Driver/src/stm32f10x_tim.c ****   * @copy
  10:../Library/STM32F10x_StdPeriph_Driver/src/stm32f10x_tim.c ****   *
  11:../Library/STM32F10x_StdPeriph_Driver/src/stm32f10x_tim.c ****   * THE PRESENT FIRMWARE WHICH IS FOR GUIDANCE ONLY AIMS AT PROVIDING CUSTOMERS
  12:../Library/STM32F10x_StdPeriph_Driver/src/stm32f10x_tim.c ****   * WITH CODING INFORMATION REGARDING THEIR PRODUCTS IN ORDER FOR THEM TO SAVE
  13:../Library/STM32F10x_StdPeriph_Driver/src/stm32f10x_tim.c ****   * TIME. AS A RESULT, STMICROELECTRONICS SHALL NOT BE HELD LIABLE FOR ANY
  14:../Library/STM32F10x_StdPeriph_Driver/src/stm32f10x_tim.c ****   * DIRECT, INDIRECT OR CONSEQUENTIAL DAMAGES WITH RESPECT TO ANY CLAIMS ARISING
  15:../Library/STM32F10x_StdPeriph_Driver/src/stm32f10x_tim.c ****   * FROM THE CONTENT OF SUCH FIRMWARE AND/OR THE USE MADE BY CUSTOMERS OF THE
  16:../Library/STM32F10x_StdPeriph_Driver/src/stm32f10x_tim.c ****   * CODING INFORMATION CONTAINED HEREIN IN CONNECTION WITH THEIR PRODUCTS.
  17:../Library/STM32F10x_StdPeriph_Driver/src/stm32f10x_tim.c ****   *
  18:../Library/STM32F10x_StdPeriph_Driver/src/stm32f10x_tim.c ****   * <h2><center>&copy; COPYRIGHT 2010 STMicroelectronics</center></h2>
  19:../Library/STM32F10x_StdPeriph_Driver/src/stm32f10x_tim.c ****   */ 
  20:../Library/STM32F10x_StdPeriph_Driver/src/stm32f10x_tim.c **** 
  21:../Library/STM32F10x_StdPeriph_Driver/src/stm32f10x_tim.c **** /* Includes ------------------------------------------------------------------*/
  22:../Library/STM32F10x_StdPeriph_Driver/src/stm32f10x_tim.c **** #include "stm32f10x_tim.h"
  23:../Library/STM32F10x_StdPeriph_Driver/src/stm32f10x_tim.c **** #include "stm32f10x_rcc.h"
  24:../Library/STM32F10x_StdPeriph_Driver/src/stm32f10x_tim.c **** 
  25:../Library/STM32F10x_StdPeriph_Driver/src/stm32f10x_tim.c **** /** @addtogroup STM32F10x_StdPeriph_Driver
  26:../Library/STM32F10x_StdPeriph_Driver/src/stm32f10x_tim.c ****   * @{
  27:../Library/STM32F10x_StdPeriph_Driver/src/stm32f10x_tim.c ****   */
  28:../Library/STM32F10x_StdPeriph_Driver/src/stm32f10x_tim.c **** 
  29:../Library/STM32F10x_StdPeriph_Driver/src/stm32f10x_tim.c **** /** @defgroup TIM 
  30:../Library/STM32F10x_StdPeriph_Driver/src/stm32f10x_tim.c ****   * @brief TIM driver modules
  31:../Library/STM32F10x_StdPeriph_Driver/src/stm32f10x_tim.c ****   * @{
  32:../Library/STM32F10x_StdPeriph_Driver/src/stm32f10x_tim.c ****   */
  33:../Library/STM32F10x_StdPeriph_Driver/src/stm32f10x_tim.c **** 
  34:../Library/STM32F10x_StdPeriph_Driver/src/stm32f10x_tim.c **** /** @defgroup TIM_Private_TypesDefinitions
  35:../Library/STM32F10x_StdPeriph_Driver/src/stm32f10x_tim.c ****   * @{
  36:../Library/STM32F10x_StdPeriph_Driver/src/stm32f10x_tim.c ****   */
  37:../Library/STM32F10x_StdPeriph_Driver/src/stm32f10x_tim.c **** 
  38:../Library/STM32F10x_StdPeriph_Driver/src/stm32f10x_tim.c **** /**
  39:../Library/STM32F10x_StdPeriph_Driver/src/stm32f10x_tim.c ****   * @}
  40:../Library/STM32F10x_StdPeriph_Driver/src/stm32f10x_tim.c ****   */
  41:../Library/STM32F10x_StdPeriph_Driver/src/stm32f10x_tim.c **** 
  42:../Library/STM32F10x_StdPeriph_Driver/src/stm32f10x_tim.c **** /** @defgroup TIM_Private_Defines
  43:../Library/STM32F10x_StdPeriph_Driver/src/stm32f10x_tim.c ****   * @{
  44:../Library/STM32F10x_StdPeriph_Driver/src/stm32f10x_tim.c ****   */
  45:../Library/STM32F10x_StdPeriph_Driver/src/stm32f10x_tim.c **** 
  46:../Library/STM32F10x_StdPeriph_Driver/src/stm32f10x_tim.c **** /* ---------------------- TIM registers bit mask ------------------------ */
  47:../Library/STM32F10x_StdPeriph_Driver/src/stm32f10x_tim.c **** #define SMCR_ETR_Mask               ((uint16_t)0x00FF) 
  48:../Library/STM32F10x_StdPeriph_Driver/src/stm32f10x_tim.c **** #define CCMR_Offset                 ((uint16_t)0x0018)
  49:../Library/STM32F10x_StdPeriph_Driver/src/stm32f10x_tim.c **** #define CCER_CCE_Set                ((uint16_t)0x0001)  
  50:../Library/STM32F10x_StdPeriph_Driver/src/stm32f10x_tim.c **** #define	CCER_CCNE_Set               ((uint16_t)0x0004) 
  51:../Library/STM32F10x_StdPeriph_Driver/src/stm32f10x_tim.c **** 
  52:../Library/STM32F10x_StdPeriph_Driver/src/stm32f10x_tim.c **** /**
  53:../Library/STM32F10x_StdPeriph_Driver/src/stm32f10x_tim.c ****   * @}
  54:../Library/STM32F10x_StdPeriph_Driver/src/stm32f10x_tim.c ****   */
  55:../Library/STM32F10x_StdPeriph_Driver/src/stm32f10x_tim.c **** 
  56:../Library/STM32F10x_StdPeriph_Driver/src/stm32f10x_tim.c **** /** @defgroup TIM_Private_Macros
  57:../Library/STM32F10x_StdPeriph_Driver/src/stm32f10x_tim.c ****   * @{
  58:../Library/STM32F10x_StdPeriph_Driver/src/stm32f10x_tim.c ****   */
  59:../Library/STM32F10x_StdPeriph_Driver/src/stm32f10x_tim.c **** 
  60:../Library/STM32F10x_StdPeriph_Driver/src/stm32f10x_tim.c **** /**
  61:../Library/STM32F10x_StdPeriph_Driver/src/stm32f10x_tim.c ****   * @}
  62:../Library/STM32F10x_StdPeriph_Driver/src/stm32f10x_tim.c ****   */
  63:../Library/STM32F10x_StdPeriph_Driver/src/stm32f10x_tim.c **** 
  64:../Library/STM32F10x_StdPeriph_Driver/src/stm32f10x_tim.c **** /** @defgroup TIM_Private_Variables
  65:../Library/STM32F10x_StdPeriph_Driver/src/stm32f10x_tim.c ****   * @{
  66:../Library/STM32F10x_StdPeriph_Driver/src/stm32f10x_tim.c ****   */
  67:../Library/STM32F10x_StdPeriph_Driver/src/stm32f10x_tim.c **** 
  68:../Library/STM32F10x_StdPeriph_Driver/src/stm32f10x_tim.c **** /**
  69:../Library/STM32F10x_StdPeriph_Driver/src/stm32f10x_tim.c ****   * @}
  70:../Library/STM32F10x_StdPeriph_Driver/src/stm32f10x_tim.c ****   */
  71:../Library/STM32F10x_StdPeriph_Driver/src/stm32f10x_tim.c **** 
  72:../Library/STM32F10x_StdPeriph_Driver/src/stm32f10x_tim.c **** /** @defgroup TIM_Private_FunctionPrototypes
  73:../Library/STM32F10x_StdPeriph_Driver/src/stm32f10x_tim.c ****   * @{
  74:../Library/STM32F10x_StdPeriph_Driver/src/stm32f10x_tim.c ****   */
  75:../Library/STM32F10x_StdPeriph_Driver/src/stm32f10x_tim.c **** 
  76:../Library/STM32F10x_StdPeriph_Driver/src/stm32f10x_tim.c **** static void TI1_Config(TIM_TypeDef* TIMx, uint16_t TIM_ICPolarity, uint16_t TIM_ICSelection,
  77:../Library/STM32F10x_StdPeriph_Driver/src/stm32f10x_tim.c ****                        uint16_t TIM_ICFilter);
  78:../Library/STM32F10x_StdPeriph_Driver/src/stm32f10x_tim.c **** static void TI2_Config(TIM_TypeDef* TIMx, uint16_t TIM_ICPolarity, uint16_t TIM_ICSelection,
  79:../Library/STM32F10x_StdPeriph_Driver/src/stm32f10x_tim.c ****                        uint16_t TIM_ICFilter);
  80:../Library/STM32F10x_StdPeriph_Driver/src/stm32f10x_tim.c **** static void TI3_Config(TIM_TypeDef* TIMx, uint16_t TIM_ICPolarity, uint16_t TIM_ICSelection,
  81:../Library/STM32F10x_StdPeriph_Driver/src/stm32f10x_tim.c ****                        uint16_t TIM_ICFilter);
  82:../Library/STM32F10x_StdPeriph_Driver/src/stm32f10x_tim.c **** static void TI4_Config(TIM_TypeDef* TIMx, uint16_t TIM_ICPolarity, uint16_t TIM_ICSelection,
  83:../Library/STM32F10x_StdPeriph_Driver/src/stm32f10x_tim.c ****                        uint16_t TIM_ICFilter);
  84:../Library/STM32F10x_StdPeriph_Driver/src/stm32f10x_tim.c **** /**
  85:../Library/STM32F10x_StdPeriph_Driver/src/stm32f10x_tim.c ****   * @}
  86:../Library/STM32F10x_StdPeriph_Driver/src/stm32f10x_tim.c ****   */
  87:../Library/STM32F10x_StdPeriph_Driver/src/stm32f10x_tim.c **** 
  88:../Library/STM32F10x_StdPeriph_Driver/src/stm32f10x_tim.c **** /** @defgroup TIM_Private_Macros
  89:../Library/STM32F10x_StdPeriph_Driver/src/stm32f10x_tim.c ****   * @{
  90:../Library/STM32F10x_StdPeriph_Driver/src/stm32f10x_tim.c ****   */
  91:../Library/STM32F10x_StdPeriph_Driver/src/stm32f10x_tim.c **** 
  92:../Library/STM32F10x_StdPeriph_Driver/src/stm32f10x_tim.c **** /**
  93:../Library/STM32F10x_StdPeriph_Driver/src/stm32f10x_tim.c ****   * @}
  94:../Library/STM32F10x_StdPeriph_Driver/src/stm32f10x_tim.c ****   */
  95:../Library/STM32F10x_StdPeriph_Driver/src/stm32f10x_tim.c **** 
  96:../Library/STM32F10x_StdPeriph_Driver/src/stm32f10x_tim.c **** /** @defgroup TIM_Private_Variables
  97:../Library/STM32F10x_StdPeriph_Driver/src/stm32f10x_tim.c ****   * @{
  98:../Library/STM32F10x_StdPeriph_Driver/src/stm32f10x_tim.c ****   */
  99:../Library/STM32F10x_StdPeriph_Driver/src/stm32f10x_tim.c **** 
 100:../Library/STM32F10x_StdPeriph_Driver/src/stm32f10x_tim.c **** /**
 101:../Library/STM32F10x_StdPeriph_Driver/src/stm32f10x_tim.c ****   * @}
 102:../Library/STM32F10x_StdPeriph_Driver/src/stm32f10x_tim.c ****   */
 103:../Library/STM32F10x_StdPeriph_Driver/src/stm32f10x_tim.c **** 
 104:../Library/STM32F10x_StdPeriph_Driver/src/stm32f10x_tim.c **** /** @defgroup TIM_Private_FunctionPrototypes
 105:../Library/STM32F10x_StdPeriph_Driver/src/stm32f10x_tim.c ****   * @{
 106:../Library/STM32F10x_StdPeriph_Driver/src/stm32f10x_tim.c ****   */
 107:../Library/STM32F10x_StdPeriph_Driver/src/stm32f10x_tim.c **** 
 108:../Library/STM32F10x_StdPeriph_Driver/src/stm32f10x_tim.c **** /**
 109:../Library/STM32F10x_StdPeriph_Driver/src/stm32f10x_tim.c ****   * @}
 110:../Library/STM32F10x_StdPeriph_Driver/src/stm32f10x_tim.c ****   */
 111:../Library/STM32F10x_StdPeriph_Driver/src/stm32f10x_tim.c **** 
 112:../Library/STM32F10x_StdPeriph_Driver/src/stm32f10x_tim.c **** /** @defgroup TIM_Private_Functions
 113:../Library/STM32F10x_StdPeriph_Driver/src/stm32f10x_tim.c ****   * @{
 114:../Library/STM32F10x_StdPeriph_Driver/src/stm32f10x_tim.c ****   */
 115:../Library/STM32F10x_StdPeriph_Driver/src/stm32f10x_tim.c **** 
 116:../Library/STM32F10x_StdPeriph_Driver/src/stm32f10x_tim.c **** /**
 117:../Library/STM32F10x_StdPeriph_Driver/src/stm32f10x_tim.c ****   * @brief  Deinitializes the TIMx peripheral registers to their default reset values.
 118:../Library/STM32F10x_StdPeriph_Driver/src/stm32f10x_tim.c ****   * @param  TIMx: where x can be 1 to 17 to select the TIM peripheral.
 119:../Library/STM32F10x_StdPeriph_Driver/src/stm32f10x_tim.c ****   * @retval None
 120:../Library/STM32F10x_StdPeriph_Driver/src/stm32f10x_tim.c ****   */
 121:../Library/STM32F10x_StdPeriph_Driver/src/stm32f10x_tim.c **** void TIM_DeInit(TIM_TypeDef* TIMx)
 122:../Library/STM32F10x_StdPeriph_Driver/src/stm32f10x_tim.c **** {
 123:../Library/STM32F10x_StdPeriph_Driver/src/stm32f10x_tim.c ****   /* Check the parameters */
 124:../Library/STM32F10x_StdPeriph_Driver/src/stm32f10x_tim.c ****   assert_param(IS_TIM_ALL_PERIPH(TIMx)); 
 125:../Library/STM32F10x_StdPeriph_Driver/src/stm32f10x_tim.c ****  
 126:../Library/STM32F10x_StdPeriph_Driver/src/stm32f10x_tim.c ****   if (TIMx == TIM1)
 127:../Library/STM32F10x_StdPeriph_Driver/src/stm32f10x_tim.c ****   {
 128:../Library/STM32F10x_StdPeriph_Driver/src/stm32f10x_tim.c ****     RCC_APB2PeriphResetCmd(RCC_APB2Periph_TIM1, ENABLE);
 129:../Library/STM32F10x_StdPeriph_Driver/src/stm32f10x_tim.c ****     RCC_APB2PeriphResetCmd(RCC_APB2Periph_TIM1, DISABLE);  
 130:../Library/STM32F10x_StdPeriph_Driver/src/stm32f10x_tim.c ****   }     
 131:../Library/STM32F10x_StdPeriph_Driver/src/stm32f10x_tim.c ****   else if (TIMx == TIM2)
 132:../Library/STM32F10x_StdPeriph_Driver/src/stm32f10x_tim.c ****   {
 133:../Library/STM32F10x_StdPeriph_Driver/src/stm32f10x_tim.c ****     RCC_APB1PeriphResetCmd(RCC_APB1Periph_TIM2, ENABLE);
 134:../Library/STM32F10x_StdPeriph_Driver/src/stm32f10x_tim.c ****     RCC_APB1PeriphResetCmd(RCC_APB1Periph_TIM2, DISABLE);
 135:../Library/STM32F10x_StdPeriph_Driver/src/stm32f10x_tim.c ****   }
 136:../Library/STM32F10x_StdPeriph_Driver/src/stm32f10x_tim.c ****   else if (TIMx == TIM3)
 137:../Library/STM32F10x_StdPeriph_Driver/src/stm32f10x_tim.c ****   {
 138:../Library/STM32F10x_StdPeriph_Driver/src/stm32f10x_tim.c ****     RCC_APB1PeriphResetCmd(RCC_APB1Periph_TIM3, ENABLE);
 139:../Library/STM32F10x_StdPeriph_Driver/src/stm32f10x_tim.c ****     RCC_APB1PeriphResetCmd(RCC_APB1Periph_TIM3, DISABLE);
 140:../Library/STM32F10x_StdPeriph_Driver/src/stm32f10x_tim.c ****   }
 141:../Library/STM32F10x_StdPeriph_Driver/src/stm32f10x_tim.c ****   else if (TIMx == TIM4)
 142:../Library/STM32F10x_StdPeriph_Driver/src/stm32f10x_tim.c ****   {
 143:../Library/STM32F10x_StdPeriph_Driver/src/stm32f10x_tim.c ****     RCC_APB1PeriphResetCmd(RCC_APB1Periph_TIM4, ENABLE);
 144:../Library/STM32F10x_StdPeriph_Driver/src/stm32f10x_tim.c ****     RCC_APB1PeriphResetCmd(RCC_APB1Periph_TIM4, DISABLE);
 145:../Library/STM32F10x_StdPeriph_Driver/src/stm32f10x_tim.c ****   } 
 146:../Library/STM32F10x_StdPeriph_Driver/src/stm32f10x_tim.c ****   else if (TIMx == TIM5)
 147:../Library/STM32F10x_StdPeriph_Driver/src/stm32f10x_tim.c ****   {
 148:../Library/STM32F10x_StdPeriph_Driver/src/stm32f10x_tim.c ****     RCC_APB1PeriphResetCmd(RCC_APB1Periph_TIM5, ENABLE);
 149:../Library/STM32F10x_StdPeriph_Driver/src/stm32f10x_tim.c ****     RCC_APB1PeriphResetCmd(RCC_APB1Periph_TIM5, DISABLE);
 150:../Library/STM32F10x_StdPeriph_Driver/src/stm32f10x_tim.c ****   } 
 151:../Library/STM32F10x_StdPeriph_Driver/src/stm32f10x_tim.c ****   else if (TIMx == TIM6)
 152:../Library/STM32F10x_StdPeriph_Driver/src/stm32f10x_tim.c ****   {
 153:../Library/STM32F10x_StdPeriph_Driver/src/stm32f10x_tim.c ****     RCC_APB1PeriphResetCmd(RCC_APB1Periph_TIM6, ENABLE);
 154:../Library/STM32F10x_StdPeriph_Driver/src/stm32f10x_tim.c ****     RCC_APB1PeriphResetCmd(RCC_APB1Periph_TIM6, DISABLE);
 155:../Library/STM32F10x_StdPeriph_Driver/src/stm32f10x_tim.c ****   } 
 156:../Library/STM32F10x_StdPeriph_Driver/src/stm32f10x_tim.c ****   else if (TIMx == TIM7)
 157:../Library/STM32F10x_StdPeriph_Driver/src/stm32f10x_tim.c ****   {
 158:../Library/STM32F10x_StdPeriph_Driver/src/stm32f10x_tim.c ****     RCC_APB1PeriphResetCmd(RCC_APB1Periph_TIM7, ENABLE);
 159:../Library/STM32F10x_StdPeriph_Driver/src/stm32f10x_tim.c ****     RCC_APB1PeriphResetCmd(RCC_APB1Periph_TIM7, DISABLE);
 160:../Library/STM32F10x_StdPeriph_Driver/src/stm32f10x_tim.c ****   } 
 161:../Library/STM32F10x_StdPeriph_Driver/src/stm32f10x_tim.c ****   else if (TIMx == TIM8)
 162:../Library/STM32F10x_StdPeriph_Driver/src/stm32f10x_tim.c ****   {
 163:../Library/STM32F10x_StdPeriph_Driver/src/stm32f10x_tim.c ****     RCC_APB2PeriphResetCmd(RCC_APB2Periph_TIM8, ENABLE);
 164:../Library/STM32F10x_StdPeriph_Driver/src/stm32f10x_tim.c ****     RCC_APB2PeriphResetCmd(RCC_APB2Periph_TIM8, DISABLE);
 165:../Library/STM32F10x_StdPeriph_Driver/src/stm32f10x_tim.c ****   }
 166:../Library/STM32F10x_StdPeriph_Driver/src/stm32f10x_tim.c ****   else if (TIMx == TIM9)
 167:../Library/STM32F10x_StdPeriph_Driver/src/stm32f10x_tim.c ****   {      
 168:../Library/STM32F10x_StdPeriph_Driver/src/stm32f10x_tim.c ****     RCC_APB2PeriphResetCmd(RCC_APB2Periph_TIM9, ENABLE);
 169:../Library/STM32F10x_StdPeriph_Driver/src/stm32f10x_tim.c ****     RCC_APB2PeriphResetCmd(RCC_APB2Periph_TIM9, DISABLE);  
 170:../Library/STM32F10x_StdPeriph_Driver/src/stm32f10x_tim.c ****    }  
 171:../Library/STM32F10x_StdPeriph_Driver/src/stm32f10x_tim.c ****   else if (TIMx == TIM10)
 172:../Library/STM32F10x_StdPeriph_Driver/src/stm32f10x_tim.c ****   {      
 173:../Library/STM32F10x_StdPeriph_Driver/src/stm32f10x_tim.c ****     RCC_APB2PeriphResetCmd(RCC_APB2Periph_TIM10, ENABLE);
 174:../Library/STM32F10x_StdPeriph_Driver/src/stm32f10x_tim.c ****     RCC_APB2PeriphResetCmd(RCC_APB2Periph_TIM10, DISABLE);  
 175:../Library/STM32F10x_StdPeriph_Driver/src/stm32f10x_tim.c ****   }  
 176:../Library/STM32F10x_StdPeriph_Driver/src/stm32f10x_tim.c ****   else if (TIMx == TIM11) 
 177:../Library/STM32F10x_StdPeriph_Driver/src/stm32f10x_tim.c ****   {     
 178:../Library/STM32F10x_StdPeriph_Driver/src/stm32f10x_tim.c ****     RCC_APB2PeriphResetCmd(RCC_APB2Periph_TIM11, ENABLE);
 179:../Library/STM32F10x_StdPeriph_Driver/src/stm32f10x_tim.c ****     RCC_APB2PeriphResetCmd(RCC_APB2Periph_TIM11, DISABLE);  
 180:../Library/STM32F10x_StdPeriph_Driver/src/stm32f10x_tim.c ****   }  
 181:../Library/STM32F10x_StdPeriph_Driver/src/stm32f10x_tim.c ****   else if (TIMx == TIM12)
 182:../Library/STM32F10x_StdPeriph_Driver/src/stm32f10x_tim.c ****   {      
 183:../Library/STM32F10x_StdPeriph_Driver/src/stm32f10x_tim.c ****     RCC_APB1PeriphResetCmd(RCC_APB1Periph_TIM12, ENABLE);
 184:../Library/STM32F10x_StdPeriph_Driver/src/stm32f10x_tim.c ****     RCC_APB1PeriphResetCmd(RCC_APB1Periph_TIM12, DISABLE);  
 185:../Library/STM32F10x_StdPeriph_Driver/src/stm32f10x_tim.c ****   }  
 186:../Library/STM32F10x_StdPeriph_Driver/src/stm32f10x_tim.c ****   else if (TIMx == TIM13) 
 187:../Library/STM32F10x_StdPeriph_Driver/src/stm32f10x_tim.c ****   {       
 188:../Library/STM32F10x_StdPeriph_Driver/src/stm32f10x_tim.c ****     RCC_APB1PeriphResetCmd(RCC_APB1Periph_TIM13, ENABLE);
 189:../Library/STM32F10x_StdPeriph_Driver/src/stm32f10x_tim.c ****     RCC_APB1PeriphResetCmd(RCC_APB1Periph_TIM13, DISABLE);  
 190:../Library/STM32F10x_StdPeriph_Driver/src/stm32f10x_tim.c ****   }
 191:../Library/STM32F10x_StdPeriph_Driver/src/stm32f10x_tim.c ****   else if (TIMx == TIM14) 
 192:../Library/STM32F10x_StdPeriph_Driver/src/stm32f10x_tim.c ****   {       
 193:../Library/STM32F10x_StdPeriph_Driver/src/stm32f10x_tim.c ****     RCC_APB1PeriphResetCmd(RCC_APB1Periph_TIM14, ENABLE);
 194:../Library/STM32F10x_StdPeriph_Driver/src/stm32f10x_tim.c ****     RCC_APB1PeriphResetCmd(RCC_APB1Periph_TIM14, DISABLE);  
 195:../Library/STM32F10x_StdPeriph_Driver/src/stm32f10x_tim.c ****   }        
 196:../Library/STM32F10x_StdPeriph_Driver/src/stm32f10x_tim.c ****   else if (TIMx == TIM15)
 197:../Library/STM32F10x_StdPeriph_Driver/src/stm32f10x_tim.c ****   {
 198:../Library/STM32F10x_StdPeriph_Driver/src/stm32f10x_tim.c ****     RCC_APB2PeriphResetCmd(RCC_APB2Periph_TIM15, ENABLE);
 199:../Library/STM32F10x_StdPeriph_Driver/src/stm32f10x_tim.c ****     RCC_APB2PeriphResetCmd(RCC_APB2Periph_TIM15, DISABLE);
 200:../Library/STM32F10x_StdPeriph_Driver/src/stm32f10x_tim.c ****   } 
 201:../Library/STM32F10x_StdPeriph_Driver/src/stm32f10x_tim.c ****   else if (TIMx == TIM16)
 202:../Library/STM32F10x_StdPeriph_Driver/src/stm32f10x_tim.c ****   {
 203:../Library/STM32F10x_StdPeriph_Driver/src/stm32f10x_tim.c ****     RCC_APB2PeriphResetCmd(RCC_APB2Periph_TIM16, ENABLE);
 204:../Library/STM32F10x_StdPeriph_Driver/src/stm32f10x_tim.c ****     RCC_APB2PeriphResetCmd(RCC_APB2Periph_TIM16, DISABLE);
 205:../Library/STM32F10x_StdPeriph_Driver/src/stm32f10x_tim.c ****   } 
 206:../Library/STM32F10x_StdPeriph_Driver/src/stm32f10x_tim.c ****   else
 207:../Library/STM32F10x_StdPeriph_Driver/src/stm32f10x_tim.c ****   {
 208:../Library/STM32F10x_StdPeriph_Driver/src/stm32f10x_tim.c ****     if (TIMx == TIM17)
 209:../Library/STM32F10x_StdPeriph_Driver/src/stm32f10x_tim.c ****     {
 210:../Library/STM32F10x_StdPeriph_Driver/src/stm32f10x_tim.c ****       RCC_APB2PeriphResetCmd(RCC_APB2Periph_TIM17, ENABLE);
 211:../Library/STM32F10x_StdPeriph_Driver/src/stm32f10x_tim.c ****       RCC_APB2PeriphResetCmd(RCC_APB2Periph_TIM17, DISABLE);
 212:../Library/STM32F10x_StdPeriph_Driver/src/stm32f10x_tim.c ****     }  
 213:../Library/STM32F10x_StdPeriph_Driver/src/stm32f10x_tim.c ****   }
 214:../Library/STM32F10x_StdPeriph_Driver/src/stm32f10x_tim.c **** }
 215:../Library/STM32F10x_StdPeriph_Driver/src/stm32f10x_tim.c **** 
 216:../Library/STM32F10x_StdPeriph_Driver/src/stm32f10x_tim.c **** /**
 217:../Library/STM32F10x_StdPeriph_Driver/src/stm32f10x_tim.c ****   * @brief  Initializes the TIMx Time Base Unit peripheral according to 
 218:../Library/STM32F10x_StdPeriph_Driver/src/stm32f10x_tim.c ****   *   the specified parameters in the TIM_TimeBaseInitStruct.
 219:../Library/STM32F10x_StdPeriph_Driver/src/stm32f10x_tim.c ****   * @param  TIMx: where x can be 1 to 17 to select the TIM peripheral.
 220:../Library/STM32F10x_StdPeriph_Driver/src/stm32f10x_tim.c ****   * @param  TIM_TimeBaseInitStruct: pointer to a TIM_TimeBaseInitTypeDef
 221:../Library/STM32F10x_StdPeriph_Driver/src/stm32f10x_tim.c ****   *   structure that contains the configuration information for the specified TIM peripheral.
 222:../Library/STM32F10x_StdPeriph_Driver/src/stm32f10x_tim.c ****   * @retval None
 223:../Library/STM32F10x_StdPeriph_Driver/src/stm32f10x_tim.c ****   */
 224:../Library/STM32F10x_StdPeriph_Driver/src/stm32f10x_tim.c **** void TIM_TimeBaseInit(TIM_TypeDef* TIMx, TIM_TimeBaseInitTypeDef* TIM_TimeBaseInitStruct)
 225:../Library/STM32F10x_StdPeriph_Driver/src/stm32f10x_tim.c **** {
 18249              		.loc 1 225 0
 18250              		.cfi_startproc
 18251              		@ args = 0, pretend = 0, frame = 0
 18252              		@ frame_needed = 0, uses_anonymous_args = 0
 18253              		@ link register save eliminated.
 18254              	.LVL0:
 18255 0000 10B4     		push	{r4}
 18256              	.LCFI0:
 18257              		.cfi_def_cfa_offset 4
 226:../Library/STM32F10x_StdPeriph_Driver/src/stm32f10x_tim.c ****   uint16_t tmpcr1 = 0;
 227:../Library/STM32F10x_StdPeriph_Driver/src/stm32f10x_tim.c **** 
 228:../Library/STM32F10x_StdPeriph_Driver/src/stm32f10x_tim.c ****   /* Check the parameters */
 229:../Library/STM32F10x_StdPeriph_Driver/src/stm32f10x_tim.c ****   assert_param(IS_TIM_ALL_PERIPH(TIMx)); 
 230:../Library/STM32F10x_StdPeriph_Driver/src/stm32f10x_tim.c ****   assert_param(IS_TIM_COUNTER_MODE(TIM_TimeBaseInitStruct->TIM_CounterMode));
 231:../Library/STM32F10x_StdPeriph_Driver/src/stm32f10x_tim.c ****   assert_param(IS_TIM_CKD_DIV(TIM_TimeBaseInitStruct->TIM_ClockDivision));
 232:../Library/STM32F10x_StdPeriph_Driver/src/stm32f10x_tim.c **** 
 233:../Library/STM32F10x_StdPeriph_Driver/src/stm32f10x_tim.c ****   tmpcr1 = TIMx->CR1;  
 18258              		.loc 1 233 0
 18259 0002 0288     		ldrh	r2, [r0, #0]
 18260 0004 92B2     		uxth	r2, r2
 18261              	.LVL1:
 234:../Library/STM32F10x_StdPeriph_Driver/src/stm32f10x_tim.c **** 
 235:../Library/STM32F10x_StdPeriph_Driver/src/stm32f10x_tim.c ****   if((TIMx == TIM1) || (TIMx == TIM8)|| (TIMx == TIM2) || (TIMx == TIM3)||
 18262              		.loc 1 235 0
 18263 0006 42F60043 		movw	r3, #:lower16:1073818624
 18264 000a C4F20103 		movt	r3, #:upper16:1073818624
 18265 000e 43F2004C 		movw	ip, #:lower16:1073820672
 18266 0012 C4F2010C 		movt	ip, #:upper16:1073820672
 18267 0016 6045     		cmp	r0, ip
 18268 0018 14BF     		ite	ne
 18269 001a 4FF0000C 		movne	ip, #0
 18270 001e 4FF0010C 		moveq	ip, #1
 18271 0022 9842     		cmp	r0, r3
 18272 0024 14BF     		ite	ne
 18273 0026 6446     		movne	r4, ip
 18274 0028 4CF00104 		orreq	r4, ip, #1
 18275              		.cfi_offset 4, -4
 18276 002c 0CBB     		cbnz	r4, .L2
 18277 002e 40F20043 		movw	r3, #:lower16:1073742848
 18278 0032 C4F20003 		movt	r3, #:upper16:1073742848
 18279 0036 9842     		cmp	r0, r3
 18280 0038 14BF     		ite	ne
 18281 003a 0023     		movne	r3, #0
 18282 003c 0123     		moveq	r3, #1
 18283 003e B0F1804F 		cmp	r0, #1073741824
 18284 0042 08BF     		it	eq
 18285 0044 43F00103 		orreq	r3, r3, #1
 18286 0048 9BB9     		cbnz	r3, .L2
 18287 004a 40F60003 		movw	r3, #:lower16:1073743872
 18288 004e C4F20003 		movt	r3, #:upper16:1073743872
 18289 0052 40F6004C 		movw	ip, #:lower16:1073744896
 18290 0056 C4F2000C 		movt	ip, #:upper16:1073744896
 18291 005a 6045     		cmp	r0, ip
 18292 005c 14BF     		ite	ne
 18293 005e 4FF0000C 		movne	ip, #0
 18294 0062 4FF0010C 		moveq	ip, #1
 18295 0066 9842     		cmp	r0, r3
 18296 0068 14BF     		ite	ne
 18297 006a 6346     		movne	r3, ip
 18298 006c 4CF00103 		orreq	r3, ip, #1
 18299 0070 43B1     		cbz	r3, .L3
 18300              	.L2:
 236:../Library/STM32F10x_StdPeriph_Driver/src/stm32f10x_tim.c ****      (TIMx == TIM4) || (TIMx == TIM5)) 
 237:../Library/STM32F10x_StdPeriph_Driver/src/stm32f10x_tim.c ****   {
 238:../Library/STM32F10x_StdPeriph_Driver/src/stm32f10x_tim.c ****     /* Select the Counter Mode */
 239:../Library/STM32F10x_StdPeriph_Driver/src/stm32f10x_tim.c ****     tmpcr1 &= (uint16_t)(~((uint16_t)(TIM_CR1_DIR | TIM_CR1_CMS)));
 18301              		.loc 1 239 0
 18302 0072 4FF68F73 		movw	r3, #:lower16:65423
 18303              	.LVL2:
 18304 0076 C0F20003 		movt	r3, #:upper16:65423
 18305              	.LVL3:
 18306 007a 02EA0303 		and	r3, r2, r3
 18307              	.LVL4:
 240:../Library/STM32F10x_StdPeriph_Driver/src/stm32f10x_tim.c ****     tmpcr1 |= (uint32_t)TIM_TimeBaseInitStruct->TIM_CounterMode;
 18308              		.loc 1 240 0
 18309 007e 4A88     		ldrh	r2, [r1, #2]
 18310 0080 43EA0202 		orr	r2, r3, r2
 18311              	.LVL5:
 18312              	.L3:
 241:../Library/STM32F10x_StdPeriph_Driver/src/stm32f10x_tim.c ****   }
 242:../Library/STM32F10x_StdPeriph_Driver/src/stm32f10x_tim.c ****  
 243:../Library/STM32F10x_StdPeriph_Driver/src/stm32f10x_tim.c ****   if((TIMx != TIM6) && (TIMx != TIM7))
 18313              		.loc 1 243 0
 18314 0084 41F20003 		movw	r3, #:lower16:1073745920
 18315 0088 C4F20003 		movt	r3, #:upper16:1073745920
 18316 008c 41F2004C 		movw	ip, #:lower16:1073746944
 18317 0090 C4F2000C 		movt	ip, #:upper16:1073746944
 18318 0094 B0EB0C0C 		subs	ip, r0, ip
 18319 0098 18BF     		it	ne
 18320 009a 4FF0010C 		movne	ip, #1
 18321 009e 9842     		cmp	r0, r3
 18322 00a0 0CBF     		ite	eq
 18323 00a2 0023     		moveq	r3, #0
 18324 00a4 0CF00103 		andne	r3, ip, #1
 18325 00a8 43B1     		cbz	r3, .L4
 244:../Library/STM32F10x_StdPeriph_Driver/src/stm32f10x_tim.c ****   {
 245:../Library/STM32F10x_StdPeriph_Driver/src/stm32f10x_tim.c ****     /* Set the clock division */
 246:../Library/STM32F10x_StdPeriph_Driver/src/stm32f10x_tim.c ****     tmpcr1 &= (uint16_t)(~((uint16_t)TIM_CR1_CKD));
 18326              		.loc 1 246 0
 18327 00aa 4FF6FF43 		movw	r3, #:lower16:64767
 18328              	.LVL6:
 18329 00ae C0F20003 		movt	r3, #:upper16:64767
 18330              	.LVL7:
 18331 00b2 02EA0303 		and	r3, r2, r3
 18332              	.LVL8:
 247:../Library/STM32F10x_StdPeriph_Driver/src/stm32f10x_tim.c ****     tmpcr1 |= (uint32_t)TIM_TimeBaseInitStruct->TIM_ClockDivision;
 18333              		.loc 1 247 0
 18334 00b6 CA88     		ldrh	r2, [r1, #6]
 18335 00b8 43EA0202 		orr	r2, r3, r2
 18336              	.LVL9:
 18337              	.L4:
 248:../Library/STM32F10x_StdPeriph_Driver/src/stm32f10x_tim.c ****   }
 249:../Library/STM32F10x_StdPeriph_Driver/src/stm32f10x_tim.c **** 
 250:../Library/STM32F10x_StdPeriph_Driver/src/stm32f10x_tim.c ****   TIMx->CR1 = tmpcr1;
 18338              		.loc 1 250 0
 18339 00bc 0280     		strh	r2, [r0, #0]	@ movhi
 251:../Library/STM32F10x_StdPeriph_Driver/src/stm32f10x_tim.c **** 
 252:../Library/STM32F10x_StdPeriph_Driver/src/stm32f10x_tim.c ****   /* Set the Autoreload value */
 253:../Library/STM32F10x_StdPeriph_Driver/src/stm32f10x_tim.c ****   TIMx->ARR = TIM_TimeBaseInitStruct->TIM_Period ;
 18340              		.loc 1 253 0
 18341 00be 8B88     		ldrh	r3, [r1, #4]
 18342 00c0 8385     		strh	r3, [r0, #44]	@ movhi
 254:../Library/STM32F10x_StdPeriph_Driver/src/stm32f10x_tim.c ****  
 255:../Library/STM32F10x_StdPeriph_Driver/src/stm32f10x_tim.c ****   /* Set the Prescaler value */
 256:../Library/STM32F10x_StdPeriph_Driver/src/stm32f10x_tim.c ****   TIMx->PSC = TIM_TimeBaseInitStruct->TIM_Prescaler;
 18343              		.loc 1 256 0
 18344 00c2 0B88     		ldrh	r3, [r1, #0]
 18345 00c4 0385     		strh	r3, [r0, #40]	@ movhi
 257:../Library/STM32F10x_StdPeriph_Driver/src/stm32f10x_tim.c ****     
 258:../Library/STM32F10x_StdPeriph_Driver/src/stm32f10x_tim.c ****   if ((TIMx == TIM1) || (TIMx == TIM8)|| (TIMx == TIM15)|| (TIMx == TIM16) || (TIMx == TIM17))  
 18346              		.loc 1 258 0
 18347 00c6 BCB9     		cbnz	r4, .L5
 18348 00c8 44F20003 		movw	r3, #:lower16:1073823744
 18349 00cc C4F20103 		movt	r3, #:upper16:1073823744
 18350 00d0 44F20042 		movw	r2, #:lower16:1073824768
 18351              	.LVL10:
 18352 00d4 C4F20102 		movt	r2, #:upper16:1073824768
 18353 00d8 9042     		cmp	r0, r2
 18354 00da 14BF     		ite	ne
 18355 00dc 0022     		movne	r2, #0
 18356 00de 0122     		moveq	r2, #1
 18357 00e0 9842     		cmp	r0, r3
 18358 00e2 14BF     		ite	ne
 18359 00e4 1346     		movne	r3, r2
 18360 00e6 42F00103 		orreq	r3, r2, #1
 18361 00ea 2BB9     		cbnz	r3, .L5
 18362 00ec 44F60003 		movw	r3, #:lower16:1073825792
 18363 00f0 C4F20103 		movt	r3, #:upper16:1073825792
 18364 00f4 9842     		cmp	r0, r3
 18365 00f6 01D1     		bne	.L6
 18366              	.LVL11:
 18367              	.L5:
 259:../Library/STM32F10x_StdPeriph_Driver/src/stm32f10x_tim.c ****   {
 260:../Library/STM32F10x_StdPeriph_Driver/src/stm32f10x_tim.c ****     /* Set the Repetition Counter value */
 261:../Library/STM32F10x_StdPeriph_Driver/src/stm32f10x_tim.c ****     TIMx->RCR = TIM_TimeBaseInitStruct->TIM_RepetitionCounter;
 18368              		.loc 1 261 0
 18369 00f8 0B7A     		ldrb	r3, [r1, #8]	@ zero_extendqisi2
 18370 00fa 0386     		strh	r3, [r0, #48]	@ movhi
 18371              	.L6:
 262:../Library/STM32F10x_StdPeriph_Driver/src/stm32f10x_tim.c ****   }
 263:../Library/STM32F10x_StdPeriph_Driver/src/stm32f10x_tim.c **** 
 264:../Library/STM32F10x_StdPeriph_Driver/src/stm32f10x_tim.c ****   /* Generate an update event to reload the Prescaler and the Repetition counter
 265:../Library/STM32F10x_StdPeriph_Driver/src/stm32f10x_tim.c ****      values immediately */
 266:../Library/STM32F10x_StdPeriph_Driver/src/stm32f10x_tim.c ****   TIMx->EGR = TIM_PSCReloadMode_Immediate;           
 18372              		.loc 1 266 0
 18373 00fc 4FF00103 		mov	r3, #1	@ movhi
 18374 0100 8382     		strh	r3, [r0, #20]	@ movhi
 267:../Library/STM32F10x_StdPeriph_Driver/src/stm32f10x_tim.c **** }
 18375              		.loc 1 267 0
 18376 0102 10BC     		pop	{r4}
 18377 0104 7047     		bx	lr
 18378              		.cfi_endproc
 18379              	.LFE30:
 18381 0106 00BF     		.section	.text.TIM_OC1Init,"ax",%progbits
 18382              		.align	2
 18383              		.global	TIM_OC1Init
 18384              		.thumb
 18385              		.thumb_func
 18387              	TIM_OC1Init:
 18388              	.LFB31:
 268:../Library/STM32F10x_StdPeriph_Driver/src/stm32f10x_tim.c **** 
 269:../Library/STM32F10x_StdPeriph_Driver/src/stm32f10x_tim.c **** /**
 270:../Library/STM32F10x_StdPeriph_Driver/src/stm32f10x_tim.c ****   * @brief  Initializes the TIMx Channel1 according to the specified
 271:../Library/STM32F10x_StdPeriph_Driver/src/stm32f10x_tim.c ****   *   parameters in the TIM_OCInitStruct.
 272:../Library/STM32F10x_StdPeriph_Driver/src/stm32f10x_tim.c ****   * @param  TIMx: where x can be  1 to 17 except 6 and 7 to select the TIM peripheral.
 273:../Library/STM32F10x_StdPeriph_Driver/src/stm32f10x_tim.c ****   * @param  TIM_OCInitStruct: pointer to a TIM_OCInitTypeDef structure
 274:../Library/STM32F10x_StdPeriph_Driver/src/stm32f10x_tim.c ****   *   that contains the configuration information for the specified TIM peripheral.
 275:../Library/STM32F10x_StdPeriph_Driver/src/stm32f10x_tim.c ****   * @retval None
 276:../Library/STM32F10x_StdPeriph_Driver/src/stm32f10x_tim.c ****   */
 277:../Library/STM32F10x_StdPeriph_Driver/src/stm32f10x_tim.c **** void TIM_OC1Init(TIM_TypeDef* TIMx, TIM_OCInitTypeDef* TIM_OCInitStruct)
 278:../Library/STM32F10x_StdPeriph_Driver/src/stm32f10x_tim.c **** {
 18389              		.loc 1 278 0
 18390              		.cfi_startproc
 18391              		@ args = 0, pretend = 0, frame = 0
 18392              		@ frame_needed = 0, uses_anonymous_args = 0
 18393              		@ link register save eliminated.
 18394              	.LVL12:
 18395 0000 70B4     		push	{r4, r5, r6}
 18396              	.LCFI1:
 18397              		.cfi_def_cfa_offset 12
 279:../Library/STM32F10x_StdPeriph_Driver/src/stm32f10x_tim.c ****   uint16_t tmpccmrx = 0, tmpccer = 0, tmpcr2 = 0;
 280:../Library/STM32F10x_StdPeriph_Driver/src/stm32f10x_tim.c ****    
 281:../Library/STM32F10x_StdPeriph_Driver/src/stm32f10x_tim.c ****   /* Check the parameters */
 282:../Library/STM32F10x_StdPeriph_Driver/src/stm32f10x_tim.c ****   assert_param(IS_TIM_LIST8_PERIPH(TIMx));
 283:../Library/STM32F10x_StdPeriph_Driver/src/stm32f10x_tim.c ****   assert_param(IS_TIM_OC_MODE(TIM_OCInitStruct->TIM_OCMode));
 284:../Library/STM32F10x_StdPeriph_Driver/src/stm32f10x_tim.c ****   assert_param(IS_TIM_OUTPUT_STATE(TIM_OCInitStruct->TIM_OutputState));
 285:../Library/STM32F10x_StdPeriph_Driver/src/stm32f10x_tim.c ****   assert_param(IS_TIM_OC_POLARITY(TIM_OCInitStruct->TIM_OCPolarity));   
 286:../Library/STM32F10x_StdPeriph_Driver/src/stm32f10x_tim.c ****  /* Disable the Channel 1: Reset the CC1E Bit */
 287:../Library/STM32F10x_StdPeriph_Driver/src/stm32f10x_tim.c ****   TIMx->CCER &= (uint16_t)(~(uint16_t)TIM_CCER_CC1E);
 18398              		.loc 1 287 0
 18399 0002 038C     		ldrh	r3, [r0, #32]
 18400 0004 23F00103 		bic	r3, r3, #1
 18401 0008 4FEA0343 		lsl	r3, r3, #16
 18402 000c 4FEA1343 		lsr	r3, r3, #16
 18403 0010 0384     		strh	r3, [r0, #32]	@ movhi
 288:../Library/STM32F10x_StdPeriph_Driver/src/stm32f10x_tim.c ****   /* Get the TIMx CCER register value */
 289:../Library/STM32F10x_StdPeriph_Driver/src/stm32f10x_tim.c ****   tmpccer = TIMx->CCER;
 18404              		.loc 1 289 0
 18405 0012 028C     		ldrh	r2, [r0, #32]
 290:../Library/STM32F10x_StdPeriph_Driver/src/stm32f10x_tim.c ****   /* Get the TIMx CR2 register value */
 291:../Library/STM32F10x_StdPeriph_Driver/src/stm32f10x_tim.c ****   tmpcr2 =  TIMx->CR2;
 18406              		.loc 1 291 0
 18407 0014 8388     		ldrh	r3, [r0, #4]
 18408 0016 9BB2     		uxth	r3, r3
 18409              	.LVL13:
 292:../Library/STM32F10x_StdPeriph_Driver/src/stm32f10x_tim.c ****   
 293:../Library/STM32F10x_StdPeriph_Driver/src/stm32f10x_tim.c ****   /* Get the TIMx CCMR1 register value */
 294:../Library/STM32F10x_StdPeriph_Driver/src/stm32f10x_tim.c ****   tmpccmrx = TIMx->CCMR1;
 18410              		.loc 1 294 0
 18411 0018 068B     		ldrh	r6, [r0, #24]
 18412              		.cfi_offset 6, -4
 18413              		.cfi_offset 5, -8
 18414              		.cfi_offset 4, -12
 18415 001a B6B2     		uxth	r6, r6
 18416              	.LVL14:
 295:../Library/STM32F10x_StdPeriph_Driver/src/stm32f10x_tim.c ****     
 296:../Library/STM32F10x_StdPeriph_Driver/src/stm32f10x_tim.c ****   /* Reset the Output Compare Mode Bits */
 297:../Library/STM32F10x_StdPeriph_Driver/src/stm32f10x_tim.c ****   tmpccmrx &= (uint16_t)(~((uint16_t)TIM_CCMR1_OC1M));
 298:../Library/STM32F10x_StdPeriph_Driver/src/stm32f10x_tim.c ****   tmpccmrx &= (uint16_t)(~((uint16_t)TIM_CCMR1_CC1S));
 299:../Library/STM32F10x_StdPeriph_Driver/src/stm32f10x_tim.c **** 
 300:../Library/STM32F10x_StdPeriph_Driver/src/stm32f10x_tim.c ****   /* Select the Output Compare Mode */
 301:../Library/STM32F10x_StdPeriph_Driver/src/stm32f10x_tim.c ****   tmpccmrx |= TIM_OCInitStruct->TIM_OCMode;
 18417              		.loc 1 301 0
 18418 001c 0D88     		ldrh	r5, [r1, #0]
 302:../Library/STM32F10x_StdPeriph_Driver/src/stm32f10x_tim.c ****   
 303:../Library/STM32F10x_StdPeriph_Driver/src/stm32f10x_tim.c ****   /* Reset the Output Polarity level */
 304:../Library/STM32F10x_StdPeriph_Driver/src/stm32f10x_tim.c ****   tmpccer &= (uint16_t)(~((uint16_t)TIM_CCER_CC1P));
 18419              		.loc 1 304 0
 18420 001e 22F00202 		bic	r2, r2, #2
 18421              	.LVL15:
 18422 0022 4FEA0242 		lsl	r2, r2, #16
 18423              	.LVL16:
 18424 0026 4FEA1242 		lsr	r2, r2, #16
 18425              	.LVL17:
 305:../Library/STM32F10x_StdPeriph_Driver/src/stm32f10x_tim.c ****   /* Set the Output Compare Polarity */
 306:../Library/STM32F10x_StdPeriph_Driver/src/stm32f10x_tim.c ****   tmpccer |= TIM_OCInitStruct->TIM_OCPolarity;
 18426              		.loc 1 306 0
 18427 002a 4C88     		ldrh	r4, [r1, #2]
 18428 002c B1F808C0 		ldrh	ip, [r1, #8]
 18429 0030 44EA0C0C 		orr	ip, r4, ip
 18430 0034 1FFA8CFC 		uxth	ip, ip
 18431              	.LVL18:
 307:../Library/STM32F10x_StdPeriph_Driver/src/stm32f10x_tim.c ****   
 308:../Library/STM32F10x_StdPeriph_Driver/src/stm32f10x_tim.c ****   /* Set the Output State */
 309:../Library/STM32F10x_StdPeriph_Driver/src/stm32f10x_tim.c ****   tmpccer |= TIM_OCInitStruct->TIM_OutputState;
 18432              		.loc 1 309 0
 18433 0038 4CEA0202 		orr	r2, ip, r2
 18434              	.LVL19:
 310:../Library/STM32F10x_StdPeriph_Driver/src/stm32f10x_tim.c ****     
 311:../Library/STM32F10x_StdPeriph_Driver/src/stm32f10x_tim.c ****   if((TIMx == TIM1) || (TIMx == TIM8)|| (TIMx == TIM15)||
 18435              		.loc 1 311 0
 18436 003c 42F6004C 		movw	ip, #:lower16:1073818624
 18437 0040 C4F2010C 		movt	ip, #:upper16:1073818624
 18438 0044 43F20044 		movw	r4, #:lower16:1073820672
 18439 0048 C4F20104 		movt	r4, #:upper16:1073820672
 18440 004c A042     		cmp	r0, r4
 18441 004e 14BF     		ite	ne
 18442 0050 0024     		movne	r4, #0
 18443 0052 0124     		moveq	r4, #1
 18444 0054 6045     		cmp	r0, ip
 18445 0056 08BF     		it	eq
 18446 0058 44F00104 		orreq	r4, r4, #1
 18447 005c B4B9     		cbnz	r4, .L9
 18448 005e 44F2000C 		movw	ip, #:lower16:1073823744
 18449 0062 C4F2010C 		movt	ip, #:upper16:1073823744
 18450 0066 44F20044 		movw	r4, #:lower16:1073824768
 18451 006a C4F20104 		movt	r4, #:upper16:1073824768
 18452 006e A042     		cmp	r0, r4
 18453 0070 14BF     		ite	ne
 18454 0072 0024     		movne	r4, #0
 18455 0074 0124     		moveq	r4, #1
 18456 0076 6045     		cmp	r0, ip
 18457 0078 08BF     		it	eq
 18458 007a 44F00104 		orreq	r4, r4, #1
 18459 007e 2CB9     		cbnz	r4, .L9
 18460 0080 44F6000C 		movw	ip, #:lower16:1073825792
 18461 0084 C4F2010C 		movt	ip, #:upper16:1073825792
 18462 0088 6045     		cmp	r0, ip
 18463 008a 1FD1     		bne	.L10
 18464              	.L9:
 312:../Library/STM32F10x_StdPeriph_Driver/src/stm32f10x_tim.c ****      (TIMx == TIM16)|| (TIMx == TIM17))
 313:../Library/STM32F10x_StdPeriph_Driver/src/stm32f10x_tim.c ****   {
 314:../Library/STM32F10x_StdPeriph_Driver/src/stm32f10x_tim.c ****     assert_param(IS_TIM_OUTPUTN_STATE(TIM_OCInitStruct->TIM_OutputNState));
 315:../Library/STM32F10x_StdPeriph_Driver/src/stm32f10x_tim.c ****     assert_param(IS_TIM_OCN_POLARITY(TIM_OCInitStruct->TIM_OCNPolarity));
 316:../Library/STM32F10x_StdPeriph_Driver/src/stm32f10x_tim.c ****     assert_param(IS_TIM_OCNIDLE_STATE(TIM_OCInitStruct->TIM_OCNIdleState));
 317:../Library/STM32F10x_StdPeriph_Driver/src/stm32f10x_tim.c ****     assert_param(IS_TIM_OCIDLE_STATE(TIM_OCInitStruct->TIM_OCIdleState));
 318:../Library/STM32F10x_StdPeriph_Driver/src/stm32f10x_tim.c ****     
 319:../Library/STM32F10x_StdPeriph_Driver/src/stm32f10x_tim.c ****     /* Reset the Output N Polarity level */
 320:../Library/STM32F10x_StdPeriph_Driver/src/stm32f10x_tim.c ****     tmpccer &= (uint16_t)(~((uint16_t)TIM_CCER_CC1NP));
 18465              		.loc 1 320 0
 18466 008c 4FF6F77C 		movw	ip, #:lower16:65527
 18467              	.LVL20:
 18468 0090 C0F2000C 		movt	ip, #:upper16:65527
 18469              	.LVL21:
 18470 0094 02EA0C0C 		and	ip, r2, ip
 18471              	.LVL22:
 321:../Library/STM32F10x_StdPeriph_Driver/src/stm32f10x_tim.c ****     /* Set the Output N Polarity */
 322:../Library/STM32F10x_StdPeriph_Driver/src/stm32f10x_tim.c ****     tmpccer |= TIM_OCInitStruct->TIM_OCNPolarity;
 18472              		.loc 1 322 0
 18473 0098 4A89     		ldrh	r2, [r1, #10]
 18474 009a 4CEA020C 		orr	ip, ip, r2
 18475              	.LVL23:
 323:../Library/STM32F10x_StdPeriph_Driver/src/stm32f10x_tim.c ****     
 324:../Library/STM32F10x_StdPeriph_Driver/src/stm32f10x_tim.c ****     /* Reset the Output N State */
 325:../Library/STM32F10x_StdPeriph_Driver/src/stm32f10x_tim.c ****     tmpccer &= (uint16_t)(~((uint16_t)TIM_CCER_CC1NE));    
 18476              		.loc 1 325 0
 18477 009e 4FF6FB72 		movw	r2, #:lower16:65531
 18478              	.LVL24:
 18479 00a2 C0F20002 		movt	r2, #:upper16:65531
 18480              	.LVL25:
 18481 00a6 0CEA0202 		and	r2, ip, r2
 18482              	.LVL26:
 326:../Library/STM32F10x_StdPeriph_Driver/src/stm32f10x_tim.c ****     /* Set the Output N State */
 327:../Library/STM32F10x_StdPeriph_Driver/src/stm32f10x_tim.c ****     tmpccer |= TIM_OCInitStruct->TIM_OutputNState;
 18483              		.loc 1 327 0
 18484 00aa B1F804C0 		ldrh	ip, [r1, #4]
 18485 00ae 42EA0C02 		orr	r2, r2, ip
 18486              	.LVL27:
 328:../Library/STM32F10x_StdPeriph_Driver/src/stm32f10x_tim.c ****     
 329:../Library/STM32F10x_StdPeriph_Driver/src/stm32f10x_tim.c ****     /* Reset the Ouput Compare and Output Compare N IDLE State */
 330:../Library/STM32F10x_StdPeriph_Driver/src/stm32f10x_tim.c ****     tmpcr2 &= (uint16_t)(~((uint16_t)TIM_CR2_OIS1));
 331:../Library/STM32F10x_StdPeriph_Driver/src/stm32f10x_tim.c ****     tmpcr2 &= (uint16_t)(~((uint16_t)TIM_CR2_OIS1N));
 18487              		.loc 1 331 0
 18488 00b2 4FF6FF4C 		movw	ip, #:lower16:64767
 18489              	.LVL28:
 18490 00b6 C0F2000C 		movt	ip, #:upper16:64767
 18491              	.LVL29:
 18492 00ba 03EA0C0C 		and	ip, r3, ip
 18493              	.LVL30:
 332:../Library/STM32F10x_StdPeriph_Driver/src/stm32f10x_tim.c ****     
 333:../Library/STM32F10x_StdPeriph_Driver/src/stm32f10x_tim.c ****     /* Set the Output Idle state */
 334:../Library/STM32F10x_StdPeriph_Driver/src/stm32f10x_tim.c ****     tmpcr2 |= TIM_OCInitStruct->TIM_OCIdleState;
 18494              		.loc 1 334 0
 18495 00be CC89     		ldrh	r4, [r1, #14]
 18496 00c0 8B89     		ldrh	r3, [r1, #12]
 18497 00c2 44EA0303 		orr	r3, r4, r3
 18498 00c6 9BB2     		uxth	r3, r3
 18499              	.LVL31:
 335:../Library/STM32F10x_StdPeriph_Driver/src/stm32f10x_tim.c ****     /* Set the Output N Idle state */
 336:../Library/STM32F10x_StdPeriph_Driver/src/stm32f10x_tim.c ****     tmpcr2 |= TIM_OCInitStruct->TIM_OCNIdleState;
 18500              		.loc 1 336 0
 18501 00c8 43EA0C03 		orr	r3, r3, ip
 18502              	.LVL32:
 18503              	.L10:
 337:../Library/STM32F10x_StdPeriph_Driver/src/stm32f10x_tim.c ****   }
 338:../Library/STM32F10x_StdPeriph_Driver/src/stm32f10x_tim.c ****   /* Write to TIMx CR2 */
 339:../Library/STM32F10x_StdPeriph_Driver/src/stm32f10x_tim.c ****   TIMx->CR2 = tmpcr2;
 18504              		.loc 1 339 0
 18505 00cc 8380     		strh	r3, [r0, #4]	@ movhi
 18506              		.loc 1 298 0
 18507 00ce 4FF68C73 		movw	r3, #:lower16:65420
 18508              	.LVL33:
 18509 00d2 C0F20003 		movt	r3, #:upper16:65420
 18510              	.LVL34:
 18511 00d6 06EA0303 		and	r3, r6, r3
 18512              	.LVL35:
 18513              		.loc 1 301 0
 18514 00da 43EA0503 		orr	r3, r3, r5
 18515              	.LVL36:
 340:../Library/STM32F10x_StdPeriph_Driver/src/stm32f10x_tim.c ****   
 341:../Library/STM32F10x_StdPeriph_Driver/src/stm32f10x_tim.c ****   /* Write to TIMx CCMR1 */
 342:../Library/STM32F10x_StdPeriph_Driver/src/stm32f10x_tim.c ****   TIMx->CCMR1 = tmpccmrx;
 18516              		.loc 1 342 0
 18517 00de 0383     		strh	r3, [r0, #24]	@ movhi
 343:../Library/STM32F10x_StdPeriph_Driver/src/stm32f10x_tim.c **** 
 344:../Library/STM32F10x_StdPeriph_Driver/src/stm32f10x_tim.c ****   /* Set the Capture Compare Register value */
 345:../Library/STM32F10x_StdPeriph_Driver/src/stm32f10x_tim.c ****   TIMx->CCR1 = TIM_OCInitStruct->TIM_Pulse; 
 18518              		.loc 1 345 0
 18519 00e0 CB88     		ldrh	r3, [r1, #6]
 18520              	.LVL37:
 18521 00e2 8386     		strh	r3, [r0, #52]	@ movhi
 346:../Library/STM32F10x_StdPeriph_Driver/src/stm32f10x_tim.c ****  
 347:../Library/STM32F10x_StdPeriph_Driver/src/stm32f10x_tim.c ****   /* Write to TIMx CCER */
 348:../Library/STM32F10x_StdPeriph_Driver/src/stm32f10x_tim.c ****   TIMx->CCER = tmpccer;
 18522              		.loc 1 348 0
 18523 00e4 0284     		strh	r2, [r0, #32]	@ movhi
 349:../Library/STM32F10x_StdPeriph_Driver/src/stm32f10x_tim.c **** }
 18524              		.loc 1 349 0
 18525 00e6 70BC     		pop	{r4, r5, r6}
 18526 00e8 7047     		bx	lr
 18527              		.cfi_endproc
 18528              	.LFE31:
 18530 00ea 00BF     		.section	.text.TIM_OC2Init,"ax",%progbits
 18531              		.align	2
 18532              		.global	TIM_OC2Init
 18533              		.thumb
 18534              		.thumb_func
 18536              	TIM_OC2Init:
 18537              	.LFB32:
 350:../Library/STM32F10x_StdPeriph_Driver/src/stm32f10x_tim.c **** 
 351:../Library/STM32F10x_StdPeriph_Driver/src/stm32f10x_tim.c **** /**
 352:../Library/STM32F10x_StdPeriph_Driver/src/stm32f10x_tim.c ****   * @brief  Initializes the TIMx Channel2 according to the specified
 353:../Library/STM32F10x_StdPeriph_Driver/src/stm32f10x_tim.c ****   *   parameters in the TIM_OCInitStruct.
 354:../Library/STM32F10x_StdPeriph_Driver/src/stm32f10x_tim.c ****   * @param  TIMx: where x can be  1, 2, 3, 4, 5, 8, 9, 12 or 15 to select 
 355:../Library/STM32F10x_StdPeriph_Driver/src/stm32f10x_tim.c ****   *   the TIM peripheral.
 356:../Library/STM32F10x_StdPeriph_Driver/src/stm32f10x_tim.c ****   * @param  TIM_OCInitStruct: pointer to a TIM_OCInitTypeDef structure
 357:../Library/STM32F10x_StdPeriph_Driver/src/stm32f10x_tim.c ****   *   that contains the configuration information for the specified TIM peripheral.
 358:../Library/STM32F10x_StdPeriph_Driver/src/stm32f10x_tim.c ****   * @retval None
 359:../Library/STM32F10x_StdPeriph_Driver/src/stm32f10x_tim.c ****   */
 360:../Library/STM32F10x_StdPeriph_Driver/src/stm32f10x_tim.c **** void TIM_OC2Init(TIM_TypeDef* TIMx, TIM_OCInitTypeDef* TIM_OCInitStruct)
 361:../Library/STM32F10x_StdPeriph_Driver/src/stm32f10x_tim.c **** {
 18538              		.loc 1 361 0
 18539              		.cfi_startproc
 18540              		@ args = 0, pretend = 0, frame = 0
 18541              		@ frame_needed = 0, uses_anonymous_args = 0
 18542              		@ link register save eliminated.
 18543              	.LVL38:
 18544 0000 F0B4     		push	{r4, r5, r6, r7}
 18545              	.LCFI2:
 18546              		.cfi_def_cfa_offset 16
 362:../Library/STM32F10x_StdPeriph_Driver/src/stm32f10x_tim.c ****   uint16_t tmpccmrx = 0, tmpccer = 0, tmpcr2 = 0;
 363:../Library/STM32F10x_StdPeriph_Driver/src/stm32f10x_tim.c ****    
 364:../Library/STM32F10x_StdPeriph_Driver/src/stm32f10x_tim.c ****   /* Check the parameters */
 365:../Library/STM32F10x_StdPeriph_Driver/src/stm32f10x_tim.c ****   assert_param(IS_TIM_LIST6_PERIPH(TIMx)); 
 366:../Library/STM32F10x_StdPeriph_Driver/src/stm32f10x_tim.c ****   assert_param(IS_TIM_OC_MODE(TIM_OCInitStruct->TIM_OCMode));
 367:../Library/STM32F10x_StdPeriph_Driver/src/stm32f10x_tim.c ****   assert_param(IS_TIM_OUTPUT_STATE(TIM_OCInitStruct->TIM_OutputState));
 368:../Library/STM32F10x_StdPeriph_Driver/src/stm32f10x_tim.c ****   assert_param(IS_TIM_OC_POLARITY(TIM_OCInitStruct->TIM_OCPolarity));   
 369:../Library/STM32F10x_StdPeriph_Driver/src/stm32f10x_tim.c ****    /* Disable the Channel 2: Reset the CC2E Bit */
 370:../Library/STM32F10x_StdPeriph_Driver/src/stm32f10x_tim.c ****   TIMx->CCER &= (uint16_t)(~((uint16_t)TIM_CCER_CC2E));
 18547              		.loc 1 370 0
 18548 0002 038C     		ldrh	r3, [r0, #32]
 18549 0004 23F01003 		bic	r3, r3, #16
 18550 0008 4FEA0343 		lsl	r3, r3, #16
 18551 000c 4FEA1343 		lsr	r3, r3, #16
 18552 0010 0384     		strh	r3, [r0, #32]	@ movhi
 371:../Library/STM32F10x_StdPeriph_Driver/src/stm32f10x_tim.c ****   
 372:../Library/STM32F10x_StdPeriph_Driver/src/stm32f10x_tim.c ****   /* Get the TIMx CCER register value */  
 373:../Library/STM32F10x_StdPeriph_Driver/src/stm32f10x_tim.c ****   tmpccer = TIMx->CCER;
 18553              		.loc 1 373 0
 18554 0012 028C     		ldrh	r2, [r0, #32]
 374:../Library/STM32F10x_StdPeriph_Driver/src/stm32f10x_tim.c ****   /* Get the TIMx CR2 register value */
 375:../Library/STM32F10x_StdPeriph_Driver/src/stm32f10x_tim.c ****   tmpcr2 =  TIMx->CR2;
 18555              		.loc 1 375 0
 18556 0014 B0F804C0 		ldrh	ip, [r0, #4]
 18557 0018 1FFA8CFC 		uxth	ip, ip
 18558              	.LVL39:
 376:../Library/STM32F10x_StdPeriph_Driver/src/stm32f10x_tim.c ****   
 377:../Library/STM32F10x_StdPeriph_Driver/src/stm32f10x_tim.c ****   /* Get the TIMx CCMR1 register value */
 378:../Library/STM32F10x_StdPeriph_Driver/src/stm32f10x_tim.c ****   tmpccmrx = TIMx->CCMR1;
 18559              		.loc 1 378 0
 18560 001c 078B     		ldrh	r7, [r0, #24]
 18561              		.cfi_offset 7, -4
 18562              		.cfi_offset 6, -8
 18563              		.cfi_offset 5, -12
 18564              		.cfi_offset 4, -16
 18565 001e BFB2     		uxth	r7, r7
 18566              	.LVL40:
 379:../Library/STM32F10x_StdPeriph_Driver/src/stm32f10x_tim.c ****     
 380:../Library/STM32F10x_StdPeriph_Driver/src/stm32f10x_tim.c ****   /* Reset the Output Compare mode and Capture/Compare selection Bits */
 381:../Library/STM32F10x_StdPeriph_Driver/src/stm32f10x_tim.c ****   tmpccmrx &= (uint16_t)(~((uint16_t)TIM_CCMR1_OC2M));
 382:../Library/STM32F10x_StdPeriph_Driver/src/stm32f10x_tim.c ****   tmpccmrx &= (uint16_t)(~((uint16_t)TIM_CCMR1_CC2S));
 383:../Library/STM32F10x_StdPeriph_Driver/src/stm32f10x_tim.c ****   
 384:../Library/STM32F10x_StdPeriph_Driver/src/stm32f10x_tim.c ****   /* Select the Output Compare Mode */
 385:../Library/STM32F10x_StdPeriph_Driver/src/stm32f10x_tim.c ****   tmpccmrx |= (uint16_t)(TIM_OCInitStruct->TIM_OCMode << 8);
 18567              		.loc 1 385 0
 18568 0020 0E88     		ldrh	r6, [r1, #0]
 386:../Library/STM32F10x_StdPeriph_Driver/src/stm32f10x_tim.c ****   
 387:../Library/STM32F10x_StdPeriph_Driver/src/stm32f10x_tim.c ****   /* Reset the Output Polarity level */
 388:../Library/STM32F10x_StdPeriph_Driver/src/stm32f10x_tim.c ****   tmpccer &= (uint16_t)(~((uint16_t)TIM_CCER_CC2P));
 18569              		.loc 1 388 0
 18570 0022 22F02002 		bic	r2, r2, #32
 18571              	.LVL41:
 18572 0026 4FEA0242 		lsl	r2, r2, #16
 18573              	.LVL42:
 18574 002a 4FEA1242 		lsr	r2, r2, #16
 18575              	.LVL43:
 389:../Library/STM32F10x_StdPeriph_Driver/src/stm32f10x_tim.c ****   /* Set the Output Compare Polarity */
 390:../Library/STM32F10x_StdPeriph_Driver/src/stm32f10x_tim.c ****   tmpccer |= (uint16_t)(TIM_OCInitStruct->TIM_OCPolarity << 4);
 18576              		.loc 1 390 0
 18577 002e 0B89     		ldrh	r3, [r1, #8]
 18578 0030 42EA0312 		orr	r2, r2, r3, lsl #4
 18579              	.LVL44:
 391:../Library/STM32F10x_StdPeriph_Driver/src/stm32f10x_tim.c ****   
 392:../Library/STM32F10x_StdPeriph_Driver/src/stm32f10x_tim.c ****   /* Set the Output State */
 393:../Library/STM32F10x_StdPeriph_Driver/src/stm32f10x_tim.c ****   tmpccer |= (uint16_t)(TIM_OCInitStruct->TIM_OutputState << 4);
 18580              		.loc 1 393 0
 18581 0034 4B88     		ldrh	r3, [r1, #2]
 18582 0036 42EA0312 		orr	r2, r2, r3, lsl #4
 18583              	.LVL45:
 18584 003a 92B2     		uxth	r2, r2
 18585              	.LVL46:
 394:../Library/STM32F10x_StdPeriph_Driver/src/stm32f10x_tim.c ****     
 395:../Library/STM32F10x_StdPeriph_Driver/src/stm32f10x_tim.c ****   if((TIMx == TIM1) || (TIMx == TIM8))
 18586              		.loc 1 395 0
 18587 003c 42F60044 		movw	r4, #:lower16:1073818624
 18588 0040 C4F20104 		movt	r4, #:upper16:1073818624
 18589 0044 43F20045 		movw	r5, #:lower16:1073820672
 18590 0048 C4F20105 		movt	r5, #:upper16:1073820672
 18591 004c A842     		cmp	r0, r5
 18592 004e 14BF     		ite	ne
 18593 0050 0025     		movne	r5, #0
 18594 0052 0125     		moveq	r5, #1
 18595 0054 A042     		cmp	r0, r4
 18596 0056 14BF     		ite	ne
 18597 0058 2C46     		movne	r4, r5
 18598 005a 45F00104 		orreq	r4, r5, #1
 18599 005e 14B3     		cbz	r4, .L13
 396:../Library/STM32F10x_StdPeriph_Driver/src/stm32f10x_tim.c ****   {
 397:../Library/STM32F10x_StdPeriph_Driver/src/stm32f10x_tim.c ****     assert_param(IS_TIM_OUTPUTN_STATE(TIM_OCInitStruct->TIM_OutputNState));
 398:../Library/STM32F10x_StdPeriph_Driver/src/stm32f10x_tim.c ****     assert_param(IS_TIM_OCN_POLARITY(TIM_OCInitStruct->TIM_OCNPolarity));
 399:../Library/STM32F10x_StdPeriph_Driver/src/stm32f10x_tim.c ****     assert_param(IS_TIM_OCNIDLE_STATE(TIM_OCInitStruct->TIM_OCNIdleState));
 400:../Library/STM32F10x_StdPeriph_Driver/src/stm32f10x_tim.c ****     assert_param(IS_TIM_OCIDLE_STATE(TIM_OCInitStruct->TIM_OCIdleState));
 401:../Library/STM32F10x_StdPeriph_Driver/src/stm32f10x_tim.c ****     
 402:../Library/STM32F10x_StdPeriph_Driver/src/stm32f10x_tim.c ****     /* Reset the Output N Polarity level */
 403:../Library/STM32F10x_StdPeriph_Driver/src/stm32f10x_tim.c ****     tmpccer &= (uint16_t)(~((uint16_t)TIM_CCER_CC2NP));
 18600              		.loc 1 403 0
 18601 0060 4FF67F73 		movw	r3, #:lower16:65407
 18602              	.LVL47:
 18603 0064 C0F20003 		movt	r3, #:upper16:65407
 18604              	.LVL48:
 18605 0068 02EA0303 		and	r3, r2, r3
 18606              	.LVL49:
 404:../Library/STM32F10x_StdPeriph_Driver/src/stm32f10x_tim.c ****     /* Set the Output N Polarity */
 405:../Library/STM32F10x_StdPeriph_Driver/src/stm32f10x_tim.c ****     tmpccer |= (uint16_t)(TIM_OCInitStruct->TIM_OCNPolarity << 4);
 18607              		.loc 1 405 0
 18608 006c 4A89     		ldrh	r2, [r1, #10]
 18609 006e 43EA0213 		orr	r3, r3, r2, lsl #4
 18610              	.LVL50:
 406:../Library/STM32F10x_StdPeriph_Driver/src/stm32f10x_tim.c ****     
 407:../Library/STM32F10x_StdPeriph_Driver/src/stm32f10x_tim.c ****     /* Reset the Output N State */
 408:../Library/STM32F10x_StdPeriph_Driver/src/stm32f10x_tim.c ****     tmpccer &= (uint16_t)(~((uint16_t)TIM_CCER_CC2NE));    
 18611              		.loc 1 408 0
 18612 0072 4FF6BF72 		movw	r2, #:lower16:65471
 18613              	.LVL51:
 18614 0076 C0F20002 		movt	r2, #:upper16:65471
 18615              	.LVL52:
 18616 007a 03EA0202 		and	r2, r3, r2
 18617              	.LVL53:
 409:../Library/STM32F10x_StdPeriph_Driver/src/stm32f10x_tim.c ****     /* Set the Output N State */
 410:../Library/STM32F10x_StdPeriph_Driver/src/stm32f10x_tim.c ****     tmpccer |= (uint16_t)(TIM_OCInitStruct->TIM_OutputNState << 4);
 18618              		.loc 1 410 0
 18619 007e 8B88     		ldrh	r3, [r1, #4]
 18620 0080 42EA0312 		orr	r2, r2, r3, lsl #4
 18621              	.LVL54:
 18622 0084 92B2     		uxth	r2, r2
 18623              	.LVL55:
 411:../Library/STM32F10x_StdPeriph_Driver/src/stm32f10x_tim.c ****     
 412:../Library/STM32F10x_StdPeriph_Driver/src/stm32f10x_tim.c ****     /* Reset the Ouput Compare and Output Compare N IDLE State */
 413:../Library/STM32F10x_StdPeriph_Driver/src/stm32f10x_tim.c ****     tmpcr2 &= (uint16_t)(~((uint16_t)TIM_CR2_OIS2));
 414:../Library/STM32F10x_StdPeriph_Driver/src/stm32f10x_tim.c ****     tmpcr2 &= (uint16_t)(~((uint16_t)TIM_CR2_OIS2N));
 18624              		.loc 1 414 0
 18625 0086 4FF2FF34 		movw	r4, #:lower16:62463
 18626              	.LVL56:
 18627 008a C0F20004 		movt	r4, #:upper16:62463
 18628              	.LVL57:
 18629 008e 0CEA0404 		and	r4, ip, r4
 18630              	.LVL58:
 415:../Library/STM32F10x_StdPeriph_Driver/src/stm32f10x_tim.c ****     
 416:../Library/STM32F10x_StdPeriph_Driver/src/stm32f10x_tim.c ****     /* Set the Output Idle state */
 417:../Library/STM32F10x_StdPeriph_Driver/src/stm32f10x_tim.c ****     tmpcr2 |= (uint16_t)(TIM_OCInitStruct->TIM_OCIdleState << 2);
 18631              		.loc 1 417 0
 18632 0092 B1F80CC0 		ldrh	ip, [r1, #12]
 18633 0096 44EA8C04 		orr	r4, r4, ip, lsl #2
 18634              	.LVL59:
 418:../Library/STM32F10x_StdPeriph_Driver/src/stm32f10x_tim.c ****     /* Set the Output N Idle state */
 419:../Library/STM32F10x_StdPeriph_Driver/src/stm32f10x_tim.c ****     tmpcr2 |= (uint16_t)(TIM_OCInitStruct->TIM_OCNIdleState << 2);
 18635              		.loc 1 419 0
 18636 009a B1F80EC0 		ldrh	ip, [r1, #14]
 18637 009e 44EA8C0C 		orr	ip, r4, ip, lsl #2
 18638              	.LVL60:
 18639 00a2 1FFA8CFC 		uxth	ip, ip
 18640              	.LVL61:
 18641              	.L13:
 420:../Library/STM32F10x_StdPeriph_Driver/src/stm32f10x_tim.c ****   }
 421:../Library/STM32F10x_StdPeriph_Driver/src/stm32f10x_tim.c ****   /* Write to TIMx CR2 */
 422:../Library/STM32F10x_StdPeriph_Driver/src/stm32f10x_tim.c ****   TIMx->CR2 = tmpcr2;
 18642              		.loc 1 422 0
 18643 00a6 A0F804C0 		strh	ip, [r0, #4]	@ movhi
 18644              		.loc 1 382 0
 18645 00aa 48F6FF43 		movw	r3, #:lower16:36095
 18646              	.LVL62:
 18647 00ae C0F20003 		movt	r3, #:upper16:36095
 18648              	.LVL63:
 18649 00b2 07EA0303 		and	r3, r7, r3
 18650              	.LVL64:
 18651              		.loc 1 385 0
 18652 00b6 43EA0623 		orr	r3, r3, r6, lsl #8
 18653              	.LVL65:
 18654 00ba 9BB2     		uxth	r3, r3
 18655              	.LVL66:
 423:../Library/STM32F10x_StdPeriph_Driver/src/stm32f10x_tim.c ****   
 424:../Library/STM32F10x_StdPeriph_Driver/src/stm32f10x_tim.c ****   /* Write to TIMx CCMR1 */
 425:../Library/STM32F10x_StdPeriph_Driver/src/stm32f10x_tim.c ****   TIMx->CCMR1 = tmpccmrx;
 18656              		.loc 1 425 0
 18657 00bc 0383     		strh	r3, [r0, #24]	@ movhi
 426:../Library/STM32F10x_StdPeriph_Driver/src/stm32f10x_tim.c **** 
 427:../Library/STM32F10x_StdPeriph_Driver/src/stm32f10x_tim.c ****   /* Set the Capture Compare Register value */
 428:../Library/STM32F10x_StdPeriph_Driver/src/stm32f10x_tim.c ****   TIMx->CCR2 = TIM_OCInitStruct->TIM_Pulse;
 18658              		.loc 1 428 0
 18659 00be CB88     		ldrh	r3, [r1, #6]
 18660              	.LVL67:
 18661 00c0 0387     		strh	r3, [r0, #56]	@ movhi
 429:../Library/STM32F10x_StdPeriph_Driver/src/stm32f10x_tim.c ****   
 430:../Library/STM32F10x_StdPeriph_Driver/src/stm32f10x_tim.c ****   /* Write to TIMx CCER */
 431:../Library/STM32F10x_StdPeriph_Driver/src/stm32f10x_tim.c ****   TIMx->CCER = tmpccer;
 18662              		.loc 1 431 0
 18663 00c2 0284     		strh	r2, [r0, #32]	@ movhi
 432:../Library/STM32F10x_StdPeriph_Driver/src/stm32f10x_tim.c **** }
 18664              		.loc 1 432 0
 18665 00c4 F0BC     		pop	{r4, r5, r6, r7}
 18666 00c6 7047     		bx	lr
 18667              		.cfi_endproc
 18668              	.LFE32:
 18670              		.section	.text.TIM_OC3Init,"ax",%progbits
 18671              		.align	2
 18672              		.global	TIM_OC3Init
 18673              		.thumb
 18674              		.thumb_func
 18676              	TIM_OC3Init:
 18677              	.LFB33:
 433:../Library/STM32F10x_StdPeriph_Driver/src/stm32f10x_tim.c **** 
 434:../Library/STM32F10x_StdPeriph_Driver/src/stm32f10x_tim.c **** /**
 435:../Library/STM32F10x_StdPeriph_Driver/src/stm32f10x_tim.c ****   * @brief  Initializes the TIMx Channel3 according to the specified
 436:../Library/STM32F10x_StdPeriph_Driver/src/stm32f10x_tim.c ****   *   parameters in the TIM_OCInitStruct.
 437:../Library/STM32F10x_StdPeriph_Driver/src/stm32f10x_tim.c ****   * @param  TIMx: where x can be  1, 2, 3, 4, 5 or 8 to select the TIM peripheral.
 438:../Library/STM32F10x_StdPeriph_Driver/src/stm32f10x_tim.c ****   * @param  TIM_OCInitStruct: pointer to a TIM_OCInitTypeDef structure
 439:../Library/STM32F10x_StdPeriph_Driver/src/stm32f10x_tim.c ****   *   that contains the configuration information for the specified TIM peripheral.
 440:../Library/STM32F10x_StdPeriph_Driver/src/stm32f10x_tim.c ****   * @retval None
 441:../Library/STM32F10x_StdPeriph_Driver/src/stm32f10x_tim.c ****   */
 442:../Library/STM32F10x_StdPeriph_Driver/src/stm32f10x_tim.c **** void TIM_OC3Init(TIM_TypeDef* TIMx, TIM_OCInitTypeDef* TIM_OCInitStruct)
 443:../Library/STM32F10x_StdPeriph_Driver/src/stm32f10x_tim.c **** {
 18678              		.loc 1 443 0
 18679              		.cfi_startproc
 18680              		@ args = 0, pretend = 0, frame = 0
 18681              		@ frame_needed = 0, uses_anonymous_args = 0
 18682              		@ link register save eliminated.
 18683              	.LVL68:
 18684 0000 F0B4     		push	{r4, r5, r6, r7}
 18685              	.LCFI3:
 18686              		.cfi_def_cfa_offset 16
 444:../Library/STM32F10x_StdPeriph_Driver/src/stm32f10x_tim.c ****   uint16_t tmpccmrx = 0, tmpccer = 0, tmpcr2 = 0;
 445:../Library/STM32F10x_StdPeriph_Driver/src/stm32f10x_tim.c ****    
 446:../Library/STM32F10x_StdPeriph_Driver/src/stm32f10x_tim.c ****   /* Check the parameters */
 447:../Library/STM32F10x_StdPeriph_Driver/src/stm32f10x_tim.c ****   assert_param(IS_TIM_LIST3_PERIPH(TIMx)); 
 448:../Library/STM32F10x_StdPeriph_Driver/src/stm32f10x_tim.c ****   assert_param(IS_TIM_OC_MODE(TIM_OCInitStruct->TIM_OCMode));
 449:../Library/STM32F10x_StdPeriph_Driver/src/stm32f10x_tim.c ****   assert_param(IS_TIM_OUTPUT_STATE(TIM_OCInitStruct->TIM_OutputState));
 450:../Library/STM32F10x_StdPeriph_Driver/src/stm32f10x_tim.c ****   assert_param(IS_TIM_OC_POLARITY(TIM_OCInitStruct->TIM_OCPolarity));   
 451:../Library/STM32F10x_StdPeriph_Driver/src/stm32f10x_tim.c ****   /* Disable the Channel 2: Reset the CC2E Bit */
 452:../Library/STM32F10x_StdPeriph_Driver/src/stm32f10x_tim.c ****   TIMx->CCER &= (uint16_t)(~((uint16_t)TIM_CCER_CC3E));
 18687              		.loc 1 452 0
 18688 0002 038C     		ldrh	r3, [r0, #32]
 18689 0004 23F48073 		bic	r3, r3, #256
 18690 0008 4FEA0343 		lsl	r3, r3, #16
 18691 000c 4FEA1343 		lsr	r3, r3, #16
 18692 0010 0384     		strh	r3, [r0, #32]	@ movhi
 453:../Library/STM32F10x_StdPeriph_Driver/src/stm32f10x_tim.c ****   
 454:../Library/STM32F10x_StdPeriph_Driver/src/stm32f10x_tim.c ****   /* Get the TIMx CCER register value */
 455:../Library/STM32F10x_StdPeriph_Driver/src/stm32f10x_tim.c ****   tmpccer = TIMx->CCER;
 18693              		.loc 1 455 0
 18694 0012 028C     		ldrh	r2, [r0, #32]
 456:../Library/STM32F10x_StdPeriph_Driver/src/stm32f10x_tim.c ****   /* Get the TIMx CR2 register value */
 457:../Library/STM32F10x_StdPeriph_Driver/src/stm32f10x_tim.c ****   tmpcr2 =  TIMx->CR2;
 18695              		.loc 1 457 0
 18696 0014 B0F804C0 		ldrh	ip, [r0, #4]
 18697 0018 1FFA8CFC 		uxth	ip, ip
 18698              	.LVL69:
 458:../Library/STM32F10x_StdPeriph_Driver/src/stm32f10x_tim.c ****   
 459:../Library/STM32F10x_StdPeriph_Driver/src/stm32f10x_tim.c ****   /* Get the TIMx CCMR2 register value */
 460:../Library/STM32F10x_StdPeriph_Driver/src/stm32f10x_tim.c ****   tmpccmrx = TIMx->CCMR2;
 18699              		.loc 1 460 0
 18700 001c 878B     		ldrh	r7, [r0, #28]
 18701              		.cfi_offset 7, -4
 18702              		.cfi_offset 6, -8
 18703              		.cfi_offset 5, -12
 18704              		.cfi_offset 4, -16
 18705 001e BFB2     		uxth	r7, r7
 18706              	.LVL70:
 461:../Library/STM32F10x_StdPeriph_Driver/src/stm32f10x_tim.c ****     
 462:../Library/STM32F10x_StdPeriph_Driver/src/stm32f10x_tim.c ****   /* Reset the Output Compare mode and Capture/Compare selection Bits */
 463:../Library/STM32F10x_StdPeriph_Driver/src/stm32f10x_tim.c ****   tmpccmrx &= (uint16_t)(~((uint16_t)TIM_CCMR2_OC3M));
 464:../Library/STM32F10x_StdPeriph_Driver/src/stm32f10x_tim.c ****   tmpccmrx &= (uint16_t)(~((uint16_t)TIM_CCMR2_CC3S));  
 465:../Library/STM32F10x_StdPeriph_Driver/src/stm32f10x_tim.c ****   /* Select the Output Compare Mode */
 466:../Library/STM32F10x_StdPeriph_Driver/src/stm32f10x_tim.c ****   tmpccmrx |= TIM_OCInitStruct->TIM_OCMode;
 18707              		.loc 1 466 0
 18708 0020 0E88     		ldrh	r6, [r1, #0]
 467:../Library/STM32F10x_StdPeriph_Driver/src/stm32f10x_tim.c ****   
 468:../Library/STM32F10x_StdPeriph_Driver/src/stm32f10x_tim.c ****   /* Reset the Output Polarity level */
 469:../Library/STM32F10x_StdPeriph_Driver/src/stm32f10x_tim.c ****   tmpccer &= (uint16_t)(~((uint16_t)TIM_CCER_CC3P));
 18709              		.loc 1 469 0
 18710 0022 22F40072 		bic	r2, r2, #512
 18711              	.LVL71:
 18712 0026 4FEA0242 		lsl	r2, r2, #16
 18713              	.LVL72:
 18714 002a 4FEA1242 		lsr	r2, r2, #16
 18715              	.LVL73:
 470:../Library/STM32F10x_StdPeriph_Driver/src/stm32f10x_tim.c ****   /* Set the Output Compare Polarity */
 471:../Library/STM32F10x_StdPeriph_Driver/src/stm32f10x_tim.c ****   tmpccer |= (uint16_t)(TIM_OCInitStruct->TIM_OCPolarity << 8);
 18716              		.loc 1 471 0
 18717 002e 0B89     		ldrh	r3, [r1, #8]
 18718 0030 42EA0322 		orr	r2, r2, r3, lsl #8
 18719              	.LVL74:
 472:../Library/STM32F10x_StdPeriph_Driver/src/stm32f10x_tim.c ****   
 473:../Library/STM32F10x_StdPeriph_Driver/src/stm32f10x_tim.c ****   /* Set the Output State */
 474:../Library/STM32F10x_StdPeriph_Driver/src/stm32f10x_tim.c ****   tmpccer |= (uint16_t)(TIM_OCInitStruct->TIM_OutputState << 8);
 18720              		.loc 1 474 0
 18721 0034 4B88     		ldrh	r3, [r1, #2]
 18722 0036 42EA0322 		orr	r2, r2, r3, lsl #8
 18723              	.LVL75:
 18724 003a 92B2     		uxth	r2, r2
 18725              	.LVL76:
 475:../Library/STM32F10x_StdPeriph_Driver/src/stm32f10x_tim.c ****     
 476:../Library/STM32F10x_StdPeriph_Driver/src/stm32f10x_tim.c ****   if((TIMx == TIM1) || (TIMx == TIM8))
 18726              		.loc 1 476 0
 18727 003c 42F60044 		movw	r4, #:lower16:1073818624
 18728 0040 C4F20104 		movt	r4, #:upper16:1073818624
 18729 0044 43F20045 		movw	r5, #:lower16:1073820672
 18730 0048 C4F20105 		movt	r5, #:upper16:1073820672
 18731 004c A842     		cmp	r0, r5
 18732 004e 14BF     		ite	ne
 18733 0050 0025     		movne	r5, #0
 18734 0052 0125     		moveq	r5, #1
 18735 0054 A042     		cmp	r0, r4
 18736 0056 14BF     		ite	ne
 18737 0058 2C46     		movne	r4, r5
 18738 005a 45F00104 		orreq	r4, r5, #1
 18739 005e 14B3     		cbz	r4, .L16
 477:../Library/STM32F10x_StdPeriph_Driver/src/stm32f10x_tim.c ****   {
 478:../Library/STM32F10x_StdPeriph_Driver/src/stm32f10x_tim.c ****     assert_param(IS_TIM_OUTPUTN_STATE(TIM_OCInitStruct->TIM_OutputNState));
 479:../Library/STM32F10x_StdPeriph_Driver/src/stm32f10x_tim.c ****     assert_param(IS_TIM_OCN_POLARITY(TIM_OCInitStruct->TIM_OCNPolarity));
 480:../Library/STM32F10x_StdPeriph_Driver/src/stm32f10x_tim.c ****     assert_param(IS_TIM_OCNIDLE_STATE(TIM_OCInitStruct->TIM_OCNIdleState));
 481:../Library/STM32F10x_StdPeriph_Driver/src/stm32f10x_tim.c ****     assert_param(IS_TIM_OCIDLE_STATE(TIM_OCInitStruct->TIM_OCIdleState));
 482:../Library/STM32F10x_StdPeriph_Driver/src/stm32f10x_tim.c ****     
 483:../Library/STM32F10x_StdPeriph_Driver/src/stm32f10x_tim.c ****     /* Reset the Output N Polarity level */
 484:../Library/STM32F10x_StdPeriph_Driver/src/stm32f10x_tim.c ****     tmpccer &= (uint16_t)(~((uint16_t)TIM_CCER_CC3NP));
 18740              		.loc 1 484 0
 18741 0060 4FF2FF73 		movw	r3, #:lower16:63487
 18742              	.LVL77:
 18743 0064 C0F20003 		movt	r3, #:upper16:63487
 18744              	.LVL78:
 18745 0068 02EA0303 		and	r3, r2, r3
 18746              	.LVL79:
 485:../Library/STM32F10x_StdPeriph_Driver/src/stm32f10x_tim.c ****     /* Set the Output N Polarity */
 486:../Library/STM32F10x_StdPeriph_Driver/src/stm32f10x_tim.c ****     tmpccer |= (uint16_t)(TIM_OCInitStruct->TIM_OCNPolarity << 8);
 18747              		.loc 1 486 0
 18748 006c 4A89     		ldrh	r2, [r1, #10]
 18749 006e 43EA0223 		orr	r3, r3, r2, lsl #8
 18750              	.LVL80:
 487:../Library/STM32F10x_StdPeriph_Driver/src/stm32f10x_tim.c ****     /* Reset the Output N State */
 488:../Library/STM32F10x_StdPeriph_Driver/src/stm32f10x_tim.c ****     tmpccer &= (uint16_t)(~((uint16_t)TIM_CCER_CC3NE));
 18751              		.loc 1 488 0
 18752 0072 4FF6FF32 		movw	r2, #:lower16:64511
 18753              	.LVL81:
 18754 0076 C0F20002 		movt	r2, #:upper16:64511
 18755              	.LVL82:
 18756 007a 03EA0202 		and	r2, r3, r2
 18757              	.LVL83:
 489:../Library/STM32F10x_StdPeriph_Driver/src/stm32f10x_tim.c ****     
 490:../Library/STM32F10x_StdPeriph_Driver/src/stm32f10x_tim.c ****     /* Set the Output N State */
 491:../Library/STM32F10x_StdPeriph_Driver/src/stm32f10x_tim.c ****     tmpccer |= (uint16_t)(TIM_OCInitStruct->TIM_OutputNState << 8);
 18758              		.loc 1 491 0
 18759 007e 8B88     		ldrh	r3, [r1, #4]
 18760 0080 42EA0322 		orr	r2, r2, r3, lsl #8
 18761              	.LVL84:
 18762 0084 92B2     		uxth	r2, r2
 18763              	.LVL85:
 492:../Library/STM32F10x_StdPeriph_Driver/src/stm32f10x_tim.c ****     /* Reset the Ouput Compare and Output Compare N IDLE State */
 493:../Library/STM32F10x_StdPeriph_Driver/src/stm32f10x_tim.c ****     tmpcr2 &= (uint16_t)(~((uint16_t)TIM_CR2_OIS3));
 494:../Library/STM32F10x_StdPeriph_Driver/src/stm32f10x_tim.c ****     tmpcr2 &= (uint16_t)(~((uint16_t)TIM_CR2_OIS3N));
 18764              		.loc 1 494 0
 18765 0086 4CF6FF74 		movw	r4, #:lower16:53247
 18766              	.LVL86:
 18767 008a C0F20004 		movt	r4, #:upper16:53247
 18768              	.LVL87:
 18769 008e 0CEA0404 		and	r4, ip, r4
 18770              	.LVL88:
 495:../Library/STM32F10x_StdPeriph_Driver/src/stm32f10x_tim.c ****     /* Set the Output Idle state */
 496:../Library/STM32F10x_StdPeriph_Driver/src/stm32f10x_tim.c ****     tmpcr2 |= (uint16_t)(TIM_OCInitStruct->TIM_OCIdleState << 4);
 18771              		.loc 1 496 0
 18772 0092 B1F80CC0 		ldrh	ip, [r1, #12]
 18773 0096 44EA0C14 		orr	r4, r4, ip, lsl #4
 18774              	.LVL89:
 497:../Library/STM32F10x_StdPeriph_Driver/src/stm32f10x_tim.c ****     /* Set the Output N Idle state */
 498:../Library/STM32F10x_StdPeriph_Driver/src/stm32f10x_tim.c ****     tmpcr2 |= (uint16_t)(TIM_OCInitStruct->TIM_OCNIdleState << 4);
 18775              		.loc 1 498 0
 18776 009a B1F80EC0 		ldrh	ip, [r1, #14]
 18777 009e 44EA0C1C 		orr	ip, r4, ip, lsl #4
 18778              	.LVL90:
 18779 00a2 1FFA8CFC 		uxth	ip, ip
 18780              	.LVL91:
 18781              	.L16:
 499:../Library/STM32F10x_StdPeriph_Driver/src/stm32f10x_tim.c ****   }
 500:../Library/STM32F10x_StdPeriph_Driver/src/stm32f10x_tim.c ****   /* Write to TIMx CR2 */
 501:../Library/STM32F10x_StdPeriph_Driver/src/stm32f10x_tim.c ****   TIMx->CR2 = tmpcr2;
 18782              		.loc 1 501 0
 18783 00a6 A0F804C0 		strh	ip, [r0, #4]	@ movhi
 18784              		.loc 1 464 0
 18785 00aa 4FF68C73 		movw	r3, #:lower16:65420
 18786              	.LVL92:
 18787 00ae C0F20003 		movt	r3, #:upper16:65420
 18788              	.LVL93:
 18789 00b2 07EA0303 		and	r3, r7, r3
 18790              	.LVL94:
 18791              		.loc 1 466 0
 18792 00b6 43EA0603 		orr	r3, r3, r6
 18793              	.LVL95:
 502:../Library/STM32F10x_StdPeriph_Driver/src/stm32f10x_tim.c ****   
 503:../Library/STM32F10x_StdPeriph_Driver/src/stm32f10x_tim.c ****   /* Write to TIMx CCMR2 */
 504:../Library/STM32F10x_StdPeriph_Driver/src/stm32f10x_tim.c ****   TIMx->CCMR2 = tmpccmrx;
 18794              		.loc 1 504 0
 18795 00ba 8383     		strh	r3, [r0, #28]	@ movhi
 505:../Library/STM32F10x_StdPeriph_Driver/src/stm32f10x_tim.c **** 
 506:../Library/STM32F10x_StdPeriph_Driver/src/stm32f10x_tim.c ****   /* Set the Capture Compare Register value */
 507:../Library/STM32F10x_StdPeriph_Driver/src/stm32f10x_tim.c ****   TIMx->CCR3 = TIM_OCInitStruct->TIM_Pulse;
 18796              		.loc 1 507 0
 18797 00bc CB88     		ldrh	r3, [r1, #6]
 18798              	.LVL96:
 18799 00be 8387     		strh	r3, [r0, #60]	@ movhi
 508:../Library/STM32F10x_StdPeriph_Driver/src/stm32f10x_tim.c ****   
 509:../Library/STM32F10x_StdPeriph_Driver/src/stm32f10x_tim.c ****   /* Write to TIMx CCER */
 510:../Library/STM32F10x_StdPeriph_Driver/src/stm32f10x_tim.c ****   TIMx->CCER = tmpccer;
 18800              		.loc 1 510 0
 18801 00c0 0284     		strh	r2, [r0, #32]	@ movhi
 511:../Library/STM32F10x_StdPeriph_Driver/src/stm32f10x_tim.c **** }
 18802              		.loc 1 511 0
 18803 00c2 F0BC     		pop	{r4, r5, r6, r7}
 18804 00c4 7047     		bx	lr
 18805              		.cfi_endproc
 18806              	.LFE33:
 18808 00c6 00BF     		.section	.text.TIM_OC4Init,"ax",%progbits
 18809              		.align	2
 18810              		.global	TIM_OC4Init
 18811              		.thumb
 18812              		.thumb_func
 18814              	TIM_OC4Init:
 18815              	.LFB34:
 512:../Library/STM32F10x_StdPeriph_Driver/src/stm32f10x_tim.c **** 
 513:../Library/STM32F10x_StdPeriph_Driver/src/stm32f10x_tim.c **** /**
 514:../Library/STM32F10x_StdPeriph_Driver/src/stm32f10x_tim.c ****   * @brief  Initializes the TIMx Channel4 according to the specified
 515:../Library/STM32F10x_StdPeriph_Driver/src/stm32f10x_tim.c ****   *   parameters in the TIM_OCInitStruct.
 516:../Library/STM32F10x_StdPeriph_Driver/src/stm32f10x_tim.c ****   * @param  TIMx: where x can be  1, 2, 3, 4, 5 or 8 to select the TIM peripheral.
 517:../Library/STM32F10x_StdPeriph_Driver/src/stm32f10x_tim.c ****   * @param  TIM_OCInitStruct: pointer to a TIM_OCInitTypeDef structure
 518:../Library/STM32F10x_StdPeriph_Driver/src/stm32f10x_tim.c ****   *   that contains the configuration information for the specified TIM peripheral.
 519:../Library/STM32F10x_StdPeriph_Driver/src/stm32f10x_tim.c ****   * @retval None
 520:../Library/STM32F10x_StdPeriph_Driver/src/stm32f10x_tim.c ****   */
 521:../Library/STM32F10x_StdPeriph_Driver/src/stm32f10x_tim.c **** void TIM_OC4Init(TIM_TypeDef* TIMx, TIM_OCInitTypeDef* TIM_OCInitStruct)
 522:../Library/STM32F10x_StdPeriph_Driver/src/stm32f10x_tim.c **** {
 18816              		.loc 1 522 0
 18817              		.cfi_startproc
 18818              		@ args = 0, pretend = 0, frame = 0
 18819              		@ frame_needed = 0, uses_anonymous_args = 0
 18820              		@ link register save eliminated.
 18821              	.LVL97:
 18822 0000 2DE9F005 		push	{r4, r5, r6, r7, r8, sl}
 18823              	.LCFI4:
 18824              		.cfi_def_cfa_offset 24
 523:../Library/STM32F10x_StdPeriph_Driver/src/stm32f10x_tim.c ****   uint16_t tmpccmrx = 0, tmpccer = 0, tmpcr2 = 0;
 524:../Library/STM32F10x_StdPeriph_Driver/src/stm32f10x_tim.c ****    
 525:../Library/STM32F10x_StdPeriph_Driver/src/stm32f10x_tim.c ****   /* Check the parameters */
 526:../Library/STM32F10x_StdPeriph_Driver/src/stm32f10x_tim.c ****   assert_param(IS_TIM_LIST3_PERIPH(TIMx)); 
 527:../Library/STM32F10x_StdPeriph_Driver/src/stm32f10x_tim.c ****   assert_param(IS_TIM_OC_MODE(TIM_OCInitStruct->TIM_OCMode));
 528:../Library/STM32F10x_StdPeriph_Driver/src/stm32f10x_tim.c ****   assert_param(IS_TIM_OUTPUT_STATE(TIM_OCInitStruct->TIM_OutputState));
 529:../Library/STM32F10x_StdPeriph_Driver/src/stm32f10x_tim.c ****   assert_param(IS_TIM_OC_POLARITY(TIM_OCInitStruct->TIM_OCPolarity));   
 530:../Library/STM32F10x_StdPeriph_Driver/src/stm32f10x_tim.c ****   /* Disable the Channel 2: Reset the CC4E Bit */
 531:../Library/STM32F10x_StdPeriph_Driver/src/stm32f10x_tim.c ****   TIMx->CCER &= (uint16_t)(~((uint16_t)TIM_CCER_CC4E));
 18825              		.loc 1 531 0
 18826 0004 038C     		ldrh	r3, [r0, #32]
 18827 0006 23F48053 		bic	r3, r3, #4096
 18828 000a 4FEA0343 		lsl	r3, r3, #16
 18829 000e 4FEA1343 		lsr	r3, r3, #16
 18830 0012 0384     		strh	r3, [r0, #32]	@ movhi
 532:../Library/STM32F10x_StdPeriph_Driver/src/stm32f10x_tim.c ****   
 533:../Library/STM32F10x_StdPeriph_Driver/src/stm32f10x_tim.c ****   /* Get the TIMx CCER register value */
 534:../Library/STM32F10x_StdPeriph_Driver/src/stm32f10x_tim.c ****   tmpccer = TIMx->CCER;
 18831              		.loc 1 534 0
 18832 0014 B0F82080 		ldrh	r8, [r0, #32]
 18833              		.cfi_offset 10, -4
 18834              		.cfi_offset 8, -8
 18835              		.cfi_offset 7, -12
 18836              		.cfi_offset 6, -16
 18837              		.cfi_offset 5, -20
 18838              		.cfi_offset 4, -24
 18839 0018 1FFA88F8 		uxth	r8, r8
 18840              	.LVL98:
 535:../Library/STM32F10x_StdPeriph_Driver/src/stm32f10x_tim.c ****   /* Get the TIMx CR2 register value */
 536:../Library/STM32F10x_StdPeriph_Driver/src/stm32f10x_tim.c ****   tmpcr2 =  TIMx->CR2;
 18841              		.loc 1 536 0
 18842 001c 8588     		ldrh	r5, [r0, #4]
 18843 001e ADB2     		uxth	r5, r5
 18844              	.LVL99:
 537:../Library/STM32F10x_StdPeriph_Driver/src/stm32f10x_tim.c ****   
 538:../Library/STM32F10x_StdPeriph_Driver/src/stm32f10x_tim.c ****   /* Get the TIMx CCMR2 register value */
 539:../Library/STM32F10x_StdPeriph_Driver/src/stm32f10x_tim.c ****   tmpccmrx = TIMx->CCMR2;
 18845              		.loc 1 539 0
 18846 0020 B0F81CA0 		ldrh	sl, [r0, #28]
 18847 0024 1FFA8AFA 		uxth	sl, sl
 18848              	.LVL100:
 540:../Library/STM32F10x_StdPeriph_Driver/src/stm32f10x_tim.c ****     
 541:../Library/STM32F10x_StdPeriph_Driver/src/stm32f10x_tim.c ****   /* Reset the Output Compare mode and Capture/Compare selection Bits */
 542:../Library/STM32F10x_StdPeriph_Driver/src/stm32f10x_tim.c ****   tmpccmrx &= (uint16_t)(~((uint16_t)TIM_CCMR2_OC4M));
 543:../Library/STM32F10x_StdPeriph_Driver/src/stm32f10x_tim.c ****   tmpccmrx &= (uint16_t)(~((uint16_t)TIM_CCMR2_CC4S));
 544:../Library/STM32F10x_StdPeriph_Driver/src/stm32f10x_tim.c ****   
 545:../Library/STM32F10x_StdPeriph_Driver/src/stm32f10x_tim.c ****   /* Select the Output Compare Mode */
 546:../Library/STM32F10x_StdPeriph_Driver/src/stm32f10x_tim.c ****   tmpccmrx |= (uint16_t)(TIM_OCInitStruct->TIM_OCMode << 8);
 18849              		.loc 1 546 0
 18850 0028 0B88     		ldrh	r3, [r1, #0]
 547:../Library/STM32F10x_StdPeriph_Driver/src/stm32f10x_tim.c ****   
 548:../Library/STM32F10x_StdPeriph_Driver/src/stm32f10x_tim.c ****   /* Reset the Output Polarity level */
 549:../Library/STM32F10x_StdPeriph_Driver/src/stm32f10x_tim.c ****   tmpccer &= (uint16_t)(~((uint16_t)TIM_CCER_CC4P));
 550:../Library/STM32F10x_StdPeriph_Driver/src/stm32f10x_tim.c ****   /* Set the Output Compare Polarity */
 551:../Library/STM32F10x_StdPeriph_Driver/src/stm32f10x_tim.c ****   tmpccer |= (uint16_t)(TIM_OCInitStruct->TIM_OCPolarity << 12);
 18851              		.loc 1 551 0
 18852 002a 0F89     		ldrh	r7, [r1, #8]
 552:../Library/STM32F10x_StdPeriph_Driver/src/stm32f10x_tim.c ****   
 553:../Library/STM32F10x_StdPeriph_Driver/src/stm32f10x_tim.c ****   /* Set the Output State */
 554:../Library/STM32F10x_StdPeriph_Driver/src/stm32f10x_tim.c ****   tmpccer |= (uint16_t)(TIM_OCInitStruct->TIM_OutputState << 12);
 18853              		.loc 1 554 0
 18854 002c 4E88     		ldrh	r6, [r1, #2]
 555:../Library/STM32F10x_StdPeriph_Driver/src/stm32f10x_tim.c ****     
 556:../Library/STM32F10x_StdPeriph_Driver/src/stm32f10x_tim.c ****   if((TIMx == TIM1) || (TIMx == TIM8))
 18855              		.loc 1 556 0
 18856 002e 42F6004C 		movw	ip, #:lower16:1073818624
 18857 0032 C4F2010C 		movt	ip, #:upper16:1073818624
 18858 0036 43F20044 		movw	r4, #:lower16:1073820672
 18859 003a C4F20104 		movt	r4, #:upper16:1073820672
 18860 003e A042     		cmp	r0, r4
 18861 0040 14BF     		ite	ne
 18862 0042 0024     		movne	r4, #0
 18863 0044 0124     		moveq	r4, #1
 18864 0046 6045     		cmp	r0, ip
 18865 0048 08BF     		it	eq
 18866 004a 44F00104 		orreq	r4, r4, #1
 18867 004e 54B1     		cbz	r4, .L19
 557:../Library/STM32F10x_StdPeriph_Driver/src/stm32f10x_tim.c ****   {
 558:../Library/STM32F10x_StdPeriph_Driver/src/stm32f10x_tim.c ****     assert_param(IS_TIM_OCIDLE_STATE(TIM_OCInitStruct->TIM_OCIdleState));
 559:../Library/STM32F10x_StdPeriph_Driver/src/stm32f10x_tim.c ****     /* Reset the Ouput Compare IDLE State */
 560:../Library/STM32F10x_StdPeriph_Driver/src/stm32f10x_tim.c ****     tmpcr2 &= (uint16_t)(~((uint16_t)TIM_CR2_OIS4));
 18868              		.loc 1 560 0
 18869 0050 4BF6FF7C 		movw	ip, #:lower16:49151
 18870              	.LVL101:
 18871 0054 C0F2000C 		movt	ip, #:upper16:49151
 18872              	.LVL102:
 18873 0058 05EA0C0C 		and	ip, r5, ip
 18874              	.LVL103:
 561:../Library/STM32F10x_StdPeriph_Driver/src/stm32f10x_tim.c ****     /* Set the Output Idle state */
 562:../Library/STM32F10x_StdPeriph_Driver/src/stm32f10x_tim.c ****     tmpcr2 |= (uint16_t)(TIM_OCInitStruct->TIM_OCIdleState << 6);
 18875              		.loc 1 562 0
 18876 005c 8D89     		ldrh	r5, [r1, #12]
 18877 005e 4CEA851C 		orr	ip, ip, r5, lsl #6
 18878              	.LVL104:
 18879 0062 1FFA8CF5 		uxth	r5, ip
 18880              	.LVL105:
 18881              	.L19:
 563:../Library/STM32F10x_StdPeriph_Driver/src/stm32f10x_tim.c ****   }
 564:../Library/STM32F10x_StdPeriph_Driver/src/stm32f10x_tim.c ****   /* Write to TIMx CR2 */
 565:../Library/STM32F10x_StdPeriph_Driver/src/stm32f10x_tim.c ****   TIMx->CR2 = tmpcr2;
 18882              		.loc 1 565 0
 18883 0066 8580     		strh	r5, [r0, #4]	@ movhi
 18884              		.loc 1 543 0
 18885 0068 48F6FF42 		movw	r2, #:lower16:36095
 18886              	.LVL106:
 18887 006c C0F20002 		movt	r2, #:upper16:36095
 18888              	.LVL107:
 18889 0070 0AEA0202 		and	r2, sl, r2
 18890              	.LVL108:
 18891              		.loc 1 546 0
 18892 0074 42EA0322 		orr	r2, r2, r3, lsl #8
 18893              	.LVL109:
 18894 0078 92B2     		uxth	r2, r2
 18895              	.LVL110:
 566:../Library/STM32F10x_StdPeriph_Driver/src/stm32f10x_tim.c ****   
 567:../Library/STM32F10x_StdPeriph_Driver/src/stm32f10x_tim.c ****   /* Write to TIMx CCMR2 */  
 568:../Library/STM32F10x_StdPeriph_Driver/src/stm32f10x_tim.c ****   TIMx->CCMR2 = tmpccmrx;
 18896              		.loc 1 568 0
 18897 007a 8283     		strh	r2, [r0, #28]	@ movhi
 569:../Library/STM32F10x_StdPeriph_Driver/src/stm32f10x_tim.c **** 
 570:../Library/STM32F10x_StdPeriph_Driver/src/stm32f10x_tim.c ****   /* Set the Capture Compare Register value */
 571:../Library/STM32F10x_StdPeriph_Driver/src/stm32f10x_tim.c ****   TIMx->CCR4 = TIM_OCInitStruct->TIM_Pulse;
 18898              		.loc 1 571 0
 18899 007c CB88     		ldrh	r3, [r1, #6]
 18900 007e A0F84030 		strh	r3, [r0, #64]	@ movhi
 18901              		.loc 1 549 0
 18902 0082 4DF6FF73 		movw	r3, #:lower16:57343
 18903              	.LVL111:
 18904 0086 C0F20003 		movt	r3, #:upper16:57343
 18905              	.LVL112:
 18906 008a 08EA0303 		and	r3, r8, r3
 18907              	.LVL113:
 18908              		.loc 1 551 0
 18909 008e 43EA0733 		orr	r3, r3, r7, lsl #12
 18910              	.LVL114:
 18911              		.loc 1 554 0
 18912 0092 43EA0633 		orr	r3, r3, r6, lsl #12
 18913              	.LVL115:
 18914 0096 9BB2     		uxth	r3, r3
 18915              	.LVL116:
 572:../Library/STM32F10x_StdPeriph_Driver/src/stm32f10x_tim.c ****   
 573:../Library/STM32F10x_StdPeriph_Driver/src/stm32f10x_tim.c ****   /* Write to TIMx CCER */
 574:../Library/STM32F10x_StdPeriph_Driver/src/stm32f10x_tim.c ****   TIMx->CCER = tmpccer;
 18916              		.loc 1 574 0
 18917 0098 0384     		strh	r3, [r0, #32]	@ movhi
 575:../Library/STM32F10x_StdPeriph_Driver/src/stm32f10x_tim.c **** }
 18918              		.loc 1 575 0
 18919 009a BDE8F005 		pop	{r4, r5, r6, r7, r8, sl}
 18920 009e 7047     		bx	lr
 18921              		.cfi_endproc
 18922              	.LFE34:
 18924              		.section	.text.TIM_BDTRConfig,"ax",%progbits
 18925              		.align	2
 18926              		.global	TIM_BDTRConfig
 18927              		.thumb
 18928              		.thumb_func
 18930              	TIM_BDTRConfig:
 18931              	.LFB37:
 576:../Library/STM32F10x_StdPeriph_Driver/src/stm32f10x_tim.c **** 
 577:../Library/STM32F10x_StdPeriph_Driver/src/stm32f10x_tim.c **** /**
 578:../Library/STM32F10x_StdPeriph_Driver/src/stm32f10x_tim.c ****   * @brief  Initializes the TIM peripheral according to the specified
 579:../Library/STM32F10x_StdPeriph_Driver/src/stm32f10x_tim.c ****   *   parameters in the TIM_ICInitStruct.
 580:../Library/STM32F10x_StdPeriph_Driver/src/stm32f10x_tim.c ****   * @param  TIMx: where x can be  1 to 17 except 6 and 7 to select the TIM peripheral.
 581:../Library/STM32F10x_StdPeriph_Driver/src/stm32f10x_tim.c ****   * @param  TIM_ICInitStruct: pointer to a TIM_ICInitTypeDef structure
 582:../Library/STM32F10x_StdPeriph_Driver/src/stm32f10x_tim.c ****   *   that contains the configuration information for the specified TIM peripheral.
 583:../Library/STM32F10x_StdPeriph_Driver/src/stm32f10x_tim.c ****   * @retval None
 584:../Library/STM32F10x_StdPeriph_Driver/src/stm32f10x_tim.c ****   */
 585:../Library/STM32F10x_StdPeriph_Driver/src/stm32f10x_tim.c **** void TIM_ICInit(TIM_TypeDef* TIMx, TIM_ICInitTypeDef* TIM_ICInitStruct)
 586:../Library/STM32F10x_StdPeriph_Driver/src/stm32f10x_tim.c **** {
 587:../Library/STM32F10x_StdPeriph_Driver/src/stm32f10x_tim.c ****   /* Check the parameters */
 588:../Library/STM32F10x_StdPeriph_Driver/src/stm32f10x_tim.c ****   assert_param(IS_TIM_CHANNEL(TIM_ICInitStruct->TIM_Channel));
 589:../Library/STM32F10x_StdPeriph_Driver/src/stm32f10x_tim.c ****   assert_param(IS_TIM_IC_POLARITY(TIM_ICInitStruct->TIM_ICPolarity));
 590:../Library/STM32F10x_StdPeriph_Driver/src/stm32f10x_tim.c ****   assert_param(IS_TIM_IC_SELECTION(TIM_ICInitStruct->TIM_ICSelection));
 591:../Library/STM32F10x_StdPeriph_Driver/src/stm32f10x_tim.c ****   assert_param(IS_TIM_IC_PRESCALER(TIM_ICInitStruct->TIM_ICPrescaler));
 592:../Library/STM32F10x_StdPeriph_Driver/src/stm32f10x_tim.c ****   assert_param(IS_TIM_IC_FILTER(TIM_ICInitStruct->TIM_ICFilter));
 593:../Library/STM32F10x_StdPeriph_Driver/src/stm32f10x_tim.c ****   
 594:../Library/STM32F10x_StdPeriph_Driver/src/stm32f10x_tim.c ****   if (TIM_ICInitStruct->TIM_Channel == TIM_Channel_1)
 595:../Library/STM32F10x_StdPeriph_Driver/src/stm32f10x_tim.c ****   {
 596:../Library/STM32F10x_StdPeriph_Driver/src/stm32f10x_tim.c ****     assert_param(IS_TIM_LIST8_PERIPH(TIMx));
 597:../Library/STM32F10x_StdPeriph_Driver/src/stm32f10x_tim.c ****     /* TI1 Configuration */
 598:../Library/STM32F10x_StdPeriph_Driver/src/stm32f10x_tim.c ****     TI1_Config(TIMx, TIM_ICInitStruct->TIM_ICPolarity,
 599:../Library/STM32F10x_StdPeriph_Driver/src/stm32f10x_tim.c ****                TIM_ICInitStruct->TIM_ICSelection,
 600:../Library/STM32F10x_StdPeriph_Driver/src/stm32f10x_tim.c ****                TIM_ICInitStruct->TIM_ICFilter);
 601:../Library/STM32F10x_StdPeriph_Driver/src/stm32f10x_tim.c ****     /* Set the Input Capture Prescaler value */
 602:../Library/STM32F10x_StdPeriph_Driver/src/stm32f10x_tim.c ****     TIM_SetIC1Prescaler(TIMx, TIM_ICInitStruct->TIM_ICPrescaler);
 603:../Library/STM32F10x_StdPeriph_Driver/src/stm32f10x_tim.c ****   }
 604:../Library/STM32F10x_StdPeriph_Driver/src/stm32f10x_tim.c ****   else if (TIM_ICInitStruct->TIM_Channel == TIM_Channel_2)
 605:../Library/STM32F10x_StdPeriph_Driver/src/stm32f10x_tim.c ****   {
 606:../Library/STM32F10x_StdPeriph_Driver/src/stm32f10x_tim.c ****     assert_param(IS_TIM_LIST6_PERIPH(TIMx));
 607:../Library/STM32F10x_StdPeriph_Driver/src/stm32f10x_tim.c ****     /* TI2 Configuration */
 608:../Library/STM32F10x_StdPeriph_Driver/src/stm32f10x_tim.c ****     TI2_Config(TIMx, TIM_ICInitStruct->TIM_ICPolarity,
 609:../Library/STM32F10x_StdPeriph_Driver/src/stm32f10x_tim.c ****                TIM_ICInitStruct->TIM_ICSelection,
 610:../Library/STM32F10x_StdPeriph_Driver/src/stm32f10x_tim.c ****                TIM_ICInitStruct->TIM_ICFilter);
 611:../Library/STM32F10x_StdPeriph_Driver/src/stm32f10x_tim.c ****     /* Set the Input Capture Prescaler value */
 612:../Library/STM32F10x_StdPeriph_Driver/src/stm32f10x_tim.c ****     TIM_SetIC2Prescaler(TIMx, TIM_ICInitStruct->TIM_ICPrescaler);
 613:../Library/STM32F10x_StdPeriph_Driver/src/stm32f10x_tim.c ****   }
 614:../Library/STM32F10x_StdPeriph_Driver/src/stm32f10x_tim.c ****   else if (TIM_ICInitStruct->TIM_Channel == TIM_Channel_3)
 615:../Library/STM32F10x_StdPeriph_Driver/src/stm32f10x_tim.c ****   {
 616:../Library/STM32F10x_StdPeriph_Driver/src/stm32f10x_tim.c ****     assert_param(IS_TIM_LIST3_PERIPH(TIMx));
 617:../Library/STM32F10x_StdPeriph_Driver/src/stm32f10x_tim.c ****     /* TI3 Configuration */
 618:../Library/STM32F10x_StdPeriph_Driver/src/stm32f10x_tim.c ****     TI3_Config(TIMx,  TIM_ICInitStruct->TIM_ICPolarity,
 619:../Library/STM32F10x_StdPeriph_Driver/src/stm32f10x_tim.c ****                TIM_ICInitStruct->TIM_ICSelection,
 620:../Library/STM32F10x_StdPeriph_Driver/src/stm32f10x_tim.c ****                TIM_ICInitStruct->TIM_ICFilter);
 621:../Library/STM32F10x_StdPeriph_Driver/src/stm32f10x_tim.c ****     /* Set the Input Capture Prescaler value */
 622:../Library/STM32F10x_StdPeriph_Driver/src/stm32f10x_tim.c ****     TIM_SetIC3Prescaler(TIMx, TIM_ICInitStruct->TIM_ICPrescaler);
 623:../Library/STM32F10x_StdPeriph_Driver/src/stm32f10x_tim.c ****   }
 624:../Library/STM32F10x_StdPeriph_Driver/src/stm32f10x_tim.c ****   else
 625:../Library/STM32F10x_StdPeriph_Driver/src/stm32f10x_tim.c ****   {
 626:../Library/STM32F10x_StdPeriph_Driver/src/stm32f10x_tim.c ****     assert_param(IS_TIM_LIST3_PERIPH(TIMx));
 627:../Library/STM32F10x_StdPeriph_Driver/src/stm32f10x_tim.c ****     /* TI4 Configuration */
 628:../Library/STM32F10x_StdPeriph_Driver/src/stm32f10x_tim.c ****     TI4_Config(TIMx, TIM_ICInitStruct->TIM_ICPolarity,
 629:../Library/STM32F10x_StdPeriph_Driver/src/stm32f10x_tim.c ****                TIM_ICInitStruct->TIM_ICSelection,
 630:../Library/STM32F10x_StdPeriph_Driver/src/stm32f10x_tim.c ****                TIM_ICInitStruct->TIM_ICFilter);
 631:../Library/STM32F10x_StdPeriph_Driver/src/stm32f10x_tim.c ****     /* Set the Input Capture Prescaler value */
 632:../Library/STM32F10x_StdPeriph_Driver/src/stm32f10x_tim.c ****     TIM_SetIC4Prescaler(TIMx, TIM_ICInitStruct->TIM_ICPrescaler);
 633:../Library/STM32F10x_StdPeriph_Driver/src/stm32f10x_tim.c ****   }
 634:../Library/STM32F10x_StdPeriph_Driver/src/stm32f10x_tim.c **** }
 635:../Library/STM32F10x_StdPeriph_Driver/src/stm32f10x_tim.c **** 
 636:../Library/STM32F10x_StdPeriph_Driver/src/stm32f10x_tim.c **** /**
 637:../Library/STM32F10x_StdPeriph_Driver/src/stm32f10x_tim.c ****   * @brief  Configures the TIM peripheral according to the specified
 638:../Library/STM32F10x_StdPeriph_Driver/src/stm32f10x_tim.c ****   *   parameters in the TIM_ICInitStruct to measure an external PWM signal.
 639:../Library/STM32F10x_StdPeriph_Driver/src/stm32f10x_tim.c ****   * @param  TIMx: where x can be  1, 2, 3, 4, 5, 8, 9, 12 or 15 to select the TIM peripheral.
 640:../Library/STM32F10x_StdPeriph_Driver/src/stm32f10x_tim.c ****   * @param  TIM_ICInitStruct: pointer to a TIM_ICInitTypeDef structure
 641:../Library/STM32F10x_StdPeriph_Driver/src/stm32f10x_tim.c ****   *   that contains the configuration information for the specified TIM peripheral.
 642:../Library/STM32F10x_StdPeriph_Driver/src/stm32f10x_tim.c ****   * @retval None
 643:../Library/STM32F10x_StdPeriph_Driver/src/stm32f10x_tim.c ****   */
 644:../Library/STM32F10x_StdPeriph_Driver/src/stm32f10x_tim.c **** void TIM_PWMIConfig(TIM_TypeDef* TIMx, TIM_ICInitTypeDef* TIM_ICInitStruct)
 645:../Library/STM32F10x_StdPeriph_Driver/src/stm32f10x_tim.c **** {
 646:../Library/STM32F10x_StdPeriph_Driver/src/stm32f10x_tim.c ****   uint16_t icoppositepolarity = TIM_ICPolarity_Rising;
 647:../Library/STM32F10x_StdPeriph_Driver/src/stm32f10x_tim.c ****   uint16_t icoppositeselection = TIM_ICSelection_DirectTI;
 648:../Library/STM32F10x_StdPeriph_Driver/src/stm32f10x_tim.c ****   /* Check the parameters */
 649:../Library/STM32F10x_StdPeriph_Driver/src/stm32f10x_tim.c ****   assert_param(IS_TIM_LIST6_PERIPH(TIMx));
 650:../Library/STM32F10x_StdPeriph_Driver/src/stm32f10x_tim.c ****   /* Select the Opposite Input Polarity */
 651:../Library/STM32F10x_StdPeriph_Driver/src/stm32f10x_tim.c ****   if (TIM_ICInitStruct->TIM_ICPolarity == TIM_ICPolarity_Rising)
 652:../Library/STM32F10x_StdPeriph_Driver/src/stm32f10x_tim.c ****   {
 653:../Library/STM32F10x_StdPeriph_Driver/src/stm32f10x_tim.c ****     icoppositepolarity = TIM_ICPolarity_Falling;
 654:../Library/STM32F10x_StdPeriph_Driver/src/stm32f10x_tim.c ****   }
 655:../Library/STM32F10x_StdPeriph_Driver/src/stm32f10x_tim.c ****   else
 656:../Library/STM32F10x_StdPeriph_Driver/src/stm32f10x_tim.c ****   {
 657:../Library/STM32F10x_StdPeriph_Driver/src/stm32f10x_tim.c ****     icoppositepolarity = TIM_ICPolarity_Rising;
 658:../Library/STM32F10x_StdPeriph_Driver/src/stm32f10x_tim.c ****   }
 659:../Library/STM32F10x_StdPeriph_Driver/src/stm32f10x_tim.c ****   /* Select the Opposite Input */
 660:../Library/STM32F10x_StdPeriph_Driver/src/stm32f10x_tim.c ****   if (TIM_ICInitStruct->TIM_ICSelection == TIM_ICSelection_DirectTI)
 661:../Library/STM32F10x_StdPeriph_Driver/src/stm32f10x_tim.c ****   {
 662:../Library/STM32F10x_StdPeriph_Driver/src/stm32f10x_tim.c ****     icoppositeselection = TIM_ICSelection_IndirectTI;
 663:../Library/STM32F10x_StdPeriph_Driver/src/stm32f10x_tim.c ****   }
 664:../Library/STM32F10x_StdPeriph_Driver/src/stm32f10x_tim.c ****   else
 665:../Library/STM32F10x_StdPeriph_Driver/src/stm32f10x_tim.c ****   {
 666:../Library/STM32F10x_StdPeriph_Driver/src/stm32f10x_tim.c ****     icoppositeselection = TIM_ICSelection_DirectTI;
 667:../Library/STM32F10x_StdPeriph_Driver/src/stm32f10x_tim.c ****   }
 668:../Library/STM32F10x_StdPeriph_Driver/src/stm32f10x_tim.c ****   if (TIM_ICInitStruct->TIM_Channel == TIM_Channel_1)
 669:../Library/STM32F10x_StdPeriph_Driver/src/stm32f10x_tim.c ****   {
 670:../Library/STM32F10x_StdPeriph_Driver/src/stm32f10x_tim.c ****     /* TI1 Configuration */
 671:../Library/STM32F10x_StdPeriph_Driver/src/stm32f10x_tim.c ****     TI1_Config(TIMx, TIM_ICInitStruct->TIM_ICPolarity, TIM_ICInitStruct->TIM_ICSelection,
 672:../Library/STM32F10x_StdPeriph_Driver/src/stm32f10x_tim.c ****                TIM_ICInitStruct->TIM_ICFilter);
 673:../Library/STM32F10x_StdPeriph_Driver/src/stm32f10x_tim.c ****     /* Set the Input Capture Prescaler value */
 674:../Library/STM32F10x_StdPeriph_Driver/src/stm32f10x_tim.c ****     TIM_SetIC1Prescaler(TIMx, TIM_ICInitStruct->TIM_ICPrescaler);
 675:../Library/STM32F10x_StdPeriph_Driver/src/stm32f10x_tim.c ****     /* TI2 Configuration */
 676:../Library/STM32F10x_StdPeriph_Driver/src/stm32f10x_tim.c ****     TI2_Config(TIMx, icoppositepolarity, icoppositeselection, TIM_ICInitStruct->TIM_ICFilter);
 677:../Library/STM32F10x_StdPeriph_Driver/src/stm32f10x_tim.c ****     /* Set the Input Capture Prescaler value */
 678:../Library/STM32F10x_StdPeriph_Driver/src/stm32f10x_tim.c ****     TIM_SetIC2Prescaler(TIMx, TIM_ICInitStruct->TIM_ICPrescaler);
 679:../Library/STM32F10x_StdPeriph_Driver/src/stm32f10x_tim.c ****   }
 680:../Library/STM32F10x_StdPeriph_Driver/src/stm32f10x_tim.c ****   else
 681:../Library/STM32F10x_StdPeriph_Driver/src/stm32f10x_tim.c ****   { 
 682:../Library/STM32F10x_StdPeriph_Driver/src/stm32f10x_tim.c ****     /* TI2 Configuration */
 683:../Library/STM32F10x_StdPeriph_Driver/src/stm32f10x_tim.c ****     TI2_Config(TIMx, TIM_ICInitStruct->TIM_ICPolarity, TIM_ICInitStruct->TIM_ICSelection,
 684:../Library/STM32F10x_StdPeriph_Driver/src/stm32f10x_tim.c ****                TIM_ICInitStruct->TIM_ICFilter);
 685:../Library/STM32F10x_StdPeriph_Driver/src/stm32f10x_tim.c ****     /* Set the Input Capture Prescaler value */
 686:../Library/STM32F10x_StdPeriph_Driver/src/stm32f10x_tim.c ****     TIM_SetIC2Prescaler(TIMx, TIM_ICInitStruct->TIM_ICPrescaler);
 687:../Library/STM32F10x_StdPeriph_Driver/src/stm32f10x_tim.c ****     /* TI1 Configuration */
 688:../Library/STM32F10x_StdPeriph_Driver/src/stm32f10x_tim.c ****     TI1_Config(TIMx, icoppositepolarity, icoppositeselection, TIM_ICInitStruct->TIM_ICFilter);
 689:../Library/STM32F10x_StdPeriph_Driver/src/stm32f10x_tim.c ****     /* Set the Input Capture Prescaler value */
 690:../Library/STM32F10x_StdPeriph_Driver/src/stm32f10x_tim.c ****     TIM_SetIC1Prescaler(TIMx, TIM_ICInitStruct->TIM_ICPrescaler);
 691:../Library/STM32F10x_StdPeriph_Driver/src/stm32f10x_tim.c ****   }
 692:../Library/STM32F10x_StdPeriph_Driver/src/stm32f10x_tim.c **** }
 693:../Library/STM32F10x_StdPeriph_Driver/src/stm32f10x_tim.c **** 
 694:../Library/STM32F10x_StdPeriph_Driver/src/stm32f10x_tim.c **** /**
 695:../Library/STM32F10x_StdPeriph_Driver/src/stm32f10x_tim.c ****   * @brief  Configures the: Break feature, dead time, Lock level, the OSSI,
 696:../Library/STM32F10x_StdPeriph_Driver/src/stm32f10x_tim.c ****   *   the OSSR State and the AOE(automatic output enable).
 697:../Library/STM32F10x_StdPeriph_Driver/src/stm32f10x_tim.c ****   * @param  TIMx: where x can be  1 or 8 to select the TIM 
 698:../Library/STM32F10x_StdPeriph_Driver/src/stm32f10x_tim.c ****   * @param  TIM_BDTRInitStruct: pointer to a TIM_BDTRInitTypeDef structure that
 699:../Library/STM32F10x_StdPeriph_Driver/src/stm32f10x_tim.c ****   *   contains the BDTR Register configuration  information for the TIM peripheral.
 700:../Library/STM32F10x_StdPeriph_Driver/src/stm32f10x_tim.c ****   * @retval None
 701:../Library/STM32F10x_StdPeriph_Driver/src/stm32f10x_tim.c ****   */
 702:../Library/STM32F10x_StdPeriph_Driver/src/stm32f10x_tim.c **** void TIM_BDTRConfig(TIM_TypeDef* TIMx, TIM_BDTRInitTypeDef *TIM_BDTRInitStruct)
 703:../Library/STM32F10x_StdPeriph_Driver/src/stm32f10x_tim.c **** {
 18932              		.loc 1 703 0
 18933              		.cfi_startproc
 18934              		@ args = 0, pretend = 0, frame = 0
 18935              		@ frame_needed = 0, uses_anonymous_args = 0
 18936              		@ link register save eliminated.
 18937              	.LVL117:
 704:../Library/STM32F10x_StdPeriph_Driver/src/stm32f10x_tim.c ****   /* Check the parameters */
 705:../Library/STM32F10x_StdPeriph_Driver/src/stm32f10x_tim.c ****   assert_param(IS_TIM_LIST2_PERIPH(TIMx));
 706:../Library/STM32F10x_StdPeriph_Driver/src/stm32f10x_tim.c ****   assert_param(IS_TIM_OSSR_STATE(TIM_BDTRInitStruct->TIM_OSSRState));
 707:../Library/STM32F10x_StdPeriph_Driver/src/stm32f10x_tim.c ****   assert_param(IS_TIM_OSSI_STATE(TIM_BDTRInitStruct->TIM_OSSIState));
 708:../Library/STM32F10x_StdPeriph_Driver/src/stm32f10x_tim.c ****   assert_param(IS_TIM_LOCK_LEVEL(TIM_BDTRInitStruct->TIM_LOCKLevel));
 709:../Library/STM32F10x_StdPeriph_Driver/src/stm32f10x_tim.c ****   assert_param(IS_TIM_BREAK_STATE(TIM_BDTRInitStruct->TIM_Break));
 710:../Library/STM32F10x_StdPeriph_Driver/src/stm32f10x_tim.c ****   assert_param(IS_TIM_BREAK_POLARITY(TIM_BDTRInitStruct->TIM_BreakPolarity));
 711:../Library/STM32F10x_StdPeriph_Driver/src/stm32f10x_tim.c ****   assert_param(IS_TIM_AUTOMATIC_OUTPUT_STATE(TIM_BDTRInitStruct->TIM_AutomaticOutput));
 712:../Library/STM32F10x_StdPeriph_Driver/src/stm32f10x_tim.c ****   /* Set the Lock level, the Break enable Bit and the Ploarity, the OSSR State,
 713:../Library/STM32F10x_StdPeriph_Driver/src/stm32f10x_tim.c ****      the OSSI State, the dead time value and the Automatic Output Enable Bit */
 714:../Library/STM32F10x_StdPeriph_Driver/src/stm32f10x_tim.c ****   TIMx->BDTR = (uint32_t)TIM_BDTRInitStruct->TIM_OSSRState | TIM_BDTRInitStruct->TIM_OSSIState |
 18938              		.loc 1 714 0
 18939 0000 4A88     		ldrh	r2, [r1, #2]
 18940 0002 0B88     		ldrh	r3, [r1, #0]
 18941 0004 42EA0303 		orr	r3, r2, r3
 18942 0008 8A88     		ldrh	r2, [r1, #4]
 18943 000a 43EA0203 		orr	r3, r3, r2
 18944 000e CA88     		ldrh	r2, [r1, #6]
 18945 0010 43EA0203 		orr	r3, r3, r2
 18946 0014 0A89     		ldrh	r2, [r1, #8]
 18947 0016 43EA0203 		orr	r3, r3, r2
 18948 001a 4A89     		ldrh	r2, [r1, #10]
 18949 001c 43EA0203 		orr	r3, r3, r2
 18950 0020 8A89     		ldrh	r2, [r1, #12]
 18951 0022 43EA0203 		orr	r3, r3, r2
 18952 0026 9BB2     		uxth	r3, r3
 18953 0028 A0F84430 		strh	r3, [r0, #68]	@ movhi
 715:../Library/STM32F10x_StdPeriph_Driver/src/stm32f10x_tim.c ****              TIM_BDTRInitStruct->TIM_LOCKLevel | TIM_BDTRInitStruct->TIM_DeadTime |
 716:../Library/STM32F10x_StdPeriph_Driver/src/stm32f10x_tim.c ****              TIM_BDTRInitStruct->TIM_Break | TIM_BDTRInitStruct->TIM_BreakPolarity |
 717:../Library/STM32F10x_StdPeriph_Driver/src/stm32f10x_tim.c ****              TIM_BDTRInitStruct->TIM_AutomaticOutput;
 718:../Library/STM32F10x_StdPeriph_Driver/src/stm32f10x_tim.c **** }
 18954              		.loc 1 718 0
 18955 002c 7047     		bx	lr
 18956              		.cfi_endproc
 18957              	.LFE37:
 18959 002e 00BF     		.section	.text.TIM_TimeBaseStructInit,"ax",%progbits
 18960              		.align	2
 18961              		.global	TIM_TimeBaseStructInit
 18962              		.thumb
 18963              		.thumb_func
 18965              	TIM_TimeBaseStructInit:
 18966              	.LFB38:
 719:../Library/STM32F10x_StdPeriph_Driver/src/stm32f10x_tim.c **** 
 720:../Library/STM32F10x_StdPeriph_Driver/src/stm32f10x_tim.c **** /**
 721:../Library/STM32F10x_StdPeriph_Driver/src/stm32f10x_tim.c ****   * @brief  Fills each TIM_TimeBaseInitStruct member with its default value.
 722:../Library/STM32F10x_StdPeriph_Driver/src/stm32f10x_tim.c ****   * @param  TIM_TimeBaseInitStruct : pointer to a TIM_TimeBaseInitTypeDef
 723:../Library/STM32F10x_StdPeriph_Driver/src/stm32f10x_tim.c ****   *   structure which will be initialized.
 724:../Library/STM32F10x_StdPeriph_Driver/src/stm32f10x_tim.c ****   * @retval None
 725:../Library/STM32F10x_StdPeriph_Driver/src/stm32f10x_tim.c ****   */
 726:../Library/STM32F10x_StdPeriph_Driver/src/stm32f10x_tim.c **** void TIM_TimeBaseStructInit(TIM_TimeBaseInitTypeDef* TIM_TimeBaseInitStruct)
 727:../Library/STM32F10x_StdPeriph_Driver/src/stm32f10x_tim.c **** {
 18967              		.loc 1 727 0
 18968              		.cfi_startproc
 18969              		@ args = 0, pretend = 0, frame = 0
 18970              		@ frame_needed = 0, uses_anonymous_args = 0
 18971              		@ link register save eliminated.
 18972              	.LVL118:
 728:../Library/STM32F10x_StdPeriph_Driver/src/stm32f10x_tim.c ****   /* Set the default configuration */
 729:../Library/STM32F10x_StdPeriph_Driver/src/stm32f10x_tim.c ****   TIM_TimeBaseInitStruct->TIM_Period = 0xFFFF;
 18973              		.loc 1 729 0
 18974 0000 4FF0FF33 		mov	r3, #-1	@ movhi
 18975 0004 8380     		strh	r3, [r0, #4]	@ movhi
 730:../Library/STM32F10x_StdPeriph_Driver/src/stm32f10x_tim.c ****   TIM_TimeBaseInitStruct->TIM_Prescaler = 0x0000;
 18976              		.loc 1 730 0
 18977 0006 4FF00003 		mov	r3, #0
 18978 000a 0380     		strh	r3, [r0, #0]	@ movhi
 731:../Library/STM32F10x_StdPeriph_Driver/src/stm32f10x_tim.c ****   TIM_TimeBaseInitStruct->TIM_ClockDivision = TIM_CKD_DIV1;
 18979              		.loc 1 731 0
 18980 000c C380     		strh	r3, [r0, #6]	@ movhi
 732:../Library/STM32F10x_StdPeriph_Driver/src/stm32f10x_tim.c ****   TIM_TimeBaseInitStruct->TIM_CounterMode = TIM_CounterMode_Up;
 18981              		.loc 1 732 0
 18982 000e 4380     		strh	r3, [r0, #2]	@ movhi
 733:../Library/STM32F10x_StdPeriph_Driver/src/stm32f10x_tim.c ****   TIM_TimeBaseInitStruct->TIM_RepetitionCounter = 0x0000;
 18983              		.loc 1 733 0
 18984 0010 0372     		strb	r3, [r0, #8]
 734:../Library/STM32F10x_StdPeriph_Driver/src/stm32f10x_tim.c **** }
 18985              		.loc 1 734 0
 18986 0012 7047     		bx	lr
 18987              		.cfi_endproc
 18988              	.LFE38:
 18990              		.section	.text.TIM_OCStructInit,"ax",%progbits
 18991              		.align	2
 18992              		.global	TIM_OCStructInit
 18993              		.thumb
 18994              		.thumb_func
 18996              	TIM_OCStructInit:
 18997              	.LFB39:
 735:../Library/STM32F10x_StdPeriph_Driver/src/stm32f10x_tim.c **** 
 736:../Library/STM32F10x_StdPeriph_Driver/src/stm32f10x_tim.c **** /**
 737:../Library/STM32F10x_StdPeriph_Driver/src/stm32f10x_tim.c ****   * @brief  Fills each TIM_OCInitStruct member with its default value.
 738:../Library/STM32F10x_StdPeriph_Driver/src/stm32f10x_tim.c ****   * @param  TIM_OCInitStruct : pointer to a TIM_OCInitTypeDef structure which will
 739:../Library/STM32F10x_StdPeriph_Driver/src/stm32f10x_tim.c ****   *   be initialized.
 740:../Library/STM32F10x_StdPeriph_Driver/src/stm32f10x_tim.c ****   * @retval None
 741:../Library/STM32F10x_StdPeriph_Driver/src/stm32f10x_tim.c ****   */
 742:../Library/STM32F10x_StdPeriph_Driver/src/stm32f10x_tim.c **** void TIM_OCStructInit(TIM_OCInitTypeDef* TIM_OCInitStruct)
 743:../Library/STM32F10x_StdPeriph_Driver/src/stm32f10x_tim.c **** {
 18998              		.loc 1 743 0
 18999              		.cfi_startproc
 19000              		@ args = 0, pretend = 0, frame = 0
 19001              		@ frame_needed = 0, uses_anonymous_args = 0
 19002              		@ link register save eliminated.
 19003              	.LVL119:
 744:../Library/STM32F10x_StdPeriph_Driver/src/stm32f10x_tim.c ****   /* Set the default configuration */
 745:../Library/STM32F10x_StdPeriph_Driver/src/stm32f10x_tim.c ****   TIM_OCInitStruct->TIM_OCMode = TIM_OCMode_Timing;
 19004              		.loc 1 745 0
 19005 0000 4FF00003 		mov	r3, #0
 19006 0004 0380     		strh	r3, [r0, #0]	@ movhi
 746:../Library/STM32F10x_StdPeriph_Driver/src/stm32f10x_tim.c ****   TIM_OCInitStruct->TIM_OutputState = TIM_OutputState_Disable;
 19007              		.loc 1 746 0
 19008 0006 4380     		strh	r3, [r0, #2]	@ movhi
 747:../Library/STM32F10x_StdPeriph_Driver/src/stm32f10x_tim.c ****   TIM_OCInitStruct->TIM_OutputNState = TIM_OutputNState_Disable;
 19009              		.loc 1 747 0
 19010 0008 8380     		strh	r3, [r0, #4]	@ movhi
 748:../Library/STM32F10x_StdPeriph_Driver/src/stm32f10x_tim.c ****   TIM_OCInitStruct->TIM_Pulse = 0x0000;
 19011              		.loc 1 748 0
 19012 000a C380     		strh	r3, [r0, #6]	@ movhi
 749:../Library/STM32F10x_StdPeriph_Driver/src/stm32f10x_tim.c ****   TIM_OCInitStruct->TIM_OCPolarity = TIM_OCPolarity_High;
 19013              		.loc 1 749 0
 19014 000c 0381     		strh	r3, [r0, #8]	@ movhi
 750:../Library/STM32F10x_StdPeriph_Driver/src/stm32f10x_tim.c ****   TIM_OCInitStruct->TIM_OCNPolarity = TIM_OCPolarity_High;
 19015              		.loc 1 750 0
 19016 000e 4381     		strh	r3, [r0, #10]	@ movhi
 751:../Library/STM32F10x_StdPeriph_Driver/src/stm32f10x_tim.c ****   TIM_OCInitStruct->TIM_OCIdleState = TIM_OCIdleState_Reset;
 19017              		.loc 1 751 0
 19018 0010 8381     		strh	r3, [r0, #12]	@ movhi
 752:../Library/STM32F10x_StdPeriph_Driver/src/stm32f10x_tim.c ****   TIM_OCInitStruct->TIM_OCNIdleState = TIM_OCNIdleState_Reset;
 19019              		.loc 1 752 0
 19020 0012 C381     		strh	r3, [r0, #14]	@ movhi
 753:../Library/STM32F10x_StdPeriph_Driver/src/stm32f10x_tim.c **** }
 19021              		.loc 1 753 0
 19022 0014 7047     		bx	lr
 19023              		.cfi_endproc
 19024              	.LFE39:
 19026 0016 00BF     		.section	.text.TIM_ICStructInit,"ax",%progbits
 19027              		.align	2
 19028              		.global	TIM_ICStructInit
 19029              		.thumb
 19030              		.thumb_func
 19032              	TIM_ICStructInit:
 19033              	.LFB40:
 754:../Library/STM32F10x_StdPeriph_Driver/src/stm32f10x_tim.c **** 
 755:../Library/STM32F10x_StdPeriph_Driver/src/stm32f10x_tim.c **** /**
 756:../Library/STM32F10x_StdPeriph_Driver/src/stm32f10x_tim.c ****   * @brief  Fills each TIM_ICInitStruct member with its default value.
 757:../Library/STM32F10x_StdPeriph_Driver/src/stm32f10x_tim.c ****   * @param  TIM_ICInitStruct : pointer to a TIM_ICInitTypeDef structure which will
 758:../Library/STM32F10x_StdPeriph_Driver/src/stm32f10x_tim.c ****   *   be initialized.
 759:../Library/STM32F10x_StdPeriph_Driver/src/stm32f10x_tim.c ****   * @retval None
 760:../Library/STM32F10x_StdPeriph_Driver/src/stm32f10x_tim.c ****   */
 761:../Library/STM32F10x_StdPeriph_Driver/src/stm32f10x_tim.c **** void TIM_ICStructInit(TIM_ICInitTypeDef* TIM_ICInitStruct)
 762:../Library/STM32F10x_StdPeriph_Driver/src/stm32f10x_tim.c **** {
 19034              		.loc 1 762 0
 19035              		.cfi_startproc
 19036              		@ args = 0, pretend = 0, frame = 0
 19037              		@ frame_needed = 0, uses_anonymous_args = 0
 19038              		@ link register save eliminated.
 19039              	.LVL120:
 763:../Library/STM32F10x_StdPeriph_Driver/src/stm32f10x_tim.c ****   /* Set the default configuration */
 764:../Library/STM32F10x_StdPeriph_Driver/src/stm32f10x_tim.c ****   TIM_ICInitStruct->TIM_Channel = TIM_Channel_1;
 19040              		.loc 1 764 0
 19041 0000 4FF00003 		mov	r3, #0
 19042 0004 0380     		strh	r3, [r0, #0]	@ movhi
 765:../Library/STM32F10x_StdPeriph_Driver/src/stm32f10x_tim.c ****   TIM_ICInitStruct->TIM_ICPolarity = TIM_ICPolarity_Rising;
 19043              		.loc 1 765 0
 19044 0006 4380     		strh	r3, [r0, #2]	@ movhi
 766:../Library/STM32F10x_StdPeriph_Driver/src/stm32f10x_tim.c ****   TIM_ICInitStruct->TIM_ICSelection = TIM_ICSelection_DirectTI;
 19045              		.loc 1 766 0
 19046 0008 4FF00102 		mov	r2, #1	@ movhi
 19047 000c 8280     		strh	r2, [r0, #4]	@ movhi
 767:../Library/STM32F10x_StdPeriph_Driver/src/stm32f10x_tim.c ****   TIM_ICInitStruct->TIM_ICPrescaler = TIM_ICPSC_DIV1;
 19048              		.loc 1 767 0
 19049 000e C380     		strh	r3, [r0, #6]	@ movhi
 768:../Library/STM32F10x_StdPeriph_Driver/src/stm32f10x_tim.c ****   TIM_ICInitStruct->TIM_ICFilter = 0x00;
 19050              		.loc 1 768 0
 19051 0010 0381     		strh	r3, [r0, #8]	@ movhi
 769:../Library/STM32F10x_StdPeriph_Driver/src/stm32f10x_tim.c **** }
 19052              		.loc 1 769 0
 19053 0012 7047     		bx	lr
 19054              		.cfi_endproc
 19055              	.LFE40:
 19057              		.section	.text.TIM_BDTRStructInit,"ax",%progbits
 19058              		.align	2
 19059              		.global	TIM_BDTRStructInit
 19060              		.thumb
 19061              		.thumb_func
 19063              	TIM_BDTRStructInit:
 19064              	.LFB41:
 770:../Library/STM32F10x_StdPeriph_Driver/src/stm32f10x_tim.c **** 
 771:../Library/STM32F10x_StdPeriph_Driver/src/stm32f10x_tim.c **** /**
 772:../Library/STM32F10x_StdPeriph_Driver/src/stm32f10x_tim.c ****   * @brief  Fills each TIM_BDTRInitStruct member with its default value.
 773:../Library/STM32F10x_StdPeriph_Driver/src/stm32f10x_tim.c ****   * @param  TIM_BDTRInitStruct: pointer to a TIM_BDTRInitTypeDef structure which
 774:../Library/STM32F10x_StdPeriph_Driver/src/stm32f10x_tim.c ****   *   will be initialized.
 775:../Library/STM32F10x_StdPeriph_Driver/src/stm32f10x_tim.c ****   * @retval None
 776:../Library/STM32F10x_StdPeriph_Driver/src/stm32f10x_tim.c ****   */
 777:../Library/STM32F10x_StdPeriph_Driver/src/stm32f10x_tim.c **** void TIM_BDTRStructInit(TIM_BDTRInitTypeDef* TIM_BDTRInitStruct)
 778:../Library/STM32F10x_StdPeriph_Driver/src/stm32f10x_tim.c **** {
 19065              		.loc 1 778 0
 19066              		.cfi_startproc
 19067              		@ args = 0, pretend = 0, frame = 0
 19068              		@ frame_needed = 0, uses_anonymous_args = 0
 19069              		@ link register save eliminated.
 19070              	.LVL121:
 779:../Library/STM32F10x_StdPeriph_Driver/src/stm32f10x_tim.c ****   /* Set the default configuration */
 780:../Library/STM32F10x_StdPeriph_Driver/src/stm32f10x_tim.c ****   TIM_BDTRInitStruct->TIM_OSSRState = TIM_OSSRState_Disable;
 19071              		.loc 1 780 0
 19072 0000 4FF00003 		mov	r3, #0
 19073 0004 0380     		strh	r3, [r0, #0]	@ movhi
 781:../Library/STM32F10x_StdPeriph_Driver/src/stm32f10x_tim.c ****   TIM_BDTRInitStruct->TIM_OSSIState = TIM_OSSIState_Disable;
 19074              		.loc 1 781 0
 19075 0006 4380     		strh	r3, [r0, #2]	@ movhi
 782:../Library/STM32F10x_StdPeriph_Driver/src/stm32f10x_tim.c ****   TIM_BDTRInitStruct->TIM_LOCKLevel = TIM_LOCKLevel_OFF;
 19076              		.loc 1 782 0
 19077 0008 8380     		strh	r3, [r0, #4]	@ movhi
 783:../Library/STM32F10x_StdPeriph_Driver/src/stm32f10x_tim.c ****   TIM_BDTRInitStruct->TIM_DeadTime = 0x00;
 19078              		.loc 1 783 0
 19079 000a C380     		strh	r3, [r0, #6]	@ movhi
 784:../Library/STM32F10x_StdPeriph_Driver/src/stm32f10x_tim.c ****   TIM_BDTRInitStruct->TIM_Break = TIM_Break_Disable;
 19080              		.loc 1 784 0
 19081 000c 0381     		strh	r3, [r0, #8]	@ movhi
 785:../Library/STM32F10x_StdPeriph_Driver/src/stm32f10x_tim.c ****   TIM_BDTRInitStruct->TIM_BreakPolarity = TIM_BreakPolarity_Low;
 19082              		.loc 1 785 0
 19083 000e 4381     		strh	r3, [r0, #10]	@ movhi
 786:../Library/STM32F10x_StdPeriph_Driver/src/stm32f10x_tim.c ****   TIM_BDTRInitStruct->TIM_AutomaticOutput = TIM_AutomaticOutput_Disable;
 19084              		.loc 1 786 0
 19085 0010 8381     		strh	r3, [r0, #12]	@ movhi
 787:../Library/STM32F10x_StdPeriph_Driver/src/stm32f10x_tim.c **** }
 19086              		.loc 1 787 0
 19087 0012 7047     		bx	lr
 19088              		.cfi_endproc
 19089              	.LFE41:
 19091              		.section	.text.TIM_Cmd,"ax",%progbits
 19092              		.align	2
 19093              		.global	TIM_Cmd
 19094              		.thumb
 19095              		.thumb_func
 19097              	TIM_Cmd:
 19098              	.LFB42:
 788:../Library/STM32F10x_StdPeriph_Driver/src/stm32f10x_tim.c **** 
 789:../Library/STM32F10x_StdPeriph_Driver/src/stm32f10x_tim.c **** /**
 790:../Library/STM32F10x_StdPeriph_Driver/src/stm32f10x_tim.c ****   * @brief  Enables or disables the specified TIM peripheral.
 791:../Library/STM32F10x_StdPeriph_Driver/src/stm32f10x_tim.c ****   * @param  TIMx: where x can be 1 to 17 to select the TIMx peripheral.
 792:../Library/STM32F10x_StdPeriph_Driver/src/stm32f10x_tim.c ****   * @param  NewState: new state of the TIMx peripheral.
 793:../Library/STM32F10x_StdPeriph_Driver/src/stm32f10x_tim.c ****   *   This parameter can be: ENABLE or DISABLE.
 794:../Library/STM32F10x_StdPeriph_Driver/src/stm32f10x_tim.c ****   * @retval None
 795:../Library/STM32F10x_StdPeriph_Driver/src/stm32f10x_tim.c ****   */
 796:../Library/STM32F10x_StdPeriph_Driver/src/stm32f10x_tim.c **** void TIM_Cmd(TIM_TypeDef* TIMx, FunctionalState NewState)
 797:../Library/STM32F10x_StdPeriph_Driver/src/stm32f10x_tim.c **** {
 19099              		.loc 1 797 0
 19100              		.cfi_startproc
 19101              		@ args = 0, pretend = 0, frame = 0
 19102              		@ frame_needed = 0, uses_anonymous_args = 0
 19103              		@ link register save eliminated.
 19104              	.LVL122:
 798:../Library/STM32F10x_StdPeriph_Driver/src/stm32f10x_tim.c ****   /* Check the parameters */
 799:../Library/STM32F10x_StdPeriph_Driver/src/stm32f10x_tim.c ****   assert_param(IS_TIM_ALL_PERIPH(TIMx));
 800:../Library/STM32F10x_StdPeriph_Driver/src/stm32f10x_tim.c ****   assert_param(IS_FUNCTIONAL_STATE(NewState));
 801:../Library/STM32F10x_StdPeriph_Driver/src/stm32f10x_tim.c ****   
 802:../Library/STM32F10x_StdPeriph_Driver/src/stm32f10x_tim.c ****   if (NewState != DISABLE)
 19105              		.loc 1 802 0
 19106 0000 29B1     		cbz	r1, .L32
 803:../Library/STM32F10x_StdPeriph_Driver/src/stm32f10x_tim.c ****   {
 804:../Library/STM32F10x_StdPeriph_Driver/src/stm32f10x_tim.c ****     /* Enable the TIM Counter */
 805:../Library/STM32F10x_StdPeriph_Driver/src/stm32f10x_tim.c ****     TIMx->CR1 |= TIM_CR1_CEN;
 19107              		.loc 1 805 0
 19108 0002 0388     		ldrh	r3, [r0, #0]
 19109 0004 9BB2     		uxth	r3, r3
 19110 0006 43F00103 		orr	r3, r3, #1
 19111 000a 0380     		strh	r3, [r0, #0]	@ movhi
 19112 000c 7047     		bx	lr
 19113              	.L32:
 806:../Library/STM32F10x_StdPeriph_Driver/src/stm32f10x_tim.c ****   }
 807:../Library/STM32F10x_StdPeriph_Driver/src/stm32f10x_tim.c ****   else
 808:../Library/STM32F10x_StdPeriph_Driver/src/stm32f10x_tim.c ****   {
 809:../Library/STM32F10x_StdPeriph_Driver/src/stm32f10x_tim.c ****     /* Disable the TIM Counter */
 810:../Library/STM32F10x_StdPeriph_Driver/src/stm32f10x_tim.c ****     TIMx->CR1 &= (uint16_t)(~((uint16_t)TIM_CR1_CEN));
 19114              		.loc 1 810 0
 19115 000e 0388     		ldrh	r3, [r0, #0]
 19116 0010 23F00103 		bic	r3, r3, #1
 19117 0014 4FEA0343 		lsl	r3, r3, #16
 19118 0018 4FEA1343 		lsr	r3, r3, #16
 19119 001c 0380     		strh	r3, [r0, #0]	@ movhi
 19120 001e 7047     		bx	lr
 19121              		.cfi_endproc
 19122              	.LFE42:
 19124              		.section	.text.TIM_CtrlPWMOutputs,"ax",%progbits
 19125              		.align	2
 19126              		.global	TIM_CtrlPWMOutputs
 19127              		.thumb
 19128              		.thumb_func
 19130              	TIM_CtrlPWMOutputs:
 19131              	.LFB43:
 811:../Library/STM32F10x_StdPeriph_Driver/src/stm32f10x_tim.c ****   }
 812:../Library/STM32F10x_StdPeriph_Driver/src/stm32f10x_tim.c **** }
 813:../Library/STM32F10x_StdPeriph_Driver/src/stm32f10x_tim.c **** 
 814:../Library/STM32F10x_StdPeriph_Driver/src/stm32f10x_tim.c **** /**
 815:../Library/STM32F10x_StdPeriph_Driver/src/stm32f10x_tim.c ****   * @brief  Enables or disables the TIM peripheral Main Outputs.
 816:../Library/STM32F10x_StdPeriph_Driver/src/stm32f10x_tim.c ****   * @param  TIMx: where x can be 1, 8, 15, 16 or 17 to select the TIMx peripheral.
 817:../Library/STM32F10x_StdPeriph_Driver/src/stm32f10x_tim.c ****   * @param  NewState: new state of the TIM peripheral Main Outputs.
 818:../Library/STM32F10x_StdPeriph_Driver/src/stm32f10x_tim.c ****   *   This parameter can be: ENABLE or DISABLE.
 819:../Library/STM32F10x_StdPeriph_Driver/src/stm32f10x_tim.c ****   * @retval None
 820:../Library/STM32F10x_StdPeriph_Driver/src/stm32f10x_tim.c ****   */
 821:../Library/STM32F10x_StdPeriph_Driver/src/stm32f10x_tim.c **** void TIM_CtrlPWMOutputs(TIM_TypeDef* TIMx, FunctionalState NewState)
 822:../Library/STM32F10x_StdPeriph_Driver/src/stm32f10x_tim.c **** {
 19132              		.loc 1 822 0
 19133              		.cfi_startproc
 19134              		@ args = 0, pretend = 0, frame = 0
 19135              		@ frame_needed = 0, uses_anonymous_args = 0
 19136              		@ link register save eliminated.
 19137              	.LVL123:
 823:../Library/STM32F10x_StdPeriph_Driver/src/stm32f10x_tim.c ****   /* Check the parameters */
 824:../Library/STM32F10x_StdPeriph_Driver/src/stm32f10x_tim.c ****   assert_param(IS_TIM_LIST2_PERIPH(TIMx));
 825:../Library/STM32F10x_StdPeriph_Driver/src/stm32f10x_tim.c ****   assert_param(IS_FUNCTIONAL_STATE(NewState));
 826:../Library/STM32F10x_StdPeriph_Driver/src/stm32f10x_tim.c ****   if (NewState != DISABLE)
 19138              		.loc 1 826 0
 19139 0000 49B1     		cbz	r1, .L36
 827:../Library/STM32F10x_StdPeriph_Driver/src/stm32f10x_tim.c ****   {
 828:../Library/STM32F10x_StdPeriph_Driver/src/stm32f10x_tim.c ****     /* Enable the TIM Main Output */
 829:../Library/STM32F10x_StdPeriph_Driver/src/stm32f10x_tim.c ****     TIMx->BDTR |= TIM_BDTR_MOE;
 19140              		.loc 1 829 0
 19141 0002 B0F84430 		ldrh	r3, [r0, #68]
 19142 0006 6FEA4343 		mvn	r3, r3, lsl #17
 19143 000a 6FEA5343 		mvn	r3, r3, lsr #17
 19144 000e 9BB2     		uxth	r3, r3
 19145 0010 A0F84430 		strh	r3, [r0, #68]	@ movhi
 19146 0014 7047     		bx	lr
 19147              	.L36:
 830:../Library/STM32F10x_StdPeriph_Driver/src/stm32f10x_tim.c ****   }
 831:../Library/STM32F10x_StdPeriph_Driver/src/stm32f10x_tim.c ****   else
 832:../Library/STM32F10x_StdPeriph_Driver/src/stm32f10x_tim.c ****   {
 833:../Library/STM32F10x_StdPeriph_Driver/src/stm32f10x_tim.c ****     /* Disable the TIM Main Output */
 834:../Library/STM32F10x_StdPeriph_Driver/src/stm32f10x_tim.c ****     TIMx->BDTR &= (uint16_t)(~((uint16_t)TIM_BDTR_MOE));
 19148              		.loc 1 834 0
 19149 0016 B0F84430 		ldrh	r3, [r0, #68]
 19150 001a 4FEA4343 		lsl	r3, r3, #17
 19151 001e 4FEA5343 		lsr	r3, r3, #17
 19152 0022 A0F84430 		strh	r3, [r0, #68]	@ movhi
 19153 0026 7047     		bx	lr
 19154              		.cfi_endproc
 19155              	.LFE43:
 19157              		.section	.text.TIM_ITConfig,"ax",%progbits
 19158              		.align	2
 19159              		.global	TIM_ITConfig
 19160              		.thumb
 19161              		.thumb_func
 19163              	TIM_ITConfig:
 19164              	.LFB44:
 835:../Library/STM32F10x_StdPeriph_Driver/src/stm32f10x_tim.c ****   }  
 836:../Library/STM32F10x_StdPeriph_Driver/src/stm32f10x_tim.c **** }
 837:../Library/STM32F10x_StdPeriph_Driver/src/stm32f10x_tim.c **** 
 838:../Library/STM32F10x_StdPeriph_Driver/src/stm32f10x_tim.c **** /**
 839:../Library/STM32F10x_StdPeriph_Driver/src/stm32f10x_tim.c ****   * @brief  Enables or disables the specified TIM interrupts.
 840:../Library/STM32F10x_StdPeriph_Driver/src/stm32f10x_tim.c ****   * @param  TIMx: where x can be 1 to 17 to select the TIMx peripheral.
 841:../Library/STM32F10x_StdPeriph_Driver/src/stm32f10x_tim.c ****   * @param  TIM_IT: specifies the TIM interrupts sources to be enabled or disabled.
 842:../Library/STM32F10x_StdPeriph_Driver/src/stm32f10x_tim.c ****   *   This parameter can be any combination of the following values:
 843:../Library/STM32F10x_StdPeriph_Driver/src/stm32f10x_tim.c ****   *     @arg TIM_IT_Update: TIM update Interrupt source
 844:../Library/STM32F10x_StdPeriph_Driver/src/stm32f10x_tim.c ****   *     @arg TIM_IT_CC1: TIM Capture Compare 1 Interrupt source
 845:../Library/STM32F10x_StdPeriph_Driver/src/stm32f10x_tim.c ****   *     @arg TIM_IT_CC2: TIM Capture Compare 2 Interrupt source
 846:../Library/STM32F10x_StdPeriph_Driver/src/stm32f10x_tim.c ****   *     @arg TIM_IT_CC3: TIM Capture Compare 3 Interrupt source
 847:../Library/STM32F10x_StdPeriph_Driver/src/stm32f10x_tim.c ****   *     @arg TIM_IT_CC4: TIM Capture Compare 4 Interrupt source
 848:../Library/STM32F10x_StdPeriph_Driver/src/stm32f10x_tim.c ****   *     @arg TIM_IT_COM: TIM Commutation Interrupt source
 849:../Library/STM32F10x_StdPeriph_Driver/src/stm32f10x_tim.c ****   *     @arg TIM_IT_Trigger: TIM Trigger Interrupt source
 850:../Library/STM32F10x_StdPeriph_Driver/src/stm32f10x_tim.c ****   *     @arg TIM_IT_Break: TIM Break Interrupt source
 851:../Library/STM32F10x_StdPeriph_Driver/src/stm32f10x_tim.c ****   * @note 
 852:../Library/STM32F10x_StdPeriph_Driver/src/stm32f10x_tim.c ****   *   - TIM6 and TIM7 can only generate an update interrupt.
 853:../Library/STM32F10x_StdPeriph_Driver/src/stm32f10x_tim.c ****   *   - TIM9, TIM12 and TIM15 can have only TIM_IT_Update, TIM_IT_CC1,
 854:../Library/STM32F10x_StdPeriph_Driver/src/stm32f10x_tim.c ****   *      TIM_IT_CC2 or TIM_IT_Trigger. 
 855:../Library/STM32F10x_StdPeriph_Driver/src/stm32f10x_tim.c ****   *   - TIM10, TIM11, TIM13, TIM14, TIM16 and TIM17 can have TIM_IT_Update or TIM_IT_CC1.   
 856:../Library/STM32F10x_StdPeriph_Driver/src/stm32f10x_tim.c ****   *   - TIM_IT_Break is used only with TIM1, TIM8 and TIM15. 
 857:../Library/STM32F10x_StdPeriph_Driver/src/stm32f10x_tim.c ****   *   - TIM_IT_COM is used only with TIM1, TIM8, TIM15, TIM16 and TIM17.    
 858:../Library/STM32F10x_StdPeriph_Driver/src/stm32f10x_tim.c ****   * @param  NewState: new state of the TIM interrupts.
 859:../Library/STM32F10x_StdPeriph_Driver/src/stm32f10x_tim.c ****   *   This parameter can be: ENABLE or DISABLE.
 860:../Library/STM32F10x_StdPeriph_Driver/src/stm32f10x_tim.c ****   * @retval None
 861:../Library/STM32F10x_StdPeriph_Driver/src/stm32f10x_tim.c ****   */
 862:../Library/STM32F10x_StdPeriph_Driver/src/stm32f10x_tim.c **** void TIM_ITConfig(TIM_TypeDef* TIMx, uint16_t TIM_IT, FunctionalState NewState)
 863:../Library/STM32F10x_StdPeriph_Driver/src/stm32f10x_tim.c **** {  
 19165              		.loc 1 863 0
 19166              		.cfi_startproc
 19167              		@ args = 0, pretend = 0, frame = 0
 19168              		@ frame_needed = 0, uses_anonymous_args = 0
 19169              		@ link register save eliminated.
 19170              	.LVL124:
 864:../Library/STM32F10x_StdPeriph_Driver/src/stm32f10x_tim.c ****   /* Check the parameters */
 865:../Library/STM32F10x_StdPeriph_Driver/src/stm32f10x_tim.c ****   assert_param(IS_TIM_ALL_PERIPH(TIMx));
 866:../Library/STM32F10x_StdPeriph_Driver/src/stm32f10x_tim.c ****   assert_param(IS_TIM_IT(TIM_IT));
 867:../Library/STM32F10x_StdPeriph_Driver/src/stm32f10x_tim.c ****   assert_param(IS_FUNCTIONAL_STATE(NewState));
 868:../Library/STM32F10x_StdPeriph_Driver/src/stm32f10x_tim.c ****   
 869:../Library/STM32F10x_StdPeriph_Driver/src/stm32f10x_tim.c ****   if (NewState != DISABLE)
 19171              		.loc 1 869 0
 19172 0000 2AB1     		cbz	r2, .L40
 870:../Library/STM32F10x_StdPeriph_Driver/src/stm32f10x_tim.c ****   {
 871:../Library/STM32F10x_StdPeriph_Driver/src/stm32f10x_tim.c ****     /* Enable the Interrupt sources */
 872:../Library/STM32F10x_StdPeriph_Driver/src/stm32f10x_tim.c ****     TIMx->DIER |= TIM_IT;
 19173              		.loc 1 872 0
 19174 0002 8389     		ldrh	r3, [r0, #12]
 19175 0004 9BB2     		uxth	r3, r3
 19176 0006 41EA0301 		orr	r1, r1, r3
 19177              	.LVL125:
 19178 000a 8181     		strh	r1, [r0, #12]	@ movhi
 19179 000c 7047     		bx	lr
 19180              	.LVL126:
 19181              	.L40:
 873:../Library/STM32F10x_StdPeriph_Driver/src/stm32f10x_tim.c ****   }
 874:../Library/STM32F10x_StdPeriph_Driver/src/stm32f10x_tim.c ****   else
 875:../Library/STM32F10x_StdPeriph_Driver/src/stm32f10x_tim.c ****   {
 876:../Library/STM32F10x_StdPeriph_Driver/src/stm32f10x_tim.c ****     /* Disable the Interrupt sources */
 877:../Library/STM32F10x_StdPeriph_Driver/src/stm32f10x_tim.c ****     TIMx->DIER &= (uint16_t)~TIM_IT;
 19182              		.loc 1 877 0
 19183 000e 8389     		ldrh	r3, [r0, #12]
 19184 0010 9BB2     		uxth	r3, r3
 19185 0012 23EA0101 		bic	r1, r3, r1
 19186              	.LVL127:
 19187 0016 8181     		strh	r1, [r0, #12]	@ movhi
 19188 0018 7047     		bx	lr
 19189              		.cfi_endproc
 19190              	.LFE44:
 19192 001a 00BF     		.section	.text.TIM_GenerateEvent,"ax",%progbits
 19193              		.align	2
 19194              		.global	TIM_GenerateEvent
 19195              		.thumb
 19196              		.thumb_func
 19198              	TIM_GenerateEvent:
 19199              	.LFB45:
 878:../Library/STM32F10x_StdPeriph_Driver/src/stm32f10x_tim.c ****   }
 879:../Library/STM32F10x_StdPeriph_Driver/src/stm32f10x_tim.c **** }
 880:../Library/STM32F10x_StdPeriph_Driver/src/stm32f10x_tim.c **** 
 881:../Library/STM32F10x_StdPeriph_Driver/src/stm32f10x_tim.c **** /**
 882:../Library/STM32F10x_StdPeriph_Driver/src/stm32f10x_tim.c ****   * @brief  Configures the TIMx event to be generate by software.
 883:../Library/STM32F10x_StdPeriph_Driver/src/stm32f10x_tim.c ****   * @param  TIMx: where x can be 1 to 17 to select the TIM peripheral.
 884:../Library/STM32F10x_StdPeriph_Driver/src/stm32f10x_tim.c ****   * @param  TIM_EventSource: specifies the event source.
 885:../Library/STM32F10x_StdPeriph_Driver/src/stm32f10x_tim.c ****   *   This parameter can be one or more of the following values:	   
 886:../Library/STM32F10x_StdPeriph_Driver/src/stm32f10x_tim.c ****   *     @arg TIM_EventSource_Update: Timer update Event source
 887:../Library/STM32F10x_StdPeriph_Driver/src/stm32f10x_tim.c ****   *     @arg TIM_EventSource_CC1: Timer Capture Compare 1 Event source
 888:../Library/STM32F10x_StdPeriph_Driver/src/stm32f10x_tim.c ****   *     @arg TIM_EventSource_CC2: Timer Capture Compare 2 Event source
 889:../Library/STM32F10x_StdPeriph_Driver/src/stm32f10x_tim.c ****   *     @arg TIM_EventSource_CC3: Timer Capture Compare 3 Event source
 890:../Library/STM32F10x_StdPeriph_Driver/src/stm32f10x_tim.c ****   *     @arg TIM_EventSource_CC4: Timer Capture Compare 4 Event source
 891:../Library/STM32F10x_StdPeriph_Driver/src/stm32f10x_tim.c ****   *     @arg TIM_EventSource_COM: Timer COM event source  
 892:../Library/STM32F10x_StdPeriph_Driver/src/stm32f10x_tim.c ****   *     @arg TIM_EventSource_Trigger: Timer Trigger Event source
 893:../Library/STM32F10x_StdPeriph_Driver/src/stm32f10x_tim.c ****   *     @arg TIM_EventSource_Break: Timer Break event source
 894:../Library/STM32F10x_StdPeriph_Driver/src/stm32f10x_tim.c ****   * @note 
 895:../Library/STM32F10x_StdPeriph_Driver/src/stm32f10x_tim.c ****   *   - TIM6 and TIM7 can only generate an update event. 
 896:../Library/STM32F10x_StdPeriph_Driver/src/stm32f10x_tim.c ****   *   - TIM_EventSource_COM and TIM_EventSource_Break are used only with TIM1 and TIM8.      
 897:../Library/STM32F10x_StdPeriph_Driver/src/stm32f10x_tim.c ****   * @retval None
 898:../Library/STM32F10x_StdPeriph_Driver/src/stm32f10x_tim.c ****   */
 899:../Library/STM32F10x_StdPeriph_Driver/src/stm32f10x_tim.c **** void TIM_GenerateEvent(TIM_TypeDef* TIMx, uint16_t TIM_EventSource)
 900:../Library/STM32F10x_StdPeriph_Driver/src/stm32f10x_tim.c **** { 
 19200              		.loc 1 900 0
 19201              		.cfi_startproc
 19202              		@ args = 0, pretend = 0, frame = 0
 19203              		@ frame_needed = 0, uses_anonymous_args = 0
 19204              		@ link register save eliminated.
 19205              	.LVL128:
 901:../Library/STM32F10x_StdPeriph_Driver/src/stm32f10x_tim.c ****   /* Check the parameters */
 902:../Library/STM32F10x_StdPeriph_Driver/src/stm32f10x_tim.c ****   assert_param(IS_TIM_ALL_PERIPH(TIMx));
 903:../Library/STM32F10x_StdPeriph_Driver/src/stm32f10x_tim.c ****   assert_param(IS_TIM_EVENT_SOURCE(TIM_EventSource));
 904:../Library/STM32F10x_StdPeriph_Driver/src/stm32f10x_tim.c ****   
 905:../Library/STM32F10x_StdPeriph_Driver/src/stm32f10x_tim.c ****   /* Set the event sources */
 906:../Library/STM32F10x_StdPeriph_Driver/src/stm32f10x_tim.c ****   TIMx->EGR = TIM_EventSource;
 19206              		.loc 1 906 0
 19207 0000 8182     		strh	r1, [r0, #20]	@ movhi
 907:../Library/STM32F10x_StdPeriph_Driver/src/stm32f10x_tim.c **** }
 19208              		.loc 1 907 0
 19209 0002 7047     		bx	lr
 19210              		.cfi_endproc
 19211              	.LFE45:
 19213              		.section	.text.TIM_DMAConfig,"ax",%progbits
 19214              		.align	2
 19215              		.global	TIM_DMAConfig
 19216              		.thumb
 19217              		.thumb_func
 19219              	TIM_DMAConfig:
 19220              	.LFB46:
 908:../Library/STM32F10x_StdPeriph_Driver/src/stm32f10x_tim.c **** 
 909:../Library/STM32F10x_StdPeriph_Driver/src/stm32f10x_tim.c **** /**
 910:../Library/STM32F10x_StdPeriph_Driver/src/stm32f10x_tim.c ****   * @brief  Configures the TIMxs DMA interface.
 911:../Library/STM32F10x_StdPeriph_Driver/src/stm32f10x_tim.c ****   * @param  TIMx: where x can be  1, 2, 3, 4, 5, 8, 15, 16 or 17 to select 
 912:../Library/STM32F10x_StdPeriph_Driver/src/stm32f10x_tim.c ****   *   the TIM peripheral.
 913:../Library/STM32F10x_StdPeriph_Driver/src/stm32f10x_tim.c ****   * @param  TIM_DMABase: DMA Base address.
 914:../Library/STM32F10x_StdPeriph_Driver/src/stm32f10x_tim.c ****   *   This parameter can be one of the following values:
 915:../Library/STM32F10x_StdPeriph_Driver/src/stm32f10x_tim.c ****   *     @arg TIM_DMABase_CR, TIM_DMABase_CR2, TIM_DMABase_SMCR,
 916:../Library/STM32F10x_StdPeriph_Driver/src/stm32f10x_tim.c ****   *   TIM_DMABase_DIER, TIM1_DMABase_SR, TIM_DMABase_EGR,
 917:../Library/STM32F10x_StdPeriph_Driver/src/stm32f10x_tim.c ****   *   TIM_DMABase_CCMR1, TIM_DMABase_CCMR2, TIM_DMABase_CCER,
 918:../Library/STM32F10x_StdPeriph_Driver/src/stm32f10x_tim.c ****   *   TIM_DMABase_CNT, TIM_DMABase_PSC, TIM_DMABase_ARR,
 919:../Library/STM32F10x_StdPeriph_Driver/src/stm32f10x_tim.c ****   *   TIM_DMABase_RCR, TIM_DMABase_CCR1, TIM_DMABase_CCR2,
 920:../Library/STM32F10x_StdPeriph_Driver/src/stm32f10x_tim.c ****   *   TIM_DMABase_CCR3, TIM_DMABase_CCR4, TIM_DMABase_BDTR,
 921:../Library/STM32F10x_StdPeriph_Driver/src/stm32f10x_tim.c ****   *   TIM_DMABase_DCR.
 922:../Library/STM32F10x_StdPeriph_Driver/src/stm32f10x_tim.c ****   * @param  TIM_DMABurstLength: DMA Burst length.
 923:../Library/STM32F10x_StdPeriph_Driver/src/stm32f10x_tim.c ****   *   This parameter can be one value between:
 924:../Library/STM32F10x_StdPeriph_Driver/src/stm32f10x_tim.c ****   *   TIM_DMABurstLength_1Byte and TIM_DMABurstLength_18Bytes.
 925:../Library/STM32F10x_StdPeriph_Driver/src/stm32f10x_tim.c ****   * @retval None
 926:../Library/STM32F10x_StdPeriph_Driver/src/stm32f10x_tim.c ****   */
 927:../Library/STM32F10x_StdPeriph_Driver/src/stm32f10x_tim.c **** void TIM_DMAConfig(TIM_TypeDef* TIMx, uint16_t TIM_DMABase, uint16_t TIM_DMABurstLength)
 928:../Library/STM32F10x_StdPeriph_Driver/src/stm32f10x_tim.c **** {
 19221              		.loc 1 928 0
 19222              		.cfi_startproc
 19223              		@ args = 0, pretend = 0, frame = 0
 19224              		@ frame_needed = 0, uses_anonymous_args = 0
 19225              		@ link register save eliminated.
 19226              	.LVL129:
 929:../Library/STM32F10x_StdPeriph_Driver/src/stm32f10x_tim.c ****   /* Check the parameters */
 930:../Library/STM32F10x_StdPeriph_Driver/src/stm32f10x_tim.c ****   assert_param(IS_TIM_LIST4_PERIPH(TIMx));
 931:../Library/STM32F10x_StdPeriph_Driver/src/stm32f10x_tim.c ****   assert_param(IS_TIM_DMA_BASE(TIM_DMABase));
 932:../Library/STM32F10x_StdPeriph_Driver/src/stm32f10x_tim.c ****   assert_param(IS_TIM_DMA_LENGTH(TIM_DMABurstLength));
 933:../Library/STM32F10x_StdPeriph_Driver/src/stm32f10x_tim.c ****   /* Set the DMA Base and the DMA Burst Length */
 934:../Library/STM32F10x_StdPeriph_Driver/src/stm32f10x_tim.c ****   TIMx->DCR = TIM_DMABase | TIM_DMABurstLength;
 19227              		.loc 1 934 0
 19228 0000 42EA0102 		orr	r2, r2, r1
 19229              	.LVL130:
 19230 0004 A0F84820 		strh	r2, [r0, #72]	@ movhi
 935:../Library/STM32F10x_StdPeriph_Driver/src/stm32f10x_tim.c **** }
 19231              		.loc 1 935 0
 19232 0008 7047     		bx	lr
 19233              		.cfi_endproc
 19234              	.LFE46:
 19236 000a 00BF     		.section	.text.TIM_DMACmd,"ax",%progbits
 19237              		.align	2
 19238              		.global	TIM_DMACmd
 19239              		.thumb
 19240              		.thumb_func
 19242              	TIM_DMACmd:
 19243              	.LFB47:
 936:../Library/STM32F10x_StdPeriph_Driver/src/stm32f10x_tim.c **** 
 937:../Library/STM32F10x_StdPeriph_Driver/src/stm32f10x_tim.c **** /**
 938:../Library/STM32F10x_StdPeriph_Driver/src/stm32f10x_tim.c ****   * @brief  Enables or disables the TIMxs DMA Requests.
 939:../Library/STM32F10x_StdPeriph_Driver/src/stm32f10x_tim.c ****   * @param  TIMx: where x can be  1, 2, 3, 4, 5, 6, 7, 8, 15, 16 or 17 
 940:../Library/STM32F10x_StdPeriph_Driver/src/stm32f10x_tim.c ****   *   to select the TIM peripheral. 
 941:../Library/STM32F10x_StdPeriph_Driver/src/stm32f10x_tim.c ****   * @param  TIM_DMASource: specifies the DMA Request sources.
 942:../Library/STM32F10x_StdPeriph_Driver/src/stm32f10x_tim.c ****   *   This parameter can be any combination of the following values:
 943:../Library/STM32F10x_StdPeriph_Driver/src/stm32f10x_tim.c ****   *     @arg TIM_DMA_Update: TIM update Interrupt source
 944:../Library/STM32F10x_StdPeriph_Driver/src/stm32f10x_tim.c ****   *     @arg TIM_DMA_CC1: TIM Capture Compare 1 DMA source
 945:../Library/STM32F10x_StdPeriph_Driver/src/stm32f10x_tim.c ****   *     @arg TIM_DMA_CC2: TIM Capture Compare 2 DMA source
 946:../Library/STM32F10x_StdPeriph_Driver/src/stm32f10x_tim.c ****   *     @arg TIM_DMA_CC3: TIM Capture Compare 3 DMA source
 947:../Library/STM32F10x_StdPeriph_Driver/src/stm32f10x_tim.c ****   *     @arg TIM_DMA_CC4: TIM Capture Compare 4 DMA source
 948:../Library/STM32F10x_StdPeriph_Driver/src/stm32f10x_tim.c ****   *     @arg TIM_DMA_COM: TIM Commutation DMA source
 949:../Library/STM32F10x_StdPeriph_Driver/src/stm32f10x_tim.c ****   *     @arg TIM_DMA_Trigger: TIM Trigger DMA source
 950:../Library/STM32F10x_StdPeriph_Driver/src/stm32f10x_tim.c ****   * @param  NewState: new state of the DMA Request sources.
 951:../Library/STM32F10x_StdPeriph_Driver/src/stm32f10x_tim.c ****   *   This parameter can be: ENABLE or DISABLE.
 952:../Library/STM32F10x_StdPeriph_Driver/src/stm32f10x_tim.c ****   * @retval None
 953:../Library/STM32F10x_StdPeriph_Driver/src/stm32f10x_tim.c ****   */
 954:../Library/STM32F10x_StdPeriph_Driver/src/stm32f10x_tim.c **** void TIM_DMACmd(TIM_TypeDef* TIMx, uint16_t TIM_DMASource, FunctionalState NewState)
 955:../Library/STM32F10x_StdPeriph_Driver/src/stm32f10x_tim.c **** { 
 19244              		.loc 1 955 0
 19245              		.cfi_startproc
 19246              		@ args = 0, pretend = 0, frame = 0
 19247              		@ frame_needed = 0, uses_anonymous_args = 0
 19248              		@ link register save eliminated.
 19249              	.LVL131:
 956:../Library/STM32F10x_StdPeriph_Driver/src/stm32f10x_tim.c ****   /* Check the parameters */
 957:../Library/STM32F10x_StdPeriph_Driver/src/stm32f10x_tim.c ****   assert_param(IS_TIM_LIST9_PERIPH(TIMx));
 958:../Library/STM32F10x_StdPeriph_Driver/src/stm32f10x_tim.c ****   assert_param(IS_TIM_DMA_SOURCE(TIM_DMASource));
 959:../Library/STM32F10x_StdPeriph_Driver/src/stm32f10x_tim.c ****   assert_param(IS_FUNCTIONAL_STATE(NewState));
 960:../Library/STM32F10x_StdPeriph_Driver/src/stm32f10x_tim.c ****   
 961:../Library/STM32F10x_StdPeriph_Driver/src/stm32f10x_tim.c ****   if (NewState != DISABLE)
 19250              		.loc 1 961 0
 19251 0000 2AB1     		cbz	r2, .L48
 962:../Library/STM32F10x_StdPeriph_Driver/src/stm32f10x_tim.c ****   {
 963:../Library/STM32F10x_StdPeriph_Driver/src/stm32f10x_tim.c ****     /* Enable the DMA sources */
 964:../Library/STM32F10x_StdPeriph_Driver/src/stm32f10x_tim.c ****     TIMx->DIER |= TIM_DMASource; 
 19252              		.loc 1 964 0
 19253 0002 8389     		ldrh	r3, [r0, #12]
 19254 0004 9BB2     		uxth	r3, r3
 19255 0006 41EA0301 		orr	r1, r1, r3
 19256              	.LVL132:
 19257 000a 8181     		strh	r1, [r0, #12]	@ movhi
 19258 000c 7047     		bx	lr
 19259              	.LVL133:
 19260              	.L48:
 965:../Library/STM32F10x_StdPeriph_Driver/src/stm32f10x_tim.c ****   }
 966:../Library/STM32F10x_StdPeriph_Driver/src/stm32f10x_tim.c ****   else
 967:../Library/STM32F10x_StdPeriph_Driver/src/stm32f10x_tim.c ****   {
 968:../Library/STM32F10x_StdPeriph_Driver/src/stm32f10x_tim.c ****     /* Disable the DMA sources */
 969:../Library/STM32F10x_StdPeriph_Driver/src/stm32f10x_tim.c ****     TIMx->DIER &= (uint16_t)~TIM_DMASource;
 19261              		.loc 1 969 0
 19262 000e 8389     		ldrh	r3, [r0, #12]
 19263 0010 9BB2     		uxth	r3, r3
 19264 0012 23EA0101 		bic	r1, r3, r1
 19265              	.LVL134:
 19266 0016 8181     		strh	r1, [r0, #12]	@ movhi
 19267 0018 7047     		bx	lr
 19268              		.cfi_endproc
 19269              	.LFE47:
 19271 001a 00BF     		.section	.text.TIM_InternalClockConfig,"ax",%progbits
 19272              		.align	2
 19273              		.global	TIM_InternalClockConfig
 19274              		.thumb
 19275              		.thumb_func
 19277              	TIM_InternalClockConfig:
 19278              	.LFB48:
 970:../Library/STM32F10x_StdPeriph_Driver/src/stm32f10x_tim.c ****   }
 971:../Library/STM32F10x_StdPeriph_Driver/src/stm32f10x_tim.c **** }
 972:../Library/STM32F10x_StdPeriph_Driver/src/stm32f10x_tim.c **** 
 973:../Library/STM32F10x_StdPeriph_Driver/src/stm32f10x_tim.c **** /**
 974:../Library/STM32F10x_StdPeriph_Driver/src/stm32f10x_tim.c ****   * @brief  Configures the TIMx interrnal Clock
 975:../Library/STM32F10x_StdPeriph_Driver/src/stm32f10x_tim.c ****   * @param  TIMx: where x can be  1, 2, 3, 4, 5, 8, 9, 12 or 15
 976:../Library/STM32F10x_StdPeriph_Driver/src/stm32f10x_tim.c ****   *   to select the TIM peripheral.
 977:../Library/STM32F10x_StdPeriph_Driver/src/stm32f10x_tim.c ****   * @retval None
 978:../Library/STM32F10x_StdPeriph_Driver/src/stm32f10x_tim.c ****   */
 979:../Library/STM32F10x_StdPeriph_Driver/src/stm32f10x_tim.c **** void TIM_InternalClockConfig(TIM_TypeDef* TIMx)
 980:../Library/STM32F10x_StdPeriph_Driver/src/stm32f10x_tim.c **** {
 19279              		.loc 1 980 0
 19280              		.cfi_startproc
 19281              		@ args = 0, pretend = 0, frame = 0
 19282              		@ frame_needed = 0, uses_anonymous_args = 0
 19283              		@ link register save eliminated.
 19284              	.LVL135:
 981:../Library/STM32F10x_StdPeriph_Driver/src/stm32f10x_tim.c ****   /* Check the parameters */
 982:../Library/STM32F10x_StdPeriph_Driver/src/stm32f10x_tim.c ****   assert_param(IS_TIM_LIST6_PERIPH(TIMx));
 983:../Library/STM32F10x_StdPeriph_Driver/src/stm32f10x_tim.c ****   /* Disable slave mode to clock the prescaler directly with the internal clock */
 984:../Library/STM32F10x_StdPeriph_Driver/src/stm32f10x_tim.c ****   TIMx->SMCR &=  (uint16_t)(~((uint16_t)TIM_SMCR_SMS));
 19285              		.loc 1 984 0
 19286 0000 0389     		ldrh	r3, [r0, #8]
 19287 0002 23F00703 		bic	r3, r3, #7
 19288 0006 4FEA0343 		lsl	r3, r3, #16
 19289 000a 4FEA1343 		lsr	r3, r3, #16
 19290 000e 0381     		strh	r3, [r0, #8]	@ movhi
 985:../Library/STM32F10x_StdPeriph_Driver/src/stm32f10x_tim.c **** }
 19291              		.loc 1 985 0
 19292 0010 7047     		bx	lr
 19293              		.cfi_endproc
 19294              	.LFE48:
 19296 0012 00BF     		.section	.text.TIM_ETRConfig,"ax",%progbits
 19297              		.align	2
 19298              		.global	TIM_ETRConfig
 19299              		.thumb
 19300              		.thumb_func
 19302              	TIM_ETRConfig:
 19303              	.LFB53:
 986:../Library/STM32F10x_StdPeriph_Driver/src/stm32f10x_tim.c **** 
 987:../Library/STM32F10x_StdPeriph_Driver/src/stm32f10x_tim.c **** /**
 988:../Library/STM32F10x_StdPeriph_Driver/src/stm32f10x_tim.c ****   * @brief  Configures the TIMx Internal Trigger as External Clock
 989:../Library/STM32F10x_StdPeriph_Driver/src/stm32f10x_tim.c ****   * @param  TIMx: where x can be  1, 2, 3, 4, 5, 9, 12 or 15 to select the TIM peripheral.
 990:../Library/STM32F10x_StdPeriph_Driver/src/stm32f10x_tim.c ****   * @param  TIM_ITRSource: Trigger source.
 991:../Library/STM32F10x_StdPeriph_Driver/src/stm32f10x_tim.c ****   *   This parameter can be one of the following values:
 992:../Library/STM32F10x_StdPeriph_Driver/src/stm32f10x_tim.c ****   * @param  TIM_TS_ITR0: Internal Trigger 0
 993:../Library/STM32F10x_StdPeriph_Driver/src/stm32f10x_tim.c ****   * @param  TIM_TS_ITR1: Internal Trigger 1
 994:../Library/STM32F10x_StdPeriph_Driver/src/stm32f10x_tim.c ****   * @param  TIM_TS_ITR2: Internal Trigger 2
 995:../Library/STM32F10x_StdPeriph_Driver/src/stm32f10x_tim.c ****   * @param  TIM_TS_ITR3: Internal Trigger 3
 996:../Library/STM32F10x_StdPeriph_Driver/src/stm32f10x_tim.c ****   * @retval None
 997:../Library/STM32F10x_StdPeriph_Driver/src/stm32f10x_tim.c ****   */
 998:../Library/STM32F10x_StdPeriph_Driver/src/stm32f10x_tim.c **** void TIM_ITRxExternalClockConfig(TIM_TypeDef* TIMx, uint16_t TIM_InputTriggerSource)
 999:../Library/STM32F10x_StdPeriph_Driver/src/stm32f10x_tim.c **** {
1000:../Library/STM32F10x_StdPeriph_Driver/src/stm32f10x_tim.c ****   /* Check the parameters */
1001:../Library/STM32F10x_StdPeriph_Driver/src/stm32f10x_tim.c ****   assert_param(IS_TIM_LIST6_PERIPH(TIMx));
1002:../Library/STM32F10x_StdPeriph_Driver/src/stm32f10x_tim.c ****   assert_param(IS_TIM_INTERNAL_TRIGGER_SELECTION(TIM_InputTriggerSource));
1003:../Library/STM32F10x_StdPeriph_Driver/src/stm32f10x_tim.c ****   /* Select the Internal Trigger */
1004:../Library/STM32F10x_StdPeriph_Driver/src/stm32f10x_tim.c ****   TIM_SelectInputTrigger(TIMx, TIM_InputTriggerSource);
1005:../Library/STM32F10x_StdPeriph_Driver/src/stm32f10x_tim.c ****   /* Select the External clock mode1 */
1006:../Library/STM32F10x_StdPeriph_Driver/src/stm32f10x_tim.c ****   TIMx->SMCR |= TIM_SlaveMode_External1;
1007:../Library/STM32F10x_StdPeriph_Driver/src/stm32f10x_tim.c **** }
1008:../Library/STM32F10x_StdPeriph_Driver/src/stm32f10x_tim.c **** 
1009:../Library/STM32F10x_StdPeriph_Driver/src/stm32f10x_tim.c **** /**
1010:../Library/STM32F10x_StdPeriph_Driver/src/stm32f10x_tim.c ****   * @brief  Configures the TIMx Trigger as External Clock
1011:../Library/STM32F10x_StdPeriph_Driver/src/stm32f10x_tim.c ****   * @param  TIMx: where x can be  1, 2, 3, 4, 5, 9, 12 or 15 to select the TIM peripheral.
1012:../Library/STM32F10x_StdPeriph_Driver/src/stm32f10x_tim.c ****   * @param  TIM_TIxExternalCLKSource: Trigger source.
1013:../Library/STM32F10x_StdPeriph_Driver/src/stm32f10x_tim.c ****   *   This parameter can be one of the following values:
1014:../Library/STM32F10x_StdPeriph_Driver/src/stm32f10x_tim.c ****   *     @arg TIM_TIxExternalCLK1Source_TI1ED: TI1 Edge Detector
1015:../Library/STM32F10x_StdPeriph_Driver/src/stm32f10x_tim.c ****   *     @arg TIM_TIxExternalCLK1Source_TI1: Filtered Timer Input 1
1016:../Library/STM32F10x_StdPeriph_Driver/src/stm32f10x_tim.c ****   *     @arg TIM_TIxExternalCLK1Source_TI2: Filtered Timer Input 2
1017:../Library/STM32F10x_StdPeriph_Driver/src/stm32f10x_tim.c ****   * @param  TIM_ICPolarity: specifies the TIx Polarity.
1018:../Library/STM32F10x_StdPeriph_Driver/src/stm32f10x_tim.c ****   *   This parameter can be one of the following values:
1019:../Library/STM32F10x_StdPeriph_Driver/src/stm32f10x_tim.c ****   *     @arg TIM_ICPolarity_Rising
1020:../Library/STM32F10x_StdPeriph_Driver/src/stm32f10x_tim.c ****   *     @arg TIM_ICPolarity_Falling
1021:../Library/STM32F10x_StdPeriph_Driver/src/stm32f10x_tim.c ****   * @param  ICFilter : specifies the filter value.
1022:../Library/STM32F10x_StdPeriph_Driver/src/stm32f10x_tim.c ****   *   This parameter must be a value between 0x0 and 0xF.
1023:../Library/STM32F10x_StdPeriph_Driver/src/stm32f10x_tim.c ****   * @retval None
1024:../Library/STM32F10x_StdPeriph_Driver/src/stm32f10x_tim.c ****   */
1025:../Library/STM32F10x_StdPeriph_Driver/src/stm32f10x_tim.c **** void TIM_TIxExternalClockConfig(TIM_TypeDef* TIMx, uint16_t TIM_TIxExternalCLKSource,
1026:../Library/STM32F10x_StdPeriph_Driver/src/stm32f10x_tim.c ****                                 uint16_t TIM_ICPolarity, uint16_t ICFilter)
1027:../Library/STM32F10x_StdPeriph_Driver/src/stm32f10x_tim.c **** {
1028:../Library/STM32F10x_StdPeriph_Driver/src/stm32f10x_tim.c ****   /* Check the parameters */
1029:../Library/STM32F10x_StdPeriph_Driver/src/stm32f10x_tim.c ****   assert_param(IS_TIM_LIST6_PERIPH(TIMx));
1030:../Library/STM32F10x_StdPeriph_Driver/src/stm32f10x_tim.c ****   assert_param(IS_TIM_TIXCLK_SOURCE(TIM_TIxExternalCLKSource));
1031:../Library/STM32F10x_StdPeriph_Driver/src/stm32f10x_tim.c ****   assert_param(IS_TIM_IC_POLARITY(TIM_ICPolarity));
1032:../Library/STM32F10x_StdPeriph_Driver/src/stm32f10x_tim.c ****   assert_param(IS_TIM_IC_FILTER(ICFilter));
1033:../Library/STM32F10x_StdPeriph_Driver/src/stm32f10x_tim.c ****   /* Configure the Timer Input Clock Source */
1034:../Library/STM32F10x_StdPeriph_Driver/src/stm32f10x_tim.c ****   if (TIM_TIxExternalCLKSource == TIM_TIxExternalCLK1Source_TI2)
1035:../Library/STM32F10x_StdPeriph_Driver/src/stm32f10x_tim.c ****   {
1036:../Library/STM32F10x_StdPeriph_Driver/src/stm32f10x_tim.c ****     TI2_Config(TIMx, TIM_ICPolarity, TIM_ICSelection_DirectTI, ICFilter);
1037:../Library/STM32F10x_StdPeriph_Driver/src/stm32f10x_tim.c ****   }
1038:../Library/STM32F10x_StdPeriph_Driver/src/stm32f10x_tim.c ****   else
1039:../Library/STM32F10x_StdPeriph_Driver/src/stm32f10x_tim.c ****   {
1040:../Library/STM32F10x_StdPeriph_Driver/src/stm32f10x_tim.c ****     TI1_Config(TIMx, TIM_ICPolarity, TIM_ICSelection_DirectTI, ICFilter);
1041:../Library/STM32F10x_StdPeriph_Driver/src/stm32f10x_tim.c ****   }
1042:../Library/STM32F10x_StdPeriph_Driver/src/stm32f10x_tim.c ****   /* Select the Trigger source */
1043:../Library/STM32F10x_StdPeriph_Driver/src/stm32f10x_tim.c ****   TIM_SelectInputTrigger(TIMx, TIM_TIxExternalCLKSource);
1044:../Library/STM32F10x_StdPeriph_Driver/src/stm32f10x_tim.c ****   /* Select the External clock mode1 */
1045:../Library/STM32F10x_StdPeriph_Driver/src/stm32f10x_tim.c ****   TIMx->SMCR |= TIM_SlaveMode_External1;
1046:../Library/STM32F10x_StdPeriph_Driver/src/stm32f10x_tim.c **** }
1047:../Library/STM32F10x_StdPeriph_Driver/src/stm32f10x_tim.c **** 
1048:../Library/STM32F10x_StdPeriph_Driver/src/stm32f10x_tim.c **** /**
1049:../Library/STM32F10x_StdPeriph_Driver/src/stm32f10x_tim.c ****   * @brief  Configures the External clock Mode1
1050:../Library/STM32F10x_StdPeriph_Driver/src/stm32f10x_tim.c ****   * @param  TIMx: where x can be  1, 2, 3, 4, 5 or 8 to select the TIM peripheral.
1051:../Library/STM32F10x_StdPeriph_Driver/src/stm32f10x_tim.c ****   * @param  TIM_ExtTRGPrescaler: The external Trigger Prescaler.
1052:../Library/STM32F10x_StdPeriph_Driver/src/stm32f10x_tim.c ****   *   This parameter can be one of the following values:
1053:../Library/STM32F10x_StdPeriph_Driver/src/stm32f10x_tim.c ****   *     @arg TIM_ExtTRGPSC_OFF: ETRP Prescaler OFF.
1054:../Library/STM32F10x_StdPeriph_Driver/src/stm32f10x_tim.c ****   *     @arg TIM_ExtTRGPSC_DIV2: ETRP frequency divided by 2.
1055:../Library/STM32F10x_StdPeriph_Driver/src/stm32f10x_tim.c ****   *     @arg TIM_ExtTRGPSC_DIV4: ETRP frequency divided by 4.
1056:../Library/STM32F10x_StdPeriph_Driver/src/stm32f10x_tim.c ****   *     @arg TIM_ExtTRGPSC_DIV8: ETRP frequency divided by 8.
1057:../Library/STM32F10x_StdPeriph_Driver/src/stm32f10x_tim.c ****   * @param  TIM_ExtTRGPolarity: The external Trigger Polarity.
1058:../Library/STM32F10x_StdPeriph_Driver/src/stm32f10x_tim.c ****   *   This parameter can be one of the following values:
1059:../Library/STM32F10x_StdPeriph_Driver/src/stm32f10x_tim.c ****   *     @arg TIM_ExtTRGPolarity_Inverted: active low or falling edge active.
1060:../Library/STM32F10x_StdPeriph_Driver/src/stm32f10x_tim.c ****   *     @arg TIM_ExtTRGPolarity_NonInverted: active high or rising edge active.
1061:../Library/STM32F10x_StdPeriph_Driver/src/stm32f10x_tim.c ****   * @param  ExtTRGFilter: External Trigger Filter.
1062:../Library/STM32F10x_StdPeriph_Driver/src/stm32f10x_tim.c ****   *   This parameter must be a value between 0x00 and 0x0F
1063:../Library/STM32F10x_StdPeriph_Driver/src/stm32f10x_tim.c ****   * @retval None
1064:../Library/STM32F10x_StdPeriph_Driver/src/stm32f10x_tim.c ****   */
1065:../Library/STM32F10x_StdPeriph_Driver/src/stm32f10x_tim.c **** void TIM_ETRClockMode1Config(TIM_TypeDef* TIMx, uint16_t TIM_ExtTRGPrescaler, uint16_t TIM_ExtTRGPo
1066:../Library/STM32F10x_StdPeriph_Driver/src/stm32f10x_tim.c ****                              uint16_t ExtTRGFilter)
1067:../Library/STM32F10x_StdPeriph_Driver/src/stm32f10x_tim.c **** {
1068:../Library/STM32F10x_StdPeriph_Driver/src/stm32f10x_tim.c ****   uint16_t tmpsmcr = 0;
1069:../Library/STM32F10x_StdPeriph_Driver/src/stm32f10x_tim.c ****   /* Check the parameters */
1070:../Library/STM32F10x_StdPeriph_Driver/src/stm32f10x_tim.c ****   assert_param(IS_TIM_LIST3_PERIPH(TIMx));
1071:../Library/STM32F10x_StdPeriph_Driver/src/stm32f10x_tim.c ****   assert_param(IS_TIM_EXT_PRESCALER(TIM_ExtTRGPrescaler));
1072:../Library/STM32F10x_StdPeriph_Driver/src/stm32f10x_tim.c ****   assert_param(IS_TIM_EXT_POLARITY(TIM_ExtTRGPolarity));
1073:../Library/STM32F10x_StdPeriph_Driver/src/stm32f10x_tim.c ****   assert_param(IS_TIM_EXT_FILTER(ExtTRGFilter));
1074:../Library/STM32F10x_StdPeriph_Driver/src/stm32f10x_tim.c ****   /* Configure the ETR Clock source */
1075:../Library/STM32F10x_StdPeriph_Driver/src/stm32f10x_tim.c ****   TIM_ETRConfig(TIMx, TIM_ExtTRGPrescaler, TIM_ExtTRGPolarity, ExtTRGFilter);
1076:../Library/STM32F10x_StdPeriph_Driver/src/stm32f10x_tim.c ****   
1077:../Library/STM32F10x_StdPeriph_Driver/src/stm32f10x_tim.c ****   /* Get the TIMx SMCR register value */
1078:../Library/STM32F10x_StdPeriph_Driver/src/stm32f10x_tim.c ****   tmpsmcr = TIMx->SMCR;
1079:../Library/STM32F10x_StdPeriph_Driver/src/stm32f10x_tim.c ****   /* Reset the SMS Bits */
1080:../Library/STM32F10x_StdPeriph_Driver/src/stm32f10x_tim.c ****   tmpsmcr &= (uint16_t)(~((uint16_t)TIM_SMCR_SMS));
1081:../Library/STM32F10x_StdPeriph_Driver/src/stm32f10x_tim.c ****   /* Select the External clock mode1 */
1082:../Library/STM32F10x_StdPeriph_Driver/src/stm32f10x_tim.c ****   tmpsmcr |= TIM_SlaveMode_External1;
1083:../Library/STM32F10x_StdPeriph_Driver/src/stm32f10x_tim.c ****   /* Select the Trigger selection : ETRF */
1084:../Library/STM32F10x_StdPeriph_Driver/src/stm32f10x_tim.c ****   tmpsmcr &= (uint16_t)(~((uint16_t)TIM_SMCR_TS));
1085:../Library/STM32F10x_StdPeriph_Driver/src/stm32f10x_tim.c ****   tmpsmcr |= TIM_TS_ETRF;
1086:../Library/STM32F10x_StdPeriph_Driver/src/stm32f10x_tim.c ****   /* Write to TIMx SMCR */
1087:../Library/STM32F10x_StdPeriph_Driver/src/stm32f10x_tim.c ****   TIMx->SMCR = tmpsmcr;
1088:../Library/STM32F10x_StdPeriph_Driver/src/stm32f10x_tim.c **** }
1089:../Library/STM32F10x_StdPeriph_Driver/src/stm32f10x_tim.c **** 
1090:../Library/STM32F10x_StdPeriph_Driver/src/stm32f10x_tim.c **** /**
1091:../Library/STM32F10x_StdPeriph_Driver/src/stm32f10x_tim.c ****   * @brief  Configures the External clock Mode2
1092:../Library/STM32F10x_StdPeriph_Driver/src/stm32f10x_tim.c ****   * @param  TIMx: where x can be  1, 2, 3, 4, 5 or 8 to select the TIM peripheral.
1093:../Library/STM32F10x_StdPeriph_Driver/src/stm32f10x_tim.c ****   * @param  TIM_ExtTRGPrescaler: The external Trigger Prescaler.
1094:../Library/STM32F10x_StdPeriph_Driver/src/stm32f10x_tim.c ****   *   This parameter can be one of the following values:
1095:../Library/STM32F10x_StdPeriph_Driver/src/stm32f10x_tim.c ****   *     @arg TIM_ExtTRGPSC_OFF: ETRP Prescaler OFF.
1096:../Library/STM32F10x_StdPeriph_Driver/src/stm32f10x_tim.c ****   *     @arg TIM_ExtTRGPSC_DIV2: ETRP frequency divided by 2.
1097:../Library/STM32F10x_StdPeriph_Driver/src/stm32f10x_tim.c ****   *     @arg TIM_ExtTRGPSC_DIV4: ETRP frequency divided by 4.
1098:../Library/STM32F10x_StdPeriph_Driver/src/stm32f10x_tim.c ****   *     @arg TIM_ExtTRGPSC_DIV8: ETRP frequency divided by 8.
1099:../Library/STM32F10x_StdPeriph_Driver/src/stm32f10x_tim.c ****   * @param  TIM_ExtTRGPolarity: The external Trigger Polarity.
1100:../Library/STM32F10x_StdPeriph_Driver/src/stm32f10x_tim.c ****   *   This parameter can be one of the following values:
1101:../Library/STM32F10x_StdPeriph_Driver/src/stm32f10x_tim.c ****   *     @arg TIM_ExtTRGPolarity_Inverted: active low or falling edge active.
1102:../Library/STM32F10x_StdPeriph_Driver/src/stm32f10x_tim.c ****   *     @arg TIM_ExtTRGPolarity_NonInverted: active high or rising edge active.
1103:../Library/STM32F10x_StdPeriph_Driver/src/stm32f10x_tim.c ****   * @param  ExtTRGFilter: External Trigger Filter.
1104:../Library/STM32F10x_StdPeriph_Driver/src/stm32f10x_tim.c ****   *   This parameter must be a value between 0x00 and 0x0F
1105:../Library/STM32F10x_StdPeriph_Driver/src/stm32f10x_tim.c ****   * @retval None
1106:../Library/STM32F10x_StdPeriph_Driver/src/stm32f10x_tim.c ****   */
1107:../Library/STM32F10x_StdPeriph_Driver/src/stm32f10x_tim.c **** void TIM_ETRClockMode2Config(TIM_TypeDef* TIMx, uint16_t TIM_ExtTRGPrescaler, 
1108:../Library/STM32F10x_StdPeriph_Driver/src/stm32f10x_tim.c ****                              uint16_t TIM_ExtTRGPolarity, uint16_t ExtTRGFilter)
1109:../Library/STM32F10x_StdPeriph_Driver/src/stm32f10x_tim.c **** {
1110:../Library/STM32F10x_StdPeriph_Driver/src/stm32f10x_tim.c ****   /* Check the parameters */
1111:../Library/STM32F10x_StdPeriph_Driver/src/stm32f10x_tim.c ****   assert_param(IS_TIM_LIST3_PERIPH(TIMx));
1112:../Library/STM32F10x_StdPeriph_Driver/src/stm32f10x_tim.c ****   assert_param(IS_TIM_EXT_PRESCALER(TIM_ExtTRGPrescaler));
1113:../Library/STM32F10x_StdPeriph_Driver/src/stm32f10x_tim.c ****   assert_param(IS_TIM_EXT_POLARITY(TIM_ExtTRGPolarity));
1114:../Library/STM32F10x_StdPeriph_Driver/src/stm32f10x_tim.c ****   assert_param(IS_TIM_EXT_FILTER(ExtTRGFilter));
1115:../Library/STM32F10x_StdPeriph_Driver/src/stm32f10x_tim.c ****   /* Configure the ETR Clock source */
1116:../Library/STM32F10x_StdPeriph_Driver/src/stm32f10x_tim.c ****   TIM_ETRConfig(TIMx, TIM_ExtTRGPrescaler, TIM_ExtTRGPolarity, ExtTRGFilter);
1117:../Library/STM32F10x_StdPeriph_Driver/src/stm32f10x_tim.c ****   /* Enable the External clock mode2 */
1118:../Library/STM32F10x_StdPeriph_Driver/src/stm32f10x_tim.c ****   TIMx->SMCR |= TIM_SMCR_ECE;
1119:../Library/STM32F10x_StdPeriph_Driver/src/stm32f10x_tim.c **** }
1120:../Library/STM32F10x_StdPeriph_Driver/src/stm32f10x_tim.c **** 
1121:../Library/STM32F10x_StdPeriph_Driver/src/stm32f10x_tim.c **** /**
1122:../Library/STM32F10x_StdPeriph_Driver/src/stm32f10x_tim.c ****   * @brief  Configures the TIMx External Trigger (ETR).
1123:../Library/STM32F10x_StdPeriph_Driver/src/stm32f10x_tim.c ****   * @param  TIMx: where x can be  1, 2, 3, 4, 5 or 8 to select the TIM peripheral.
1124:../Library/STM32F10x_StdPeriph_Driver/src/stm32f10x_tim.c ****   * @param  TIM_ExtTRGPrescaler: The external Trigger Prescaler.
1125:../Library/STM32F10x_StdPeriph_Driver/src/stm32f10x_tim.c ****   *   This parameter can be one of the following values:
1126:../Library/STM32F10x_StdPeriph_Driver/src/stm32f10x_tim.c ****   *     @arg TIM_ExtTRGPSC_OFF: ETRP Prescaler OFF.
1127:../Library/STM32F10x_StdPeriph_Driver/src/stm32f10x_tim.c ****   *     @arg TIM_ExtTRGPSC_DIV2: ETRP frequency divided by 2.
1128:../Library/STM32F10x_StdPeriph_Driver/src/stm32f10x_tim.c ****   *     @arg TIM_ExtTRGPSC_DIV4: ETRP frequency divided by 4.
1129:../Library/STM32F10x_StdPeriph_Driver/src/stm32f10x_tim.c ****   *     @arg TIM_ExtTRGPSC_DIV8: ETRP frequency divided by 8.
1130:../Library/STM32F10x_StdPeriph_Driver/src/stm32f10x_tim.c ****   * @param  TIM_ExtTRGPolarity: The external Trigger Polarity.
1131:../Library/STM32F10x_StdPeriph_Driver/src/stm32f10x_tim.c ****   *   This parameter can be one of the following values:
1132:../Library/STM32F10x_StdPeriph_Driver/src/stm32f10x_tim.c ****   *     @arg TIM_ExtTRGPolarity_Inverted: active low or falling edge active.
1133:../Library/STM32F10x_StdPeriph_Driver/src/stm32f10x_tim.c ****   *     @arg TIM_ExtTRGPolarity_NonInverted: active high or rising edge active.
1134:../Library/STM32F10x_StdPeriph_Driver/src/stm32f10x_tim.c ****   * @param  ExtTRGFilter: External Trigger Filter.
1135:../Library/STM32F10x_StdPeriph_Driver/src/stm32f10x_tim.c ****   *   This parameter must be a value between 0x00 and 0x0F
1136:../Library/STM32F10x_StdPeriph_Driver/src/stm32f10x_tim.c ****   * @retval None
1137:../Library/STM32F10x_StdPeriph_Driver/src/stm32f10x_tim.c ****   */
1138:../Library/STM32F10x_StdPeriph_Driver/src/stm32f10x_tim.c **** void TIM_ETRConfig(TIM_TypeDef* TIMx, uint16_t TIM_ExtTRGPrescaler, uint16_t TIM_ExtTRGPolarity,
1139:../Library/STM32F10x_StdPeriph_Driver/src/stm32f10x_tim.c ****                    uint16_t ExtTRGFilter)
1140:../Library/STM32F10x_StdPeriph_Driver/src/stm32f10x_tim.c **** {
 19304              		.loc 1 1140 0
 19305              		.cfi_startproc
 19306              		@ args = 0, pretend = 0, frame = 0
 19307              		@ frame_needed = 0, uses_anonymous_args = 0
 19308              		@ link register save eliminated.
 19309              	.LVL136:
1141:../Library/STM32F10x_StdPeriph_Driver/src/stm32f10x_tim.c ****   uint16_t tmpsmcr = 0;
1142:../Library/STM32F10x_StdPeriph_Driver/src/stm32f10x_tim.c ****   /* Check the parameters */
1143:../Library/STM32F10x_StdPeriph_Driver/src/stm32f10x_tim.c ****   assert_param(IS_TIM_LIST3_PERIPH(TIMx));
1144:../Library/STM32F10x_StdPeriph_Driver/src/stm32f10x_tim.c ****   assert_param(IS_TIM_EXT_PRESCALER(TIM_ExtTRGPrescaler));
1145:../Library/STM32F10x_StdPeriph_Driver/src/stm32f10x_tim.c ****   assert_param(IS_TIM_EXT_POLARITY(TIM_ExtTRGPolarity));
1146:../Library/STM32F10x_StdPeriph_Driver/src/stm32f10x_tim.c ****   assert_param(IS_TIM_EXT_FILTER(ExtTRGFilter));
1147:../Library/STM32F10x_StdPeriph_Driver/src/stm32f10x_tim.c ****   tmpsmcr = TIMx->SMCR;
 19310              		.loc 1 1147 0
 19311 0000 B0F808C0 		ldrh	ip, [r0, #8]
1148:../Library/STM32F10x_StdPeriph_Driver/src/stm32f10x_tim.c ****   /* Reset the ETR Bits */
1149:../Library/STM32F10x_StdPeriph_Driver/src/stm32f10x_tim.c ****   tmpsmcr &= SMCR_ETR_Mask;
1150:../Library/STM32F10x_StdPeriph_Driver/src/stm32f10x_tim.c ****   /* Set the Prescaler, the Filter value and the Polarity */
1151:../Library/STM32F10x_StdPeriph_Driver/src/stm32f10x_tim.c ****   tmpsmcr |= (uint16_t)(TIM_ExtTRGPrescaler | (uint16_t)(TIM_ExtTRGPolarity | (uint16_t)(ExtTRGFilt
 19312              		.loc 1 1151 0
 19313 0004 5FFA8CFC 		uxtb	ip, ip
 19314 0008 41EA0C0C 		orr	ip, r1, ip
 19315 000c 4CEA020C 		orr	ip, ip, r2
 19316 0010 4CEA032C 		orr	ip, ip, r3, lsl #8
 19317 0014 1FFA8CFC 		uxth	ip, ip
 19318              	.LVL137:
1152:../Library/STM32F10x_StdPeriph_Driver/src/stm32f10x_tim.c ****   /* Write to TIMx SMCR */
1153:../Library/STM32F10x_StdPeriph_Driver/src/stm32f10x_tim.c ****   TIMx->SMCR = tmpsmcr;
 19319              		.loc 1 1153 0
 19320 0018 A0F808C0 		strh	ip, [r0, #8]	@ movhi
1154:../Library/STM32F10x_StdPeriph_Driver/src/stm32f10x_tim.c **** }
 19321              		.loc 1 1154 0
 19322 001c 7047     		bx	lr
 19323              		.cfi_endproc
 19324              	.LFE53:
 19326 001e 00BF     		.section	.text.TIM_ETRClockMode2Config,"ax",%progbits
 19327              		.align	2
 19328              		.global	TIM_ETRClockMode2Config
 19329              		.thumb
 19330              		.thumb_func
 19332              	TIM_ETRClockMode2Config:
 19333              	.LFB52:
 19334              		.loc 1 1109 0
 19335              		.cfi_startproc
 19336              		@ args = 0, pretend = 0, frame = 0
 19337              		@ frame_needed = 0, uses_anonymous_args = 0
 19338              	.LVL138:
 19339 0000 10B5     		push	{r4, lr}
 19340              	.LCFI5:
 19341              		.cfi_def_cfa_offset 8
 19342 0002 0446     		mov	r4, r0
 19343              		.cfi_offset 14, -4
 19344              		.cfi_offset 4, -8
 19345              		.loc 1 1116 0
 19346 0004 FFF7FEFF 		bl	TIM_ETRConfig
 19347              	.LVL139:
 19348              		.loc 1 1118 0
 19349 0008 2389     		ldrh	r3, [r4, #8]
 19350 000a 9BB2     		uxth	r3, r3
 19351 000c 43F48043 		orr	r3, r3, #16384
 19352 0010 2381     		strh	r3, [r4, #8]	@ movhi
 19353              		.loc 1 1119 0
 19354 0012 10BD     		pop	{r4, pc}
 19355              		.cfi_endproc
 19356              	.LFE52:
 19358              		.section	.text.TIM_ETRClockMode1Config,"ax",%progbits
 19359              		.align	2
 19360              		.global	TIM_ETRClockMode1Config
 19361              		.thumb
 19362              		.thumb_func
 19364              	TIM_ETRClockMode1Config:
 19365              	.LFB51:
 19366              		.loc 1 1067 0
 19367              		.cfi_startproc
 19368              		@ args = 0, pretend = 0, frame = 0
 19369              		@ frame_needed = 0, uses_anonymous_args = 0
 19370              	.LVL140:
 19371 0000 10B5     		push	{r4, lr}
 19372              	.LCFI6:
 19373              		.cfi_def_cfa_offset 8
 19374 0002 0446     		mov	r4, r0
 19375              		.cfi_offset 14, -4
 19376              		.cfi_offset 4, -8
 19377              		.loc 1 1075 0
 19378 0004 FFF7FEFF 		bl	TIM_ETRConfig
 19379              	.LVL141:
 19380              		.loc 1 1078 0
 19381 0008 2389     		ldrh	r3, [r4, #8]
 19382              		.loc 1 1082 0
 19383 000a 23F07703 		bic	r3, r3, #119
 19384              	.LVL142:
 19385 000e 4FEA0343 		lsl	r3, r3, #16
 19386              	.LVL143:
 19387 0012 4FEA1343 		lsr	r3, r3, #16
 19388              	.LVL144:
 19389              		.loc 1 1085 0
 19390 0016 43F07703 		orr	r3, r3, #119
 19391              	.LVL145:
 19392              		.loc 1 1087 0
 19393 001a 2381     		strh	r3, [r4, #8]	@ movhi
 19394              		.loc 1 1088 0
 19395 001c 10BD     		pop	{r4, pc}
 19396              		.cfi_endproc
 19397              	.LFE51:
 19399 001e 00BF     		.section	.text.TIM_PrescalerConfig,"ax",%progbits
 19400              		.align	2
 19401              		.global	TIM_PrescalerConfig
 19402              		.thumb
 19403              		.thumb_func
 19405              	TIM_PrescalerConfig:
 19406              	.LFB54:
1155:../Library/STM32F10x_StdPeriph_Driver/src/stm32f10x_tim.c **** 
1156:../Library/STM32F10x_StdPeriph_Driver/src/stm32f10x_tim.c **** /**
1157:../Library/STM32F10x_StdPeriph_Driver/src/stm32f10x_tim.c ****   * @brief  Configures the TIMx Prescaler.
1158:../Library/STM32F10x_StdPeriph_Driver/src/stm32f10x_tim.c ****   * @param  TIMx: where x can be 1 to 17 to select the TIM peripheral.
1159:../Library/STM32F10x_StdPeriph_Driver/src/stm32f10x_tim.c ****   * @param  Prescaler: specifies the Prescaler Register value
1160:../Library/STM32F10x_StdPeriph_Driver/src/stm32f10x_tim.c ****   * @param  TIM_PSCReloadMode: specifies the TIM Prescaler Reload mode
1161:../Library/STM32F10x_StdPeriph_Driver/src/stm32f10x_tim.c ****   *   This parameter can be one of the following values:
1162:../Library/STM32F10x_StdPeriph_Driver/src/stm32f10x_tim.c ****   *     @arg TIM_PSCReloadMode_Update: The Prescaler is loaded at the update event.
1163:../Library/STM32F10x_StdPeriph_Driver/src/stm32f10x_tim.c ****   *     @arg TIM_PSCReloadMode_Immediate: The Prescaler is loaded immediately.
1164:../Library/STM32F10x_StdPeriph_Driver/src/stm32f10x_tim.c ****   * @retval None
1165:../Library/STM32F10x_StdPeriph_Driver/src/stm32f10x_tim.c ****   */
1166:../Library/STM32F10x_StdPeriph_Driver/src/stm32f10x_tim.c **** void TIM_PrescalerConfig(TIM_TypeDef* TIMx, uint16_t Prescaler, uint16_t TIM_PSCReloadMode)
1167:../Library/STM32F10x_StdPeriph_Driver/src/stm32f10x_tim.c **** {
 19407              		.loc 1 1167 0
 19408              		.cfi_startproc
 19409              		@ args = 0, pretend = 0, frame = 0
 19410              		@ frame_needed = 0, uses_anonymous_args = 0
 19411              		@ link register save eliminated.
 19412              	.LVL146:
1168:../Library/STM32F10x_StdPeriph_Driver/src/stm32f10x_tim.c ****   /* Check the parameters */
1169:../Library/STM32F10x_StdPeriph_Driver/src/stm32f10x_tim.c ****   assert_param(IS_TIM_ALL_PERIPH(TIMx));
1170:../Library/STM32F10x_StdPeriph_Driver/src/stm32f10x_tim.c ****   assert_param(IS_TIM_PRESCALER_RELOAD(TIM_PSCReloadMode));
1171:../Library/STM32F10x_StdPeriph_Driver/src/stm32f10x_tim.c ****   /* Set the Prescaler value */
1172:../Library/STM32F10x_StdPeriph_Driver/src/stm32f10x_tim.c ****   TIMx->PSC = Prescaler;
 19413              		.loc 1 1172 0
 19414 0000 0185     		strh	r1, [r0, #40]	@ movhi
1173:../Library/STM32F10x_StdPeriph_Driver/src/stm32f10x_tim.c ****   /* Set or reset the UG Bit */
1174:../Library/STM32F10x_StdPeriph_Driver/src/stm32f10x_tim.c ****   TIMx->EGR = TIM_PSCReloadMode;
 19415              		.loc 1 1174 0
 19416 0002 8282     		strh	r2, [r0, #20]	@ movhi
1175:../Library/STM32F10x_StdPeriph_Driver/src/stm32f10x_tim.c **** }
 19417              		.loc 1 1175 0
 19418 0004 7047     		bx	lr
 19419              		.cfi_endproc
 19420              	.LFE54:
 19422              		.section	.text.TIM_CounterModeConfig,"ax",%progbits
 19423              		.align	2
 19424              		.global	TIM_CounterModeConfig
 19425              		.thumb
 19426              		.thumb_func
 19428              	TIM_CounterModeConfig:
 19429              	.LFB55:
1176:../Library/STM32F10x_StdPeriph_Driver/src/stm32f10x_tim.c **** 
1177:../Library/STM32F10x_StdPeriph_Driver/src/stm32f10x_tim.c **** /**
1178:../Library/STM32F10x_StdPeriph_Driver/src/stm32f10x_tim.c ****   * @brief  Specifies the TIMx Counter Mode to be used.
1179:../Library/STM32F10x_StdPeriph_Driver/src/stm32f10x_tim.c ****   * @param  TIMx: where x can be  1, 2, 3, 4, 5 or 8 to select the TIM peripheral.
1180:../Library/STM32F10x_StdPeriph_Driver/src/stm32f10x_tim.c ****   * @param  TIM_CounterMode: specifies the Counter Mode to be used
1181:../Library/STM32F10x_StdPeriph_Driver/src/stm32f10x_tim.c ****   *   This parameter can be one of the following values:
1182:../Library/STM32F10x_StdPeriph_Driver/src/stm32f10x_tim.c ****   *     @arg TIM_CounterMode_Up: TIM Up Counting Mode
1183:../Library/STM32F10x_StdPeriph_Driver/src/stm32f10x_tim.c ****   *     @arg TIM_CounterMode_Down: TIM Down Counting Mode
1184:../Library/STM32F10x_StdPeriph_Driver/src/stm32f10x_tim.c ****   *     @arg TIM_CounterMode_CenterAligned1: TIM Center Aligned Mode1
1185:../Library/STM32F10x_StdPeriph_Driver/src/stm32f10x_tim.c ****   *     @arg TIM_CounterMode_CenterAligned2: TIM Center Aligned Mode2
1186:../Library/STM32F10x_StdPeriph_Driver/src/stm32f10x_tim.c ****   *     @arg TIM_CounterMode_CenterAligned3: TIM Center Aligned Mode3
1187:../Library/STM32F10x_StdPeriph_Driver/src/stm32f10x_tim.c ****   * @retval None
1188:../Library/STM32F10x_StdPeriph_Driver/src/stm32f10x_tim.c ****   */
1189:../Library/STM32F10x_StdPeriph_Driver/src/stm32f10x_tim.c **** void TIM_CounterModeConfig(TIM_TypeDef* TIMx, uint16_t TIM_CounterMode)
1190:../Library/STM32F10x_StdPeriph_Driver/src/stm32f10x_tim.c **** {
 19430              		.loc 1 1190 0
 19431              		.cfi_startproc
 19432              		@ args = 0, pretend = 0, frame = 0
 19433              		@ frame_needed = 0, uses_anonymous_args = 0
 19434              		@ link register save eliminated.
 19435              	.LVL147:
1191:../Library/STM32F10x_StdPeriph_Driver/src/stm32f10x_tim.c ****   uint16_t tmpcr1 = 0;
1192:../Library/STM32F10x_StdPeriph_Driver/src/stm32f10x_tim.c ****   /* Check the parameters */
1193:../Library/STM32F10x_StdPeriph_Driver/src/stm32f10x_tim.c ****   assert_param(IS_TIM_LIST3_PERIPH(TIMx));
1194:../Library/STM32F10x_StdPeriph_Driver/src/stm32f10x_tim.c ****   assert_param(IS_TIM_COUNTER_MODE(TIM_CounterMode));
1195:../Library/STM32F10x_StdPeriph_Driver/src/stm32f10x_tim.c ****   tmpcr1 = TIMx->CR1;
 19436              		.loc 1 1195 0
 19437 0000 0388     		ldrh	r3, [r0, #0]
1196:../Library/STM32F10x_StdPeriph_Driver/src/stm32f10x_tim.c ****   /* Reset the CMS and DIR Bits */
1197:../Library/STM32F10x_StdPeriph_Driver/src/stm32f10x_tim.c ****   tmpcr1 &= (uint16_t)(~((uint16_t)(TIM_CR1_DIR | TIM_CR1_CMS)));
 19438              		.loc 1 1197 0
 19439 0002 23F07003 		bic	r3, r3, #112
 19440              	.LVL148:
 19441 0006 4FEA0343 		lsl	r3, r3, #16
 19442              	.LVL149:
 19443 000a 4FEA1343 		lsr	r3, r3, #16
 19444              	.LVL150:
1198:../Library/STM32F10x_StdPeriph_Driver/src/stm32f10x_tim.c ****   /* Set the Counter Mode */
1199:../Library/STM32F10x_StdPeriph_Driver/src/stm32f10x_tim.c ****   tmpcr1 |= TIM_CounterMode;
 19445              		.loc 1 1199 0
 19446 000e 41EA0303 		orr	r3, r1, r3
 19447              	.LVL151:
1200:../Library/STM32F10x_StdPeriph_Driver/src/stm32f10x_tim.c ****   /* Write to TIMx CR1 register */
1201:../Library/STM32F10x_StdPeriph_Driver/src/stm32f10x_tim.c ****   TIMx->CR1 = tmpcr1;
 19448              		.loc 1 1201 0
 19449 0012 0380     		strh	r3, [r0, #0]	@ movhi
1202:../Library/STM32F10x_StdPeriph_Driver/src/stm32f10x_tim.c **** }
 19450              		.loc 1 1202 0
 19451 0014 7047     		bx	lr
 19452              		.cfi_endproc
 19453              	.LFE55:
 19455 0016 00BF     		.section	.text.TIM_SelectInputTrigger,"ax",%progbits
 19456              		.align	2
 19457              		.global	TIM_SelectInputTrigger
 19458              		.thumb
 19459              		.thumb_func
 19461              	TIM_SelectInputTrigger:
 19462              	.LFB56:
1203:../Library/STM32F10x_StdPeriph_Driver/src/stm32f10x_tim.c **** 
1204:../Library/STM32F10x_StdPeriph_Driver/src/stm32f10x_tim.c **** /**
1205:../Library/STM32F10x_StdPeriph_Driver/src/stm32f10x_tim.c ****   * @brief  Selects the Input Trigger source
1206:../Library/STM32F10x_StdPeriph_Driver/src/stm32f10x_tim.c ****   * @param  TIMx: where x can be  1, 2, 3, 4, 5, 8, 9, 12 or 15 to select the TIM peripheral.
1207:../Library/STM32F10x_StdPeriph_Driver/src/stm32f10x_tim.c ****   * @param  TIM_InputTriggerSource: The Input Trigger source.
1208:../Library/STM32F10x_StdPeriph_Driver/src/stm32f10x_tim.c ****   *   This parameter can be one of the following values:
1209:../Library/STM32F10x_StdPeriph_Driver/src/stm32f10x_tim.c ****   *     @arg TIM_TS_ITR0: Internal Trigger 0
1210:../Library/STM32F10x_StdPeriph_Driver/src/stm32f10x_tim.c ****   *     @arg TIM_TS_ITR1: Internal Trigger 1
1211:../Library/STM32F10x_StdPeriph_Driver/src/stm32f10x_tim.c ****   *     @arg TIM_TS_ITR2: Internal Trigger 2
1212:../Library/STM32F10x_StdPeriph_Driver/src/stm32f10x_tim.c ****   *     @arg TIM_TS_ITR3: Internal Trigger 3
1213:../Library/STM32F10x_StdPeriph_Driver/src/stm32f10x_tim.c ****   *     @arg TIM_TS_TI1F_ED: TI1 Edge Detector
1214:../Library/STM32F10x_StdPeriph_Driver/src/stm32f10x_tim.c ****   *     @arg TIM_TS_TI1FP1: Filtered Timer Input 1
1215:../Library/STM32F10x_StdPeriph_Driver/src/stm32f10x_tim.c ****   *     @arg TIM_TS_TI2FP2: Filtered Timer Input 2
1216:../Library/STM32F10x_StdPeriph_Driver/src/stm32f10x_tim.c ****   *     @arg TIM_TS_ETRF: External Trigger input
1217:../Library/STM32F10x_StdPeriph_Driver/src/stm32f10x_tim.c ****   * @retval None
1218:../Library/STM32F10x_StdPeriph_Driver/src/stm32f10x_tim.c ****   */
1219:../Library/STM32F10x_StdPeriph_Driver/src/stm32f10x_tim.c **** void TIM_SelectInputTrigger(TIM_TypeDef* TIMx, uint16_t TIM_InputTriggerSource)
1220:../Library/STM32F10x_StdPeriph_Driver/src/stm32f10x_tim.c **** {
 19463              		.loc 1 1220 0
 19464              		.cfi_startproc
 19465              		@ args = 0, pretend = 0, frame = 0
 19466              		@ frame_needed = 0, uses_anonymous_args = 0
 19467              		@ link register save eliminated.
 19468              	.LVL152:
1221:../Library/STM32F10x_StdPeriph_Driver/src/stm32f10x_tim.c ****   uint16_t tmpsmcr = 0;
1222:../Library/STM32F10x_StdPeriph_Driver/src/stm32f10x_tim.c ****   /* Check the parameters */
1223:../Library/STM32F10x_StdPeriph_Driver/src/stm32f10x_tim.c ****   assert_param(IS_TIM_LIST6_PERIPH(TIMx));
1224:../Library/STM32F10x_StdPeriph_Driver/src/stm32f10x_tim.c ****   assert_param(IS_TIM_TRIGGER_SELECTION(TIM_InputTriggerSource));
1225:../Library/STM32F10x_StdPeriph_Driver/src/stm32f10x_tim.c ****   /* Get the TIMx SMCR register value */
1226:../Library/STM32F10x_StdPeriph_Driver/src/stm32f10x_tim.c ****   tmpsmcr = TIMx->SMCR;
 19469              		.loc 1 1226 0
 19470 0000 0389     		ldrh	r3, [r0, #8]
1227:../Library/STM32F10x_StdPeriph_Driver/src/stm32f10x_tim.c ****   /* Reset the TS Bits */
1228:../Library/STM32F10x_StdPeriph_Driver/src/stm32f10x_tim.c ****   tmpsmcr &= (uint16_t)(~((uint16_t)TIM_SMCR_TS));
 19471              		.loc 1 1228 0
 19472 0002 23F07003 		bic	r3, r3, #112
 19473              	.LVL153:
 19474 0006 4FEA0343 		lsl	r3, r3, #16
 19475              	.LVL154:
 19476 000a 4FEA1343 		lsr	r3, r3, #16
 19477              	.LVL155:
1229:../Library/STM32F10x_StdPeriph_Driver/src/stm32f10x_tim.c ****   /* Set the Input Trigger source */
1230:../Library/STM32F10x_StdPeriph_Driver/src/stm32f10x_tim.c ****   tmpsmcr |= TIM_InputTriggerSource;
 19478              		.loc 1 1230 0
 19479 000e 41EA0303 		orr	r3, r1, r3
 19480              	.LVL156:
1231:../Library/STM32F10x_StdPeriph_Driver/src/stm32f10x_tim.c ****   /* Write to TIMx SMCR */
1232:../Library/STM32F10x_StdPeriph_Driver/src/stm32f10x_tim.c ****   TIMx->SMCR = tmpsmcr;
 19481              		.loc 1 1232 0
 19482 0012 0381     		strh	r3, [r0, #8]	@ movhi
1233:../Library/STM32F10x_StdPeriph_Driver/src/stm32f10x_tim.c **** }
 19483              		.loc 1 1233 0
 19484 0014 7047     		bx	lr
 19485              		.cfi_endproc
 19486              	.LFE56:
 19488 0016 00BF     		.section	.text.TIM_ITRxExternalClockConfig,"ax",%progbits
 19489              		.align	2
 19490              		.global	TIM_ITRxExternalClockConfig
 19491              		.thumb
 19492              		.thumb_func
 19494              	TIM_ITRxExternalClockConfig:
 19495              	.LFB49:
 19496              		.loc 1 999 0
 19497              		.cfi_startproc
 19498              		@ args = 0, pretend = 0, frame = 0
 19499              		@ frame_needed = 0, uses_anonymous_args = 0
 19500              	.LVL157:
 19501 0000 10B5     		push	{r4, lr}
 19502              	.LCFI7:
 19503              		.cfi_def_cfa_offset 8
 19504 0002 0446     		mov	r4, r0
 19505              		.cfi_offset 14, -4
 19506              		.cfi_offset 4, -8
 19507              		.loc 1 1004 0
 19508 0004 FFF7FEFF 		bl	TIM_SelectInputTrigger
 19509              	.LVL158:
 19510              		.loc 1 1006 0
 19511 0008 2389     		ldrh	r3, [r4, #8]
 19512 000a 9BB2     		uxth	r3, r3
 19513 000c 43F00703 		orr	r3, r3, #7
 19514 0010 2381     		strh	r3, [r4, #8]	@ movhi
 19515              		.loc 1 1007 0
 19516 0012 10BD     		pop	{r4, pc}
 19517              		.cfi_endproc
 19518              	.LFE49:
 19520              		.section	.text.TIM_EncoderInterfaceConfig,"ax",%progbits
 19521              		.align	2
 19522              		.global	TIM_EncoderInterfaceConfig
 19523              		.thumb
 19524              		.thumb_func
 19526              	TIM_EncoderInterfaceConfig:
 19527              	.LFB57:
1234:../Library/STM32F10x_StdPeriph_Driver/src/stm32f10x_tim.c **** 
1235:../Library/STM32F10x_StdPeriph_Driver/src/stm32f10x_tim.c **** /**
1236:../Library/STM32F10x_StdPeriph_Driver/src/stm32f10x_tim.c ****   * @brief  Configures the TIMx Encoder Interface.
1237:../Library/STM32F10x_StdPeriph_Driver/src/stm32f10x_tim.c ****   * @param  TIMx: where x can be  1, 2, 3, 4, 5 or 8 to select the TIM peripheral.
1238:../Library/STM32F10x_StdPeriph_Driver/src/stm32f10x_tim.c ****   * @param  TIM_EncoderMode: specifies the TIMx Encoder Mode.
1239:../Library/STM32F10x_StdPeriph_Driver/src/stm32f10x_tim.c ****   *   This parameter can be one of the following values:
1240:../Library/STM32F10x_StdPeriph_Driver/src/stm32f10x_tim.c ****   *     @arg TIM_EncoderMode_TI1: Counter counts on TI1FP1 edge depending on TI2FP2 level.
1241:../Library/STM32F10x_StdPeriph_Driver/src/stm32f10x_tim.c ****   *     @arg TIM_EncoderMode_TI2: Counter counts on TI2FP2 edge depending on TI1FP1 level.
1242:../Library/STM32F10x_StdPeriph_Driver/src/stm32f10x_tim.c ****   *     @arg TIM_EncoderMode_TI12: Counter counts on both TI1FP1 and TI2FP2 edges depending
1243:../Library/STM32F10x_StdPeriph_Driver/src/stm32f10x_tim.c ****   *                                on the level of the other input.
1244:../Library/STM32F10x_StdPeriph_Driver/src/stm32f10x_tim.c ****   * @param  TIM_IC1Polarity: specifies the IC1 Polarity
1245:../Library/STM32F10x_StdPeriph_Driver/src/stm32f10x_tim.c ****   *   This parmeter can be one of the following values:
1246:../Library/STM32F10x_StdPeriph_Driver/src/stm32f10x_tim.c ****   *     @arg TIM_ICPolarity_Falling: IC Falling edge.
1247:../Library/STM32F10x_StdPeriph_Driver/src/stm32f10x_tim.c ****   *     @arg TIM_ICPolarity_Rising: IC Rising edge.
1248:../Library/STM32F10x_StdPeriph_Driver/src/stm32f10x_tim.c ****   * @param  TIM_IC2Polarity: specifies the IC2 Polarity
1249:../Library/STM32F10x_StdPeriph_Driver/src/stm32f10x_tim.c ****   *   This parmeter can be one of the following values:
1250:../Library/STM32F10x_StdPeriph_Driver/src/stm32f10x_tim.c ****   *     @arg TIM_ICPolarity_Falling: IC Falling edge.
1251:../Library/STM32F10x_StdPeriph_Driver/src/stm32f10x_tim.c ****   *     @arg TIM_ICPolarity_Rising: IC Rising edge.
1252:../Library/STM32F10x_StdPeriph_Driver/src/stm32f10x_tim.c ****   * @retval None
1253:../Library/STM32F10x_StdPeriph_Driver/src/stm32f10x_tim.c ****   */
1254:../Library/STM32F10x_StdPeriph_Driver/src/stm32f10x_tim.c **** void TIM_EncoderInterfaceConfig(TIM_TypeDef* TIMx, uint16_t TIM_EncoderMode,
1255:../Library/STM32F10x_StdPeriph_Driver/src/stm32f10x_tim.c ****                                 uint16_t TIM_IC1Polarity, uint16_t TIM_IC2Polarity)
1256:../Library/STM32F10x_StdPeriph_Driver/src/stm32f10x_tim.c **** {
 19528              		.loc 1 1256 0
 19529              		.cfi_startproc
 19530              		@ args = 0, pretend = 0, frame = 0
 19531              		@ frame_needed = 0, uses_anonymous_args = 0
 19532              		@ link register save eliminated.
 19533              	.LVL159:
 19534 0000 30B4     		push	{r4, r5}
 19535              	.LCFI8:
 19536              		.cfi_def_cfa_offset 8
1257:../Library/STM32F10x_StdPeriph_Driver/src/stm32f10x_tim.c ****   uint16_t tmpsmcr = 0;
1258:../Library/STM32F10x_StdPeriph_Driver/src/stm32f10x_tim.c ****   uint16_t tmpccmr1 = 0;
1259:../Library/STM32F10x_StdPeriph_Driver/src/stm32f10x_tim.c ****   uint16_t tmpccer = 0;
1260:../Library/STM32F10x_StdPeriph_Driver/src/stm32f10x_tim.c ****     
1261:../Library/STM32F10x_StdPeriph_Driver/src/stm32f10x_tim.c ****   /* Check the parameters */
1262:../Library/STM32F10x_StdPeriph_Driver/src/stm32f10x_tim.c ****   assert_param(IS_TIM_LIST5_PERIPH(TIMx));
1263:../Library/STM32F10x_StdPeriph_Driver/src/stm32f10x_tim.c ****   assert_param(IS_TIM_ENCODER_MODE(TIM_EncoderMode));
1264:../Library/STM32F10x_StdPeriph_Driver/src/stm32f10x_tim.c ****   assert_param(IS_TIM_IC_POLARITY(TIM_IC1Polarity));
1265:../Library/STM32F10x_StdPeriph_Driver/src/stm32f10x_tim.c ****   assert_param(IS_TIM_IC_POLARITY(TIM_IC2Polarity));
1266:../Library/STM32F10x_StdPeriph_Driver/src/stm32f10x_tim.c **** 
1267:../Library/STM32F10x_StdPeriph_Driver/src/stm32f10x_tim.c ****   /* Get the TIMx SMCR register value */
1268:../Library/STM32F10x_StdPeriph_Driver/src/stm32f10x_tim.c ****   tmpsmcr = TIMx->SMCR;
 19537              		.loc 1 1268 0
 19538 0002 B0F808C0 		ldrh	ip, [r0, #8]
1269:../Library/STM32F10x_StdPeriph_Driver/src/stm32f10x_tim.c ****   
1270:../Library/STM32F10x_StdPeriph_Driver/src/stm32f10x_tim.c ****   /* Get the TIMx CCMR1 register value */
1271:../Library/STM32F10x_StdPeriph_Driver/src/stm32f10x_tim.c ****   tmpccmr1 = TIMx->CCMR1;
 19539              		.loc 1 1271 0
 19540 0006 058B     		ldrh	r5, [r0, #24]
 19541              		.cfi_offset 5, -4
 19542              		.cfi_offset 4, -8
1272:../Library/STM32F10x_StdPeriph_Driver/src/stm32f10x_tim.c ****   
1273:../Library/STM32F10x_StdPeriph_Driver/src/stm32f10x_tim.c ****   /* Get the TIMx CCER register value */
1274:../Library/STM32F10x_StdPeriph_Driver/src/stm32f10x_tim.c ****   tmpccer = TIMx->CCER;
 19543              		.loc 1 1274 0
 19544 0008 048C     		ldrh	r4, [r0, #32]
1275:../Library/STM32F10x_StdPeriph_Driver/src/stm32f10x_tim.c ****   
1276:../Library/STM32F10x_StdPeriph_Driver/src/stm32f10x_tim.c ****   /* Set the encoder Mode */
1277:../Library/STM32F10x_StdPeriph_Driver/src/stm32f10x_tim.c ****   tmpsmcr &= (uint16_t)(~((uint16_t)TIM_SMCR_SMS));
 19545              		.loc 1 1277 0
 19546 000a 2CF0070C 		bic	ip, ip, #7
 19547              	.LVL160:
 19548 000e 4FEA0C4C 		lsl	ip, ip, #16
 19549              	.LVL161:
 19550 0012 4FEA1C4C 		lsr	ip, ip, #16
 19551              	.LVL162:
1278:../Library/STM32F10x_StdPeriph_Driver/src/stm32f10x_tim.c ****   tmpsmcr |= TIM_EncoderMode;
 19552              		.loc 1 1278 0
 19553 0016 41EA0C01 		orr	r1, r1, ip
 19554              	.LVL163:
1279:../Library/STM32F10x_StdPeriph_Driver/src/stm32f10x_tim.c ****   
1280:../Library/STM32F10x_StdPeriph_Driver/src/stm32f10x_tim.c ****   /* Select the Capture Compare 1 and the Capture Compare 2 as input */
1281:../Library/STM32F10x_StdPeriph_Driver/src/stm32f10x_tim.c ****   tmpccmr1 &= (uint16_t)(((uint16_t)~((uint16_t)TIM_CCMR1_CC1S)) & (uint16_t)(~((uint16_t)TIM_CCMR1
 19555              		.loc 1 1281 0
 19556 001a 25F44075 		bic	r5, r5, #768
 19557              	.LVL164:
 19558 001e 25F00305 		bic	r5, r5, #3
 19559              	.LVL165:
 19560 0022 4FEA0545 		lsl	r5, r5, #16
 19561              	.LVL166:
 19562 0026 4FEA1545 		lsr	r5, r5, #16
 19563              	.LVL167:
1282:../Library/STM32F10x_StdPeriph_Driver/src/stm32f10x_tim.c ****   tmpccmr1 |= TIM_CCMR1_CC1S_0 | TIM_CCMR1_CC2S_0;
 19564              		.loc 1 1282 0
 19565 002a 45F48075 		orr	r5, r5, #256
 19566              	.LVL168:
 19567 002e 45F00105 		orr	r5, r5, #1
 19568              	.LVL169:
1283:../Library/STM32F10x_StdPeriph_Driver/src/stm32f10x_tim.c ****   
1284:../Library/STM32F10x_StdPeriph_Driver/src/stm32f10x_tim.c ****   /* Set the TI1 and the TI2 Polarities */
1285:../Library/STM32F10x_StdPeriph_Driver/src/stm32f10x_tim.c ****   tmpccer &= (uint16_t)(((uint16_t)~((uint16_t)TIM_CCER_CC1P)) & ((uint16_t)~((uint16_t)TIM_CCER_CC
1286:../Library/STM32F10x_StdPeriph_Driver/src/stm32f10x_tim.c ****   tmpccer |= (uint16_t)(TIM_IC1Polarity | (uint16_t)(TIM_IC2Polarity << (uint16_t)4));
 19569              		.loc 1 1286 0
 19570 0032 24F02204 		bic	r4, r4, #34
 19571 0036 4FEA0444 		lsl	r4, r4, #16
 19572 003a 4FEA1444 		lsr	r4, r4, #16
 19573 003e 44EA0204 		orr	r4, r4, r2
 19574 0042 44EA0314 		orr	r4, r4, r3, lsl #4
 19575 0046 A4B2     		uxth	r4, r4
 19576              	.LVL170:
1287:../Library/STM32F10x_StdPeriph_Driver/src/stm32f10x_tim.c ****   
1288:../Library/STM32F10x_StdPeriph_Driver/src/stm32f10x_tim.c ****   /* Write to TIMx SMCR */
1289:../Library/STM32F10x_StdPeriph_Driver/src/stm32f10x_tim.c ****   TIMx->SMCR = tmpsmcr;
 19577              		.loc 1 1289 0
 19578 0048 0181     		strh	r1, [r0, #8]	@ movhi
1290:../Library/STM32F10x_StdPeriph_Driver/src/stm32f10x_tim.c ****   /* Write to TIMx CCMR1 */
1291:../Library/STM32F10x_StdPeriph_Driver/src/stm32f10x_tim.c ****   TIMx->CCMR1 = tmpccmr1;
 19579              		.loc 1 1291 0
 19580 004a 0583     		strh	r5, [r0, #24]	@ movhi
1292:../Library/STM32F10x_StdPeriph_Driver/src/stm32f10x_tim.c ****   /* Write to TIMx CCER */
1293:../Library/STM32F10x_StdPeriph_Driver/src/stm32f10x_tim.c ****   TIMx->CCER = tmpccer;
 19581              		.loc 1 1293 0
 19582 004c 0484     		strh	r4, [r0, #32]	@ movhi
1294:../Library/STM32F10x_StdPeriph_Driver/src/stm32f10x_tim.c **** }
 19583              		.loc 1 1294 0
 19584 004e 30BC     		pop	{r4, r5}
 19585 0050 7047     		bx	lr
 19586              		.cfi_endproc
 19587              	.LFE57:
 19589 0052 00BF     		.section	.text.TIM_ForcedOC1Config,"ax",%progbits
 19590              		.align	2
 19591              		.global	TIM_ForcedOC1Config
 19592              		.thumb
 19593              		.thumb_func
 19595              	TIM_ForcedOC1Config:
 19596              	.LFB58:
1295:../Library/STM32F10x_StdPeriph_Driver/src/stm32f10x_tim.c **** 
1296:../Library/STM32F10x_StdPeriph_Driver/src/stm32f10x_tim.c **** /**
1297:../Library/STM32F10x_StdPeriph_Driver/src/stm32f10x_tim.c ****   * @brief  Forces the TIMx output 1 waveform to active or inactive level.
1298:../Library/STM32F10x_StdPeriph_Driver/src/stm32f10x_tim.c ****   * @param  TIMx: where x can be  1 to 17 except 6 and 7 to select the TIM peripheral.
1299:../Library/STM32F10x_StdPeriph_Driver/src/stm32f10x_tim.c ****   * @param  TIM_ForcedAction: specifies the forced Action to be set to the output waveform.
1300:../Library/STM32F10x_StdPeriph_Driver/src/stm32f10x_tim.c ****   *   This parameter can be one of the following values:
1301:../Library/STM32F10x_StdPeriph_Driver/src/stm32f10x_tim.c ****   *     @arg TIM_ForcedAction_Active: Force active level on OC1REF
1302:../Library/STM32F10x_StdPeriph_Driver/src/stm32f10x_tim.c ****   *     @arg TIM_ForcedAction_InActive: Force inactive level on OC1REF.
1303:../Library/STM32F10x_StdPeriph_Driver/src/stm32f10x_tim.c ****   * @retval None
1304:../Library/STM32F10x_StdPeriph_Driver/src/stm32f10x_tim.c ****   */
1305:../Library/STM32F10x_StdPeriph_Driver/src/stm32f10x_tim.c **** void TIM_ForcedOC1Config(TIM_TypeDef* TIMx, uint16_t TIM_ForcedAction)
1306:../Library/STM32F10x_StdPeriph_Driver/src/stm32f10x_tim.c **** {
 19597              		.loc 1 1306 0
 19598              		.cfi_startproc
 19599              		@ args = 0, pretend = 0, frame = 0
 19600              		@ frame_needed = 0, uses_anonymous_args = 0
 19601              		@ link register save eliminated.
 19602              	.LVL171:
1307:../Library/STM32F10x_StdPeriph_Driver/src/stm32f10x_tim.c ****   uint16_t tmpccmr1 = 0;
1308:../Library/STM32F10x_StdPeriph_Driver/src/stm32f10x_tim.c ****   /* Check the parameters */
1309:../Library/STM32F10x_StdPeriph_Driver/src/stm32f10x_tim.c ****   assert_param(IS_TIM_LIST8_PERIPH(TIMx));
1310:../Library/STM32F10x_StdPeriph_Driver/src/stm32f10x_tim.c ****   assert_param(IS_TIM_FORCED_ACTION(TIM_ForcedAction));
1311:../Library/STM32F10x_StdPeriph_Driver/src/stm32f10x_tim.c ****   tmpccmr1 = TIMx->CCMR1;
 19603              		.loc 1 1311 0
 19604 0000 038B     		ldrh	r3, [r0, #24]
1312:../Library/STM32F10x_StdPeriph_Driver/src/stm32f10x_tim.c ****   /* Reset the OC1M Bits */
1313:../Library/STM32F10x_StdPeriph_Driver/src/stm32f10x_tim.c ****   tmpccmr1 &= (uint16_t)~((uint16_t)TIM_CCMR1_OC1M);
 19605              		.loc 1 1313 0
 19606 0002 23F07003 		bic	r3, r3, #112
 19607              	.LVL172:
 19608 0006 4FEA0343 		lsl	r3, r3, #16
 19609              	.LVL173:
 19610 000a 4FEA1343 		lsr	r3, r3, #16
 19611              	.LVL174:
1314:../Library/STM32F10x_StdPeriph_Driver/src/stm32f10x_tim.c ****   /* Configure The Forced output Mode */
1315:../Library/STM32F10x_StdPeriph_Driver/src/stm32f10x_tim.c ****   tmpccmr1 |= TIM_ForcedAction;
 19612              		.loc 1 1315 0
 19613 000e 41EA0303 		orr	r3, r1, r3
 19614              	.LVL175:
1316:../Library/STM32F10x_StdPeriph_Driver/src/stm32f10x_tim.c ****   /* Write to TIMx CCMR1 register */
1317:../Library/STM32F10x_StdPeriph_Driver/src/stm32f10x_tim.c ****   TIMx->CCMR1 = tmpccmr1;
 19615              		.loc 1 1317 0
 19616 0012 0383     		strh	r3, [r0, #24]	@ movhi
1318:../Library/STM32F10x_StdPeriph_Driver/src/stm32f10x_tim.c **** }
 19617              		.loc 1 1318 0
 19618 0014 7047     		bx	lr
 19619              		.cfi_endproc
 19620              	.LFE58:
 19622 0016 00BF     		.section	.text.TIM_ForcedOC2Config,"ax",%progbits
 19623              		.align	2
 19624              		.global	TIM_ForcedOC2Config
 19625              		.thumb
 19626              		.thumb_func
 19628              	TIM_ForcedOC2Config:
 19629              	.LFB59:
1319:../Library/STM32F10x_StdPeriph_Driver/src/stm32f10x_tim.c **** 
1320:../Library/STM32F10x_StdPeriph_Driver/src/stm32f10x_tim.c **** /**
1321:../Library/STM32F10x_StdPeriph_Driver/src/stm32f10x_tim.c ****   * @brief  Forces the TIMx output 2 waveform to active or inactive level.
1322:../Library/STM32F10x_StdPeriph_Driver/src/stm32f10x_tim.c ****   * @param  TIMx: where x can be  1, 2, 3, 4, 5, 8, 9, 12 or 15 to select the TIM peripheral.
1323:../Library/STM32F10x_StdPeriph_Driver/src/stm32f10x_tim.c ****   * @param  TIM_ForcedAction: specifies the forced Action to be set to the output waveform.
1324:../Library/STM32F10x_StdPeriph_Driver/src/stm32f10x_tim.c ****   *   This parameter can be one of the following values:
1325:../Library/STM32F10x_StdPeriph_Driver/src/stm32f10x_tim.c ****   *     @arg TIM_ForcedAction_Active: Force active level on OC2REF
1326:../Library/STM32F10x_StdPeriph_Driver/src/stm32f10x_tim.c ****   *     @arg TIM_ForcedAction_InActive: Force inactive level on OC2REF.
1327:../Library/STM32F10x_StdPeriph_Driver/src/stm32f10x_tim.c ****   * @retval None
1328:../Library/STM32F10x_StdPeriph_Driver/src/stm32f10x_tim.c ****   */
1329:../Library/STM32F10x_StdPeriph_Driver/src/stm32f10x_tim.c **** void TIM_ForcedOC2Config(TIM_TypeDef* TIMx, uint16_t TIM_ForcedAction)
1330:../Library/STM32F10x_StdPeriph_Driver/src/stm32f10x_tim.c **** {
 19630              		.loc 1 1330 0
 19631              		.cfi_startproc
 19632              		@ args = 0, pretend = 0, frame = 0
 19633              		@ frame_needed = 0, uses_anonymous_args = 0
 19634              		@ link register save eliminated.
 19635              	.LVL176:
1331:../Library/STM32F10x_StdPeriph_Driver/src/stm32f10x_tim.c ****   uint16_t tmpccmr1 = 0;
1332:../Library/STM32F10x_StdPeriph_Driver/src/stm32f10x_tim.c ****   /* Check the parameters */
1333:../Library/STM32F10x_StdPeriph_Driver/src/stm32f10x_tim.c ****   assert_param(IS_TIM_LIST6_PERIPH(TIMx));
1334:../Library/STM32F10x_StdPeriph_Driver/src/stm32f10x_tim.c ****   assert_param(IS_TIM_FORCED_ACTION(TIM_ForcedAction));
1335:../Library/STM32F10x_StdPeriph_Driver/src/stm32f10x_tim.c ****   tmpccmr1 = TIMx->CCMR1;
 19636              		.loc 1 1335 0
 19637 0000 038B     		ldrh	r3, [r0, #24]
1336:../Library/STM32F10x_StdPeriph_Driver/src/stm32f10x_tim.c ****   /* Reset the OC2M Bits */
1337:../Library/STM32F10x_StdPeriph_Driver/src/stm32f10x_tim.c ****   tmpccmr1 &= (uint16_t)~((uint16_t)TIM_CCMR1_OC2M);
 19638              		.loc 1 1337 0
 19639 0002 23F4E043 		bic	r3, r3, #28672
 19640              	.LVL177:
 19641 0006 4FEA0343 		lsl	r3, r3, #16
 19642              	.LVL178:
 19643 000a 4FEA1343 		lsr	r3, r3, #16
 19644              	.LVL179:
1338:../Library/STM32F10x_StdPeriph_Driver/src/stm32f10x_tim.c ****   /* Configure The Forced output Mode */
1339:../Library/STM32F10x_StdPeriph_Driver/src/stm32f10x_tim.c ****   tmpccmr1 |= (uint16_t)(TIM_ForcedAction << 8);
 19645              		.loc 1 1339 0
 19646 000e 43EA0123 		orr	r3, r3, r1, lsl #8
 19647              	.LVL180:
 19648 0012 9BB2     		uxth	r3, r3
 19649              	.LVL181:
1340:../Library/STM32F10x_StdPeriph_Driver/src/stm32f10x_tim.c ****   /* Write to TIMx CCMR1 register */
1341:../Library/STM32F10x_StdPeriph_Driver/src/stm32f10x_tim.c ****   TIMx->CCMR1 = tmpccmr1;
 19650              		.loc 1 1341 0
 19651 0014 0383     		strh	r3, [r0, #24]	@ movhi
1342:../Library/STM32F10x_StdPeriph_Driver/src/stm32f10x_tim.c **** }
 19652              		.loc 1 1342 0
 19653 0016 7047     		bx	lr
 19654              		.cfi_endproc
 19655              	.LFE59:
 19657              		.section	.text.TIM_ForcedOC3Config,"ax",%progbits
 19658              		.align	2
 19659              		.global	TIM_ForcedOC3Config
 19660              		.thumb
 19661              		.thumb_func
 19663              	TIM_ForcedOC3Config:
 19664              	.LFB60:
1343:../Library/STM32F10x_StdPeriph_Driver/src/stm32f10x_tim.c **** 
1344:../Library/STM32F10x_StdPeriph_Driver/src/stm32f10x_tim.c **** /**
1345:../Library/STM32F10x_StdPeriph_Driver/src/stm32f10x_tim.c ****   * @brief  Forces the TIMx output 3 waveform to active or inactive level.
1346:../Library/STM32F10x_StdPeriph_Driver/src/stm32f10x_tim.c ****   * @param  TIMx: where x can be  1, 2, 3, 4, 5 or 8 to select the TIM peripheral.
1347:../Library/STM32F10x_StdPeriph_Driver/src/stm32f10x_tim.c ****   * @param  TIM_ForcedAction: specifies the forced Action to be set to the output waveform.
1348:../Library/STM32F10x_StdPeriph_Driver/src/stm32f10x_tim.c ****   *   This parameter can be one of the following values:
1349:../Library/STM32F10x_StdPeriph_Driver/src/stm32f10x_tim.c ****   *     @arg TIM_ForcedAction_Active: Force active level on OC3REF
1350:../Library/STM32F10x_StdPeriph_Driver/src/stm32f10x_tim.c ****   *     @arg TIM_ForcedAction_InActive: Force inactive level on OC3REF.
1351:../Library/STM32F10x_StdPeriph_Driver/src/stm32f10x_tim.c ****   * @retval None
1352:../Library/STM32F10x_StdPeriph_Driver/src/stm32f10x_tim.c ****   */
1353:../Library/STM32F10x_StdPeriph_Driver/src/stm32f10x_tim.c **** void TIM_ForcedOC3Config(TIM_TypeDef* TIMx, uint16_t TIM_ForcedAction)
1354:../Library/STM32F10x_StdPeriph_Driver/src/stm32f10x_tim.c **** {
 19665              		.loc 1 1354 0
 19666              		.cfi_startproc
 19667              		@ args = 0, pretend = 0, frame = 0
 19668              		@ frame_needed = 0, uses_anonymous_args = 0
 19669              		@ link register save eliminated.
 19670              	.LVL182:
1355:../Library/STM32F10x_StdPeriph_Driver/src/stm32f10x_tim.c ****   uint16_t tmpccmr2 = 0;
1356:../Library/STM32F10x_StdPeriph_Driver/src/stm32f10x_tim.c ****   /* Check the parameters */
1357:../Library/STM32F10x_StdPeriph_Driver/src/stm32f10x_tim.c ****   assert_param(IS_TIM_LIST3_PERIPH(TIMx));
1358:../Library/STM32F10x_StdPeriph_Driver/src/stm32f10x_tim.c ****   assert_param(IS_TIM_FORCED_ACTION(TIM_ForcedAction));
1359:../Library/STM32F10x_StdPeriph_Driver/src/stm32f10x_tim.c ****   tmpccmr2 = TIMx->CCMR2;
 19671              		.loc 1 1359 0
 19672 0000 838B     		ldrh	r3, [r0, #28]
1360:../Library/STM32F10x_StdPeriph_Driver/src/stm32f10x_tim.c ****   /* Reset the OC1M Bits */
1361:../Library/STM32F10x_StdPeriph_Driver/src/stm32f10x_tim.c ****   tmpccmr2 &= (uint16_t)~((uint16_t)TIM_CCMR2_OC3M);
 19673              		.loc 1 1361 0
 19674 0002 23F07003 		bic	r3, r3, #112
 19675              	.LVL183:
 19676 0006 4FEA0343 		lsl	r3, r3, #16
 19677              	.LVL184:
 19678 000a 4FEA1343 		lsr	r3, r3, #16
 19679              	.LVL185:
1362:../Library/STM32F10x_StdPeriph_Driver/src/stm32f10x_tim.c ****   /* Configure The Forced output Mode */
1363:../Library/STM32F10x_StdPeriph_Driver/src/stm32f10x_tim.c ****   tmpccmr2 |= TIM_ForcedAction;
 19680              		.loc 1 1363 0
 19681 000e 41EA0303 		orr	r3, r1, r3
 19682              	.LVL186:
1364:../Library/STM32F10x_StdPeriph_Driver/src/stm32f10x_tim.c ****   /* Write to TIMx CCMR2 register */
1365:../Library/STM32F10x_StdPeriph_Driver/src/stm32f10x_tim.c ****   TIMx->CCMR2 = tmpccmr2;
 19683              		.loc 1 1365 0
 19684 0012 8383     		strh	r3, [r0, #28]	@ movhi
1366:../Library/STM32F10x_StdPeriph_Driver/src/stm32f10x_tim.c **** }
 19685              		.loc 1 1366 0
 19686 0014 7047     		bx	lr
 19687              		.cfi_endproc
 19688              	.LFE60:
 19690 0016 00BF     		.section	.text.TIM_ForcedOC4Config,"ax",%progbits
 19691              		.align	2
 19692              		.global	TIM_ForcedOC4Config
 19693              		.thumb
 19694              		.thumb_func
 19696              	TIM_ForcedOC4Config:
 19697              	.LFB61:
1367:../Library/STM32F10x_StdPeriph_Driver/src/stm32f10x_tim.c **** 
1368:../Library/STM32F10x_StdPeriph_Driver/src/stm32f10x_tim.c **** /**
1369:../Library/STM32F10x_StdPeriph_Driver/src/stm32f10x_tim.c ****   * @brief  Forces the TIMx output 4 waveform to active or inactive level.
1370:../Library/STM32F10x_StdPeriph_Driver/src/stm32f10x_tim.c ****   * @param  TIMx: where x can be  1, 2, 3, 4, 5 or 8 to select the TIM peripheral.
1371:../Library/STM32F10x_StdPeriph_Driver/src/stm32f10x_tim.c ****   * @param  TIM_ForcedAction: specifies the forced Action to be set to the output waveform.
1372:../Library/STM32F10x_StdPeriph_Driver/src/stm32f10x_tim.c ****   *   This parameter can be one of the following values:
1373:../Library/STM32F10x_StdPeriph_Driver/src/stm32f10x_tim.c ****   *     @arg TIM_ForcedAction_Active: Force active level on OC4REF
1374:../Library/STM32F10x_StdPeriph_Driver/src/stm32f10x_tim.c ****   *     @arg TIM_ForcedAction_InActive: Force inactive level on OC4REF.
1375:../Library/STM32F10x_StdPeriph_Driver/src/stm32f10x_tim.c ****   * @retval None
1376:../Library/STM32F10x_StdPeriph_Driver/src/stm32f10x_tim.c ****   */
1377:../Library/STM32F10x_StdPeriph_Driver/src/stm32f10x_tim.c **** void TIM_ForcedOC4Config(TIM_TypeDef* TIMx, uint16_t TIM_ForcedAction)
1378:../Library/STM32F10x_StdPeriph_Driver/src/stm32f10x_tim.c **** {
 19698              		.loc 1 1378 0
 19699              		.cfi_startproc
 19700              		@ args = 0, pretend = 0, frame = 0
 19701              		@ frame_needed = 0, uses_anonymous_args = 0
 19702              		@ link register save eliminated.
 19703              	.LVL187:
1379:../Library/STM32F10x_StdPeriph_Driver/src/stm32f10x_tim.c ****   uint16_t tmpccmr2 = 0;
1380:../Library/STM32F10x_StdPeriph_Driver/src/stm32f10x_tim.c ****   /* Check the parameters */
1381:../Library/STM32F10x_StdPeriph_Driver/src/stm32f10x_tim.c ****   assert_param(IS_TIM_LIST3_PERIPH(TIMx));
1382:../Library/STM32F10x_StdPeriph_Driver/src/stm32f10x_tim.c ****   assert_param(IS_TIM_FORCED_ACTION(TIM_ForcedAction));
1383:../Library/STM32F10x_StdPeriph_Driver/src/stm32f10x_tim.c ****   tmpccmr2 = TIMx->CCMR2;
 19704              		.loc 1 1383 0
 19705 0000 838B     		ldrh	r3, [r0, #28]
1384:../Library/STM32F10x_StdPeriph_Driver/src/stm32f10x_tim.c ****   /* Reset the OC2M Bits */
1385:../Library/STM32F10x_StdPeriph_Driver/src/stm32f10x_tim.c ****   tmpccmr2 &= (uint16_t)~((uint16_t)TIM_CCMR2_OC4M);
 19706              		.loc 1 1385 0
 19707 0002 23F4E043 		bic	r3, r3, #28672
 19708              	.LVL188:
 19709 0006 4FEA0343 		lsl	r3, r3, #16
 19710              	.LVL189:
 19711 000a 4FEA1343 		lsr	r3, r3, #16
 19712              	.LVL190:
1386:../Library/STM32F10x_StdPeriph_Driver/src/stm32f10x_tim.c ****   /* Configure The Forced output Mode */
1387:../Library/STM32F10x_StdPeriph_Driver/src/stm32f10x_tim.c ****   tmpccmr2 |= (uint16_t)(TIM_ForcedAction << 8);
 19713              		.loc 1 1387 0
 19714 000e 43EA0123 		orr	r3, r3, r1, lsl #8
 19715              	.LVL191:
 19716 0012 9BB2     		uxth	r3, r3
 19717              	.LVL192:
1388:../Library/STM32F10x_StdPeriph_Driver/src/stm32f10x_tim.c ****   /* Write to TIMx CCMR2 register */
1389:../Library/STM32F10x_StdPeriph_Driver/src/stm32f10x_tim.c ****   TIMx->CCMR2 = tmpccmr2;
 19718              		.loc 1 1389 0
 19719 0014 8383     		strh	r3, [r0, #28]	@ movhi
1390:../Library/STM32F10x_StdPeriph_Driver/src/stm32f10x_tim.c **** }
 19720              		.loc 1 1390 0
 19721 0016 7047     		bx	lr
 19722              		.cfi_endproc
 19723              	.LFE61:
 19725              		.section	.text.TIM_ARRPreloadConfig,"ax",%progbits
 19726              		.align	2
 19727              		.global	TIM_ARRPreloadConfig
 19728              		.thumb
 19729              		.thumb_func
 19731              	TIM_ARRPreloadConfig:
 19732              	.LFB62:
1391:../Library/STM32F10x_StdPeriph_Driver/src/stm32f10x_tim.c **** 
1392:../Library/STM32F10x_StdPeriph_Driver/src/stm32f10x_tim.c **** /**
1393:../Library/STM32F10x_StdPeriph_Driver/src/stm32f10x_tim.c ****   * @brief  Enables or disables TIMx peripheral Preload register on ARR.
1394:../Library/STM32F10x_StdPeriph_Driver/src/stm32f10x_tim.c ****   * @param  TIMx: where x can be  1 to 17 to select the TIM peripheral.
1395:../Library/STM32F10x_StdPeriph_Driver/src/stm32f10x_tim.c ****   * @param  NewState: new state of the TIMx peripheral Preload register
1396:../Library/STM32F10x_StdPeriph_Driver/src/stm32f10x_tim.c ****   *   This parameter can be: ENABLE or DISABLE.
1397:../Library/STM32F10x_StdPeriph_Driver/src/stm32f10x_tim.c ****   * @retval None
1398:../Library/STM32F10x_StdPeriph_Driver/src/stm32f10x_tim.c ****   */
1399:../Library/STM32F10x_StdPeriph_Driver/src/stm32f10x_tim.c **** void TIM_ARRPreloadConfig(TIM_TypeDef* TIMx, FunctionalState NewState)
1400:../Library/STM32F10x_StdPeriph_Driver/src/stm32f10x_tim.c **** {
 19733              		.loc 1 1400 0
 19734              		.cfi_startproc
 19735              		@ args = 0, pretend = 0, frame = 0
 19736              		@ frame_needed = 0, uses_anonymous_args = 0
 19737              		@ link register save eliminated.
 19738              	.LVL193:
1401:../Library/STM32F10x_StdPeriph_Driver/src/stm32f10x_tim.c ****   /* Check the parameters */
1402:../Library/STM32F10x_StdPeriph_Driver/src/stm32f10x_tim.c ****   assert_param(IS_TIM_ALL_PERIPH(TIMx));
1403:../Library/STM32F10x_StdPeriph_Driver/src/stm32f10x_tim.c ****   assert_param(IS_FUNCTIONAL_STATE(NewState));
1404:../Library/STM32F10x_StdPeriph_Driver/src/stm32f10x_tim.c ****   if (NewState != DISABLE)
 19739              		.loc 1 1404 0
 19740 0000 29B1     		cbz	r1, .L78
1405:../Library/STM32F10x_StdPeriph_Driver/src/stm32f10x_tim.c ****   {
1406:../Library/STM32F10x_StdPeriph_Driver/src/stm32f10x_tim.c ****     /* Set the ARR Preload Bit */
1407:../Library/STM32F10x_StdPeriph_Driver/src/stm32f10x_tim.c ****     TIMx->CR1 |= TIM_CR1_ARPE;
 19741              		.loc 1 1407 0
 19742 0002 0388     		ldrh	r3, [r0, #0]
 19743 0004 9BB2     		uxth	r3, r3
 19744 0006 43F08003 		orr	r3, r3, #128
 19745 000a 0380     		strh	r3, [r0, #0]	@ movhi
 19746 000c 7047     		bx	lr
 19747              	.L78:
1408:../Library/STM32F10x_StdPeriph_Driver/src/stm32f10x_tim.c ****   }
1409:../Library/STM32F10x_StdPeriph_Driver/src/stm32f10x_tim.c ****   else
1410:../Library/STM32F10x_StdPeriph_Driver/src/stm32f10x_tim.c ****   {
1411:../Library/STM32F10x_StdPeriph_Driver/src/stm32f10x_tim.c ****     /* Reset the ARR Preload Bit */
1412:../Library/STM32F10x_StdPeriph_Driver/src/stm32f10x_tim.c ****     TIMx->CR1 &= (uint16_t)~((uint16_t)TIM_CR1_ARPE);
 19748              		.loc 1 1412 0
 19749 000e 0388     		ldrh	r3, [r0, #0]
 19750 0010 23F08003 		bic	r3, r3, #128
 19751 0014 4FEA0343 		lsl	r3, r3, #16
 19752 0018 4FEA1343 		lsr	r3, r3, #16
 19753 001c 0380     		strh	r3, [r0, #0]	@ movhi
 19754 001e 7047     		bx	lr
 19755              		.cfi_endproc
 19756              	.LFE62:
 19758              		.section	.text.TIM_SelectCOM,"ax",%progbits
 19759              		.align	2
 19760              		.global	TIM_SelectCOM
 19761              		.thumb
 19762              		.thumb_func
 19764              	TIM_SelectCOM:
 19765              	.LFB63:
1413:../Library/STM32F10x_StdPeriph_Driver/src/stm32f10x_tim.c ****   }
1414:../Library/STM32F10x_StdPeriph_Driver/src/stm32f10x_tim.c **** }
1415:../Library/STM32F10x_StdPeriph_Driver/src/stm32f10x_tim.c **** 
1416:../Library/STM32F10x_StdPeriph_Driver/src/stm32f10x_tim.c **** /**
1417:../Library/STM32F10x_StdPeriph_Driver/src/stm32f10x_tim.c ****   * @brief  Selects the TIM peripheral Commutation event.
1418:../Library/STM32F10x_StdPeriph_Driver/src/stm32f10x_tim.c ****   * @param  TIMx: where x can be  1, 8, 15, 16 or 17 to select the TIMx peripheral
1419:../Library/STM32F10x_StdPeriph_Driver/src/stm32f10x_tim.c ****   * @param  NewState: new state of the Commutation event.
1420:../Library/STM32F10x_StdPeriph_Driver/src/stm32f10x_tim.c ****   *   This parameter can be: ENABLE or DISABLE.
1421:../Library/STM32F10x_StdPeriph_Driver/src/stm32f10x_tim.c ****   * @retval None
1422:../Library/STM32F10x_StdPeriph_Driver/src/stm32f10x_tim.c ****   */
1423:../Library/STM32F10x_StdPeriph_Driver/src/stm32f10x_tim.c **** void TIM_SelectCOM(TIM_TypeDef* TIMx, FunctionalState NewState)
1424:../Library/STM32F10x_StdPeriph_Driver/src/stm32f10x_tim.c **** {
 19766              		.loc 1 1424 0
 19767              		.cfi_startproc
 19768              		@ args = 0, pretend = 0, frame = 0
 19769              		@ frame_needed = 0, uses_anonymous_args = 0
 19770              		@ link register save eliminated.
 19771              	.LVL194:
1425:../Library/STM32F10x_StdPeriph_Driver/src/stm32f10x_tim.c ****   /* Check the parameters */
1426:../Library/STM32F10x_StdPeriph_Driver/src/stm32f10x_tim.c ****   assert_param(IS_TIM_LIST2_PERIPH(TIMx));
1427:../Library/STM32F10x_StdPeriph_Driver/src/stm32f10x_tim.c ****   assert_param(IS_FUNCTIONAL_STATE(NewState));
1428:../Library/STM32F10x_StdPeriph_Driver/src/stm32f10x_tim.c ****   if (NewState != DISABLE)
 19772              		.loc 1 1428 0
 19773 0000 29B1     		cbz	r1, .L82
1429:../Library/STM32F10x_StdPeriph_Driver/src/stm32f10x_tim.c ****   {
1430:../Library/STM32F10x_StdPeriph_Driver/src/stm32f10x_tim.c ****     /* Set the COM Bit */
1431:../Library/STM32F10x_StdPeriph_Driver/src/stm32f10x_tim.c ****     TIMx->CR2 |= TIM_CR2_CCUS;
 19774              		.loc 1 1431 0
 19775 0002 8388     		ldrh	r3, [r0, #4]
 19776 0004 9BB2     		uxth	r3, r3
 19777 0006 43F00403 		orr	r3, r3, #4
 19778 000a 8380     		strh	r3, [r0, #4]	@ movhi
 19779 000c 7047     		bx	lr
 19780              	.L82:
1432:../Library/STM32F10x_StdPeriph_Driver/src/stm32f10x_tim.c ****   }
1433:../Library/STM32F10x_StdPeriph_Driver/src/stm32f10x_tim.c ****   else
1434:../Library/STM32F10x_StdPeriph_Driver/src/stm32f10x_tim.c ****   {
1435:../Library/STM32F10x_StdPeriph_Driver/src/stm32f10x_tim.c ****     /* Reset the COM Bit */
1436:../Library/STM32F10x_StdPeriph_Driver/src/stm32f10x_tim.c ****     TIMx->CR2 &= (uint16_t)~((uint16_t)TIM_CR2_CCUS);
 19781              		.loc 1 1436 0
 19782 000e 8388     		ldrh	r3, [r0, #4]
 19783 0010 23F00403 		bic	r3, r3, #4
 19784 0014 4FEA0343 		lsl	r3, r3, #16
 19785 0018 4FEA1343 		lsr	r3, r3, #16
 19786 001c 8380     		strh	r3, [r0, #4]	@ movhi
 19787 001e 7047     		bx	lr
 19788              		.cfi_endproc
 19789              	.LFE63:
 19791              		.section	.text.TIM_SelectCCDMA,"ax",%progbits
 19792              		.align	2
 19793              		.global	TIM_SelectCCDMA
 19794              		.thumb
 19795              		.thumb_func
 19797              	TIM_SelectCCDMA:
 19798              	.LFB64:
1437:../Library/STM32F10x_StdPeriph_Driver/src/stm32f10x_tim.c ****   }
1438:../Library/STM32F10x_StdPeriph_Driver/src/stm32f10x_tim.c **** }
1439:../Library/STM32F10x_StdPeriph_Driver/src/stm32f10x_tim.c **** 
1440:../Library/STM32F10x_StdPeriph_Driver/src/stm32f10x_tim.c **** /**
1441:../Library/STM32F10x_StdPeriph_Driver/src/stm32f10x_tim.c ****   * @brief  Selects the TIMx peripheral Capture Compare DMA source.
1442:../Library/STM32F10x_StdPeriph_Driver/src/stm32f10x_tim.c ****   * @param  TIMx: where x can be  1, 2, 3, 4, 5, 8, 15, 16 or 17 to select 
1443:../Library/STM32F10x_StdPeriph_Driver/src/stm32f10x_tim.c ****   *   the TIM peripheral.
1444:../Library/STM32F10x_StdPeriph_Driver/src/stm32f10x_tim.c ****   * @param  NewState: new state of the Capture Compare DMA source
1445:../Library/STM32F10x_StdPeriph_Driver/src/stm32f10x_tim.c ****   *   This parameter can be: ENABLE or DISABLE.
1446:../Library/STM32F10x_StdPeriph_Driver/src/stm32f10x_tim.c ****   * @retval None
1447:../Library/STM32F10x_StdPeriph_Driver/src/stm32f10x_tim.c ****   */
1448:../Library/STM32F10x_StdPeriph_Driver/src/stm32f10x_tim.c **** void TIM_SelectCCDMA(TIM_TypeDef* TIMx, FunctionalState NewState)
1449:../Library/STM32F10x_StdPeriph_Driver/src/stm32f10x_tim.c **** {
 19799              		.loc 1 1449 0
 19800              		.cfi_startproc
 19801              		@ args = 0, pretend = 0, frame = 0
 19802              		@ frame_needed = 0, uses_anonymous_args = 0
 19803              		@ link register save eliminated.
 19804              	.LVL195:
1450:../Library/STM32F10x_StdPeriph_Driver/src/stm32f10x_tim.c ****   /* Check the parameters */
1451:../Library/STM32F10x_StdPeriph_Driver/src/stm32f10x_tim.c ****   assert_param(IS_TIM_LIST4_PERIPH(TIMx));
1452:../Library/STM32F10x_StdPeriph_Driver/src/stm32f10x_tim.c ****   assert_param(IS_FUNCTIONAL_STATE(NewState));
1453:../Library/STM32F10x_StdPeriph_Driver/src/stm32f10x_tim.c ****   if (NewState != DISABLE)
 19805              		.loc 1 1453 0
 19806 0000 29B1     		cbz	r1, .L86
1454:../Library/STM32F10x_StdPeriph_Driver/src/stm32f10x_tim.c ****   {
1455:../Library/STM32F10x_StdPeriph_Driver/src/stm32f10x_tim.c ****     /* Set the CCDS Bit */
1456:../Library/STM32F10x_StdPeriph_Driver/src/stm32f10x_tim.c ****     TIMx->CR2 |= TIM_CR2_CCDS;
 19807              		.loc 1 1456 0
 19808 0002 8388     		ldrh	r3, [r0, #4]
 19809 0004 9BB2     		uxth	r3, r3
 19810 0006 43F00803 		orr	r3, r3, #8
 19811 000a 8380     		strh	r3, [r0, #4]	@ movhi
 19812 000c 7047     		bx	lr
 19813              	.L86:
1457:../Library/STM32F10x_StdPeriph_Driver/src/stm32f10x_tim.c ****   }
1458:../Library/STM32F10x_StdPeriph_Driver/src/stm32f10x_tim.c ****   else
1459:../Library/STM32F10x_StdPeriph_Driver/src/stm32f10x_tim.c ****   {
1460:../Library/STM32F10x_StdPeriph_Driver/src/stm32f10x_tim.c ****     /* Reset the CCDS Bit */
1461:../Library/STM32F10x_StdPeriph_Driver/src/stm32f10x_tim.c ****     TIMx->CR2 &= (uint16_t)~((uint16_t)TIM_CR2_CCDS);
 19814              		.loc 1 1461 0
 19815 000e 8388     		ldrh	r3, [r0, #4]
 19816 0010 23F00803 		bic	r3, r3, #8
 19817 0014 4FEA0343 		lsl	r3, r3, #16
 19818 0018 4FEA1343 		lsr	r3, r3, #16
 19819 001c 8380     		strh	r3, [r0, #4]	@ movhi
 19820 001e 7047     		bx	lr
 19821              		.cfi_endproc
 19822              	.LFE64:
 19824              		.section	.text.TIM_CCPreloadControl,"ax",%progbits
 19825              		.align	2
 19826              		.global	TIM_CCPreloadControl
 19827              		.thumb
 19828              		.thumb_func
 19830              	TIM_CCPreloadControl:
 19831              	.LFB65:
1462:../Library/STM32F10x_StdPeriph_Driver/src/stm32f10x_tim.c ****   }
1463:../Library/STM32F10x_StdPeriph_Driver/src/stm32f10x_tim.c **** }
1464:../Library/STM32F10x_StdPeriph_Driver/src/stm32f10x_tim.c **** 
1465:../Library/STM32F10x_StdPeriph_Driver/src/stm32f10x_tim.c **** /**
1466:../Library/STM32F10x_StdPeriph_Driver/src/stm32f10x_tim.c ****   * @brief  Sets or Resets the TIM peripheral Capture Compare Preload Control bit.
1467:../Library/STM32F10x_StdPeriph_Driver/src/stm32f10x_tim.c ****   * @param  TIMx: where x can be   1, 2, 3, 4, 5, 8 or 15 
1468:../Library/STM32F10x_StdPeriph_Driver/src/stm32f10x_tim.c ****   *   to select the TIMx peripheral
1469:../Library/STM32F10x_StdPeriph_Driver/src/stm32f10x_tim.c ****   * @param  NewState: new state of the Capture Compare Preload Control bit
1470:../Library/STM32F10x_StdPeriph_Driver/src/stm32f10x_tim.c ****   *   This parameter can be: ENABLE or DISABLE.
1471:../Library/STM32F10x_StdPeriph_Driver/src/stm32f10x_tim.c ****   * @retval None
1472:../Library/STM32F10x_StdPeriph_Driver/src/stm32f10x_tim.c ****   */
1473:../Library/STM32F10x_StdPeriph_Driver/src/stm32f10x_tim.c **** void TIM_CCPreloadControl(TIM_TypeDef* TIMx, FunctionalState NewState)
1474:../Library/STM32F10x_StdPeriph_Driver/src/stm32f10x_tim.c **** { 
 19832              		.loc 1 1474 0
 19833              		.cfi_startproc
 19834              		@ args = 0, pretend = 0, frame = 0
 19835              		@ frame_needed = 0, uses_anonymous_args = 0
 19836              		@ link register save eliminated.
 19837              	.LVL196:
1475:../Library/STM32F10x_StdPeriph_Driver/src/stm32f10x_tim.c ****   /* Check the parameters */
1476:../Library/STM32F10x_StdPeriph_Driver/src/stm32f10x_tim.c ****   assert_param(IS_TIM_LIST5_PERIPH(TIMx));
1477:../Library/STM32F10x_StdPeriph_Driver/src/stm32f10x_tim.c ****   assert_param(IS_FUNCTIONAL_STATE(NewState));
1478:../Library/STM32F10x_StdPeriph_Driver/src/stm32f10x_tim.c ****   if (NewState != DISABLE)
 19838              		.loc 1 1478 0
 19839 0000 29B1     		cbz	r1, .L90
1479:../Library/STM32F10x_StdPeriph_Driver/src/stm32f10x_tim.c ****   {
1480:../Library/STM32F10x_StdPeriph_Driver/src/stm32f10x_tim.c ****     /* Set the CCPC Bit */
1481:../Library/STM32F10x_StdPeriph_Driver/src/stm32f10x_tim.c ****     TIMx->CR2 |= TIM_CR2_CCPC;
 19840              		.loc 1 1481 0
 19841 0002 8388     		ldrh	r3, [r0, #4]
 19842 0004 9BB2     		uxth	r3, r3
 19843 0006 43F00103 		orr	r3, r3, #1
 19844 000a 8380     		strh	r3, [r0, #4]	@ movhi
 19845 000c 7047     		bx	lr
 19846              	.L90:
1482:../Library/STM32F10x_StdPeriph_Driver/src/stm32f10x_tim.c ****   }
1483:../Library/STM32F10x_StdPeriph_Driver/src/stm32f10x_tim.c ****   else
1484:../Library/STM32F10x_StdPeriph_Driver/src/stm32f10x_tim.c ****   {
1485:../Library/STM32F10x_StdPeriph_Driver/src/stm32f10x_tim.c ****     /* Reset the CCPC Bit */
1486:../Library/STM32F10x_StdPeriph_Driver/src/stm32f10x_tim.c ****     TIMx->CR2 &= (uint16_t)~((uint16_t)TIM_CR2_CCPC);
 19847              		.loc 1 1486 0
 19848 000e 8388     		ldrh	r3, [r0, #4]
 19849 0010 23F00103 		bic	r3, r3, #1
 19850 0014 4FEA0343 		lsl	r3, r3, #16
 19851 0018 4FEA1343 		lsr	r3, r3, #16
 19852 001c 8380     		strh	r3, [r0, #4]	@ movhi
 19853 001e 7047     		bx	lr
 19854              		.cfi_endproc
 19855              	.LFE65:
 19857              		.section	.text.TIM_OC1PreloadConfig,"ax",%progbits
 19858              		.align	2
 19859              		.global	TIM_OC1PreloadConfig
 19860              		.thumb
 19861              		.thumb_func
 19863              	TIM_OC1PreloadConfig:
 19864              	.LFB66:
1487:../Library/STM32F10x_StdPeriph_Driver/src/stm32f10x_tim.c ****   }
1488:../Library/STM32F10x_StdPeriph_Driver/src/stm32f10x_tim.c **** }
1489:../Library/STM32F10x_StdPeriph_Driver/src/stm32f10x_tim.c **** 
1490:../Library/STM32F10x_StdPeriph_Driver/src/stm32f10x_tim.c **** /**
1491:../Library/STM32F10x_StdPeriph_Driver/src/stm32f10x_tim.c ****   * @brief  Enables or disables the TIMx peripheral Preload register on CCR1.
1492:../Library/STM32F10x_StdPeriph_Driver/src/stm32f10x_tim.c ****   * @param  TIMx: where x can be  1 to 17 except 6 and 7 to select the TIM peripheral.
1493:../Library/STM32F10x_StdPeriph_Driver/src/stm32f10x_tim.c ****   * @param  TIM_OCPreload: new state of the TIMx peripheral Preload register
1494:../Library/STM32F10x_StdPeriph_Driver/src/stm32f10x_tim.c ****   *   This parameter can be one of the following values:
1495:../Library/STM32F10x_StdPeriph_Driver/src/stm32f10x_tim.c ****   *     @arg TIM_OCPreload_Enable
1496:../Library/STM32F10x_StdPeriph_Driver/src/stm32f10x_tim.c ****   *     @arg TIM_OCPreload_Disable
1497:../Library/STM32F10x_StdPeriph_Driver/src/stm32f10x_tim.c ****   * @retval None
1498:../Library/STM32F10x_StdPeriph_Driver/src/stm32f10x_tim.c ****   */
1499:../Library/STM32F10x_StdPeriph_Driver/src/stm32f10x_tim.c **** void TIM_OC1PreloadConfig(TIM_TypeDef* TIMx, uint16_t TIM_OCPreload)
1500:../Library/STM32F10x_StdPeriph_Driver/src/stm32f10x_tim.c **** {
 19865              		.loc 1 1500 0
 19866              		.cfi_startproc
 19867              		@ args = 0, pretend = 0, frame = 0
 19868              		@ frame_needed = 0, uses_anonymous_args = 0
 19869              		@ link register save eliminated.
 19870              	.LVL197:
1501:../Library/STM32F10x_StdPeriph_Driver/src/stm32f10x_tim.c ****   uint16_t tmpccmr1 = 0;
1502:../Library/STM32F10x_StdPeriph_Driver/src/stm32f10x_tim.c ****   /* Check the parameters */
1503:../Library/STM32F10x_StdPeriph_Driver/src/stm32f10x_tim.c ****   assert_param(IS_TIM_LIST8_PERIPH(TIMx));
1504:../Library/STM32F10x_StdPeriph_Driver/src/stm32f10x_tim.c ****   assert_param(IS_TIM_OCPRELOAD_STATE(TIM_OCPreload));
1505:../Library/STM32F10x_StdPeriph_Driver/src/stm32f10x_tim.c ****   tmpccmr1 = TIMx->CCMR1;
 19871              		.loc 1 1505 0
 19872 0000 038B     		ldrh	r3, [r0, #24]
1506:../Library/STM32F10x_StdPeriph_Driver/src/stm32f10x_tim.c ****   /* Reset the OC1PE Bit */
1507:../Library/STM32F10x_StdPeriph_Driver/src/stm32f10x_tim.c ****   tmpccmr1 &= (uint16_t)~((uint16_t)TIM_CCMR1_OC1PE);
 19873              		.loc 1 1507 0
 19874 0002 23F00803 		bic	r3, r3, #8
 19875              	.LVL198:
 19876 0006 4FEA0343 		lsl	r3, r3, #16
 19877              	.LVL199:
 19878 000a 4FEA1343 		lsr	r3, r3, #16
 19879              	.LVL200:
1508:../Library/STM32F10x_StdPeriph_Driver/src/stm32f10x_tim.c ****   /* Enable or Disable the Output Compare Preload feature */
1509:../Library/STM32F10x_StdPeriph_Driver/src/stm32f10x_tim.c ****   tmpccmr1 |= TIM_OCPreload;
 19880              		.loc 1 1509 0
 19881 000e 41EA0303 		orr	r3, r1, r3
 19882              	.LVL201:
1510:../Library/STM32F10x_StdPeriph_Driver/src/stm32f10x_tim.c ****   /* Write to TIMx CCMR1 register */
1511:../Library/STM32F10x_StdPeriph_Driver/src/stm32f10x_tim.c ****   TIMx->CCMR1 = tmpccmr1;
 19883              		.loc 1 1511 0
 19884 0012 0383     		strh	r3, [r0, #24]	@ movhi
1512:../Library/STM32F10x_StdPeriph_Driver/src/stm32f10x_tim.c **** }
 19885              		.loc 1 1512 0
 19886 0014 7047     		bx	lr
 19887              		.cfi_endproc
 19888              	.LFE66:
 19890 0016 00BF     		.section	.text.TIM_OC2PreloadConfig,"ax",%progbits
 19891              		.align	2
 19892              		.global	TIM_OC2PreloadConfig
 19893              		.thumb
 19894              		.thumb_func
 19896              	TIM_OC2PreloadConfig:
 19897              	.LFB67:
1513:../Library/STM32F10x_StdPeriph_Driver/src/stm32f10x_tim.c **** 
1514:../Library/STM32F10x_StdPeriph_Driver/src/stm32f10x_tim.c **** /**
1515:../Library/STM32F10x_StdPeriph_Driver/src/stm32f10x_tim.c ****   * @brief  Enables or disables the TIMx peripheral Preload register on CCR2.
1516:../Library/STM32F10x_StdPeriph_Driver/src/stm32f10x_tim.c ****   * @param  TIMx: where x can be  1, 2, 3, 4, 5, 8, 9, 12 or 15 to select 
1517:../Library/STM32F10x_StdPeriph_Driver/src/stm32f10x_tim.c ****   *   the TIM peripheral.
1518:../Library/STM32F10x_StdPeriph_Driver/src/stm32f10x_tim.c ****   * @param  TIM_OCPreload: new state of the TIMx peripheral Preload register
1519:../Library/STM32F10x_StdPeriph_Driver/src/stm32f10x_tim.c ****   *   This parameter can be one of the following values:
1520:../Library/STM32F10x_StdPeriph_Driver/src/stm32f10x_tim.c ****   *     @arg TIM_OCPreload_Enable
1521:../Library/STM32F10x_StdPeriph_Driver/src/stm32f10x_tim.c ****   *     @arg TIM_OCPreload_Disable
1522:../Library/STM32F10x_StdPeriph_Driver/src/stm32f10x_tim.c ****   * @retval None
1523:../Library/STM32F10x_StdPeriph_Driver/src/stm32f10x_tim.c ****   */
1524:../Library/STM32F10x_StdPeriph_Driver/src/stm32f10x_tim.c **** void TIM_OC2PreloadConfig(TIM_TypeDef* TIMx, uint16_t TIM_OCPreload)
1525:../Library/STM32F10x_StdPeriph_Driver/src/stm32f10x_tim.c **** {
 19898              		.loc 1 1525 0
 19899              		.cfi_startproc
 19900              		@ args = 0, pretend = 0, frame = 0
 19901              		@ frame_needed = 0, uses_anonymous_args = 0
 19902              		@ link register save eliminated.
 19903              	.LVL202:
1526:../Library/STM32F10x_StdPeriph_Driver/src/stm32f10x_tim.c ****   uint16_t tmpccmr1 = 0;
1527:../Library/STM32F10x_StdPeriph_Driver/src/stm32f10x_tim.c ****   /* Check the parameters */
1528:../Library/STM32F10x_StdPeriph_Driver/src/stm32f10x_tim.c ****   assert_param(IS_TIM_LIST6_PERIPH(TIMx));
1529:../Library/STM32F10x_StdPeriph_Driver/src/stm32f10x_tim.c ****   assert_param(IS_TIM_OCPRELOAD_STATE(TIM_OCPreload));
1530:../Library/STM32F10x_StdPeriph_Driver/src/stm32f10x_tim.c ****   tmpccmr1 = TIMx->CCMR1;
 19904              		.loc 1 1530 0
 19905 0000 038B     		ldrh	r3, [r0, #24]
1531:../Library/STM32F10x_StdPeriph_Driver/src/stm32f10x_tim.c ****   /* Reset the OC2PE Bit */
1532:../Library/STM32F10x_StdPeriph_Driver/src/stm32f10x_tim.c ****   tmpccmr1 &= (uint16_t)~((uint16_t)TIM_CCMR1_OC2PE);
 19906              		.loc 1 1532 0
 19907 0002 23F40063 		bic	r3, r3, #2048
 19908              	.LVL203:
 19909 0006 4FEA0343 		lsl	r3, r3, #16
 19910              	.LVL204:
 19911 000a 4FEA1343 		lsr	r3, r3, #16
 19912              	.LVL205:
1533:../Library/STM32F10x_StdPeriph_Driver/src/stm32f10x_tim.c ****   /* Enable or Disable the Output Compare Preload feature */
1534:../Library/STM32F10x_StdPeriph_Driver/src/stm32f10x_tim.c ****   tmpccmr1 |= (uint16_t)(TIM_OCPreload << 8);
 19913              		.loc 1 1534 0
 19914 000e 43EA0123 		orr	r3, r3, r1, lsl #8
 19915              	.LVL206:
 19916 0012 9BB2     		uxth	r3, r3
 19917              	.LVL207:
1535:../Library/STM32F10x_StdPeriph_Driver/src/stm32f10x_tim.c ****   /* Write to TIMx CCMR1 register */
1536:../Library/STM32F10x_StdPeriph_Driver/src/stm32f10x_tim.c ****   TIMx->CCMR1 = tmpccmr1;
 19918              		.loc 1 1536 0
 19919 0014 0383     		strh	r3, [r0, #24]	@ movhi
1537:../Library/STM32F10x_StdPeriph_Driver/src/stm32f10x_tim.c **** }
 19920              		.loc 1 1537 0
 19921 0016 7047     		bx	lr
 19922              		.cfi_endproc
 19923              	.LFE67:
 19925              		.section	.text.TIM_OC3PreloadConfig,"ax",%progbits
 19926              		.align	2
 19927              		.global	TIM_OC3PreloadConfig
 19928              		.thumb
 19929              		.thumb_func
 19931              	TIM_OC3PreloadConfig:
 19932              	.LFB68:
1538:../Library/STM32F10x_StdPeriph_Driver/src/stm32f10x_tim.c **** 
1539:../Library/STM32F10x_StdPeriph_Driver/src/stm32f10x_tim.c **** /**
1540:../Library/STM32F10x_StdPeriph_Driver/src/stm32f10x_tim.c ****   * @brief  Enables or disables the TIMx peripheral Preload register on CCR3.
1541:../Library/STM32F10x_StdPeriph_Driver/src/stm32f10x_tim.c ****   * @param  TIMx: where x can be  1, 2, 3, 4, 5 or 8 to select the TIM peripheral.
1542:../Library/STM32F10x_StdPeriph_Driver/src/stm32f10x_tim.c ****   * @param  TIM_OCPreload: new state of the TIMx peripheral Preload register
1543:../Library/STM32F10x_StdPeriph_Driver/src/stm32f10x_tim.c ****   *   This parameter can be one of the following values:
1544:../Library/STM32F10x_StdPeriph_Driver/src/stm32f10x_tim.c ****   *     @arg TIM_OCPreload_Enable
1545:../Library/STM32F10x_StdPeriph_Driver/src/stm32f10x_tim.c ****   *     @arg TIM_OCPreload_Disable
1546:../Library/STM32F10x_StdPeriph_Driver/src/stm32f10x_tim.c ****   * @retval None
1547:../Library/STM32F10x_StdPeriph_Driver/src/stm32f10x_tim.c ****   */
1548:../Library/STM32F10x_StdPeriph_Driver/src/stm32f10x_tim.c **** void TIM_OC3PreloadConfig(TIM_TypeDef* TIMx, uint16_t TIM_OCPreload)
1549:../Library/STM32F10x_StdPeriph_Driver/src/stm32f10x_tim.c **** {
 19933              		.loc 1 1549 0
 19934              		.cfi_startproc
 19935              		@ args = 0, pretend = 0, frame = 0
 19936              		@ frame_needed = 0, uses_anonymous_args = 0
 19937              		@ link register save eliminated.
 19938              	.LVL208:
1550:../Library/STM32F10x_StdPeriph_Driver/src/stm32f10x_tim.c ****   uint16_t tmpccmr2 = 0;
1551:../Library/STM32F10x_StdPeriph_Driver/src/stm32f10x_tim.c ****   /* Check the parameters */
1552:../Library/STM32F10x_StdPeriph_Driver/src/stm32f10x_tim.c ****   assert_param(IS_TIM_LIST3_PERIPH(TIMx));
1553:../Library/STM32F10x_StdPeriph_Driver/src/stm32f10x_tim.c ****   assert_param(IS_TIM_OCPRELOAD_STATE(TIM_OCPreload));
1554:../Library/STM32F10x_StdPeriph_Driver/src/stm32f10x_tim.c ****   tmpccmr2 = TIMx->CCMR2;
 19939              		.loc 1 1554 0
 19940 0000 838B     		ldrh	r3, [r0, #28]
1555:../Library/STM32F10x_StdPeriph_Driver/src/stm32f10x_tim.c ****   /* Reset the OC3PE Bit */
1556:../Library/STM32F10x_StdPeriph_Driver/src/stm32f10x_tim.c ****   tmpccmr2 &= (uint16_t)~((uint16_t)TIM_CCMR2_OC3PE);
 19941              		.loc 1 1556 0
 19942 0002 23F00803 		bic	r3, r3, #8
 19943              	.LVL209:
 19944 0006 4FEA0343 		lsl	r3, r3, #16
 19945              	.LVL210:
 19946 000a 4FEA1343 		lsr	r3, r3, #16
 19947              	.LVL211:
1557:../Library/STM32F10x_StdPeriph_Driver/src/stm32f10x_tim.c ****   /* Enable or Disable the Output Compare Preload feature */
1558:../Library/STM32F10x_StdPeriph_Driver/src/stm32f10x_tim.c ****   tmpccmr2 |= TIM_OCPreload;
 19948              		.loc 1 1558 0
 19949 000e 41EA0303 		orr	r3, r1, r3
 19950              	.LVL212:
1559:../Library/STM32F10x_StdPeriph_Driver/src/stm32f10x_tim.c ****   /* Write to TIMx CCMR2 register */
1560:../Library/STM32F10x_StdPeriph_Driver/src/stm32f10x_tim.c ****   TIMx->CCMR2 = tmpccmr2;
 19951              		.loc 1 1560 0
 19952 0012 8383     		strh	r3, [r0, #28]	@ movhi
1561:../Library/STM32F10x_StdPeriph_Driver/src/stm32f10x_tim.c **** }
 19953              		.loc 1 1561 0
 19954 0014 7047     		bx	lr
 19955              		.cfi_endproc
 19956              	.LFE68:
 19958 0016 00BF     		.section	.text.TIM_OC4PreloadConfig,"ax",%progbits
 19959              		.align	2
 19960              		.global	TIM_OC4PreloadConfig
 19961              		.thumb
 19962              		.thumb_func
 19964              	TIM_OC4PreloadConfig:
 19965              	.LFB69:
1562:../Library/STM32F10x_StdPeriph_Driver/src/stm32f10x_tim.c **** 
1563:../Library/STM32F10x_StdPeriph_Driver/src/stm32f10x_tim.c **** /**
1564:../Library/STM32F10x_StdPeriph_Driver/src/stm32f10x_tim.c ****   * @brief  Enables or disables the TIMx peripheral Preload register on CCR4.
1565:../Library/STM32F10x_StdPeriph_Driver/src/stm32f10x_tim.c ****   * @param  TIMx: where x can be  1, 2, 3, 4, 5 or 8 to select the TIM peripheral.
1566:../Library/STM32F10x_StdPeriph_Driver/src/stm32f10x_tim.c ****   * @param  TIM_OCPreload: new state of the TIMx peripheral Preload register
1567:../Library/STM32F10x_StdPeriph_Driver/src/stm32f10x_tim.c ****   *   This parameter can be one of the following values:
1568:../Library/STM32F10x_StdPeriph_Driver/src/stm32f10x_tim.c ****   *     @arg TIM_OCPreload_Enable
1569:../Library/STM32F10x_StdPeriph_Driver/src/stm32f10x_tim.c ****   *     @arg TIM_OCPreload_Disable
1570:../Library/STM32F10x_StdPeriph_Driver/src/stm32f10x_tim.c ****   * @retval None
1571:../Library/STM32F10x_StdPeriph_Driver/src/stm32f10x_tim.c ****   */
1572:../Library/STM32F10x_StdPeriph_Driver/src/stm32f10x_tim.c **** void TIM_OC4PreloadConfig(TIM_TypeDef* TIMx, uint16_t TIM_OCPreload)
1573:../Library/STM32F10x_StdPeriph_Driver/src/stm32f10x_tim.c **** {
 19966              		.loc 1 1573 0
 19967              		.cfi_startproc
 19968              		@ args = 0, pretend = 0, frame = 0
 19969              		@ frame_needed = 0, uses_anonymous_args = 0
 19970              		@ link register save eliminated.
 19971              	.LVL213:
1574:../Library/STM32F10x_StdPeriph_Driver/src/stm32f10x_tim.c ****   uint16_t tmpccmr2 = 0;
1575:../Library/STM32F10x_StdPeriph_Driver/src/stm32f10x_tim.c ****   /* Check the parameters */
1576:../Library/STM32F10x_StdPeriph_Driver/src/stm32f10x_tim.c ****   assert_param(IS_TIM_LIST3_PERIPH(TIMx));
1577:../Library/STM32F10x_StdPeriph_Driver/src/stm32f10x_tim.c ****   assert_param(IS_TIM_OCPRELOAD_STATE(TIM_OCPreload));
1578:../Library/STM32F10x_StdPeriph_Driver/src/stm32f10x_tim.c ****   tmpccmr2 = TIMx->CCMR2;
 19972              		.loc 1 1578 0
 19973 0000 838B     		ldrh	r3, [r0, #28]
1579:../Library/STM32F10x_StdPeriph_Driver/src/stm32f10x_tim.c ****   /* Reset the OC4PE Bit */
1580:../Library/STM32F10x_StdPeriph_Driver/src/stm32f10x_tim.c ****   tmpccmr2 &= (uint16_t)~((uint16_t)TIM_CCMR2_OC4PE);
 19974              		.loc 1 1580 0
 19975 0002 23F40063 		bic	r3, r3, #2048
 19976              	.LVL214:
 19977 0006 4FEA0343 		lsl	r3, r3, #16
 19978              	.LVL215:
 19979 000a 4FEA1343 		lsr	r3, r3, #16
 19980              	.LVL216:
1581:../Library/STM32F10x_StdPeriph_Driver/src/stm32f10x_tim.c ****   /* Enable or Disable the Output Compare Preload feature */
1582:../Library/STM32F10x_StdPeriph_Driver/src/stm32f10x_tim.c ****   tmpccmr2 |= (uint16_t)(TIM_OCPreload << 8);
 19981              		.loc 1 1582 0
 19982 000e 43EA0123 		orr	r3, r3, r1, lsl #8
 19983              	.LVL217:
 19984 0012 9BB2     		uxth	r3, r3
 19985              	.LVL218:
1583:../Library/STM32F10x_StdPeriph_Driver/src/stm32f10x_tim.c ****   /* Write to TIMx CCMR2 register */
1584:../Library/STM32F10x_StdPeriph_Driver/src/stm32f10x_tim.c ****   TIMx->CCMR2 = tmpccmr2;
 19986              		.loc 1 1584 0
 19987 0014 8383     		strh	r3, [r0, #28]	@ movhi
1585:../Library/STM32F10x_StdPeriph_Driver/src/stm32f10x_tim.c **** }
 19988              		.loc 1 1585 0
 19989 0016 7047     		bx	lr
 19990              		.cfi_endproc
 19991              	.LFE69:
 19993              		.section	.text.TIM_OC1FastConfig,"ax",%progbits
 19994              		.align	2
 19995              		.global	TIM_OC1FastConfig
 19996              		.thumb
 19997              		.thumb_func
 19999              	TIM_OC1FastConfig:
 20000              	.LFB70:
1586:../Library/STM32F10x_StdPeriph_Driver/src/stm32f10x_tim.c **** 
1587:../Library/STM32F10x_StdPeriph_Driver/src/stm32f10x_tim.c **** /**
1588:../Library/STM32F10x_StdPeriph_Driver/src/stm32f10x_tim.c ****   * @brief  Configures the TIMx Output Compare 1 Fast feature.
1589:../Library/STM32F10x_StdPeriph_Driver/src/stm32f10x_tim.c ****   * @param  TIMx: where x can be  1 to 17 except 6 and 7 to select the TIM peripheral.
1590:../Library/STM32F10x_StdPeriph_Driver/src/stm32f10x_tim.c ****   * @param  TIM_OCFast: new state of the Output Compare Fast Enable Bit.
1591:../Library/STM32F10x_StdPeriph_Driver/src/stm32f10x_tim.c ****   *   This parameter can be one of the following values:
1592:../Library/STM32F10x_StdPeriph_Driver/src/stm32f10x_tim.c ****   *     @arg TIM_OCFast_Enable: TIM output compare fast enable
1593:../Library/STM32F10x_StdPeriph_Driver/src/stm32f10x_tim.c ****   *     @arg TIM_OCFast_Disable: TIM output compare fast disable
1594:../Library/STM32F10x_StdPeriph_Driver/src/stm32f10x_tim.c ****   * @retval None
1595:../Library/STM32F10x_StdPeriph_Driver/src/stm32f10x_tim.c ****   */
1596:../Library/STM32F10x_StdPeriph_Driver/src/stm32f10x_tim.c **** void TIM_OC1FastConfig(TIM_TypeDef* TIMx, uint16_t TIM_OCFast)
1597:../Library/STM32F10x_StdPeriph_Driver/src/stm32f10x_tim.c **** {
 20001              		.loc 1 1597 0
 20002              		.cfi_startproc
 20003              		@ args = 0, pretend = 0, frame = 0
 20004              		@ frame_needed = 0, uses_anonymous_args = 0
 20005              		@ link register save eliminated.
 20006              	.LVL219:
1598:../Library/STM32F10x_StdPeriph_Driver/src/stm32f10x_tim.c ****   uint16_t tmpccmr1 = 0;
1599:../Library/STM32F10x_StdPeriph_Driver/src/stm32f10x_tim.c ****   /* Check the parameters */
1600:../Library/STM32F10x_StdPeriph_Driver/src/stm32f10x_tim.c ****   assert_param(IS_TIM_LIST8_PERIPH(TIMx));
1601:../Library/STM32F10x_StdPeriph_Driver/src/stm32f10x_tim.c ****   assert_param(IS_TIM_OCFAST_STATE(TIM_OCFast));
1602:../Library/STM32F10x_StdPeriph_Driver/src/stm32f10x_tim.c ****   /* Get the TIMx CCMR1 register value */
1603:../Library/STM32F10x_StdPeriph_Driver/src/stm32f10x_tim.c ****   tmpccmr1 = TIMx->CCMR1;
 20007              		.loc 1 1603 0
 20008 0000 038B     		ldrh	r3, [r0, #24]
1604:../Library/STM32F10x_StdPeriph_Driver/src/stm32f10x_tim.c ****   /* Reset the OC1FE Bit */
1605:../Library/STM32F10x_StdPeriph_Driver/src/stm32f10x_tim.c ****   tmpccmr1 &= (uint16_t)~((uint16_t)TIM_CCMR1_OC1FE);
 20009              		.loc 1 1605 0
 20010 0002 23F00403 		bic	r3, r3, #4
 20011              	.LVL220:
 20012 0006 4FEA0343 		lsl	r3, r3, #16
 20013              	.LVL221:
 20014 000a 4FEA1343 		lsr	r3, r3, #16
 20015              	.LVL222:
1606:../Library/STM32F10x_StdPeriph_Driver/src/stm32f10x_tim.c ****   /* Enable or Disable the Output Compare Fast Bit */
1607:../Library/STM32F10x_StdPeriph_Driver/src/stm32f10x_tim.c ****   tmpccmr1 |= TIM_OCFast;
 20016              		.loc 1 1607 0
 20017 000e 41EA0303 		orr	r3, r1, r3
 20018              	.LVL223:
1608:../Library/STM32F10x_StdPeriph_Driver/src/stm32f10x_tim.c ****   /* Write to TIMx CCMR1 */
1609:../Library/STM32F10x_StdPeriph_Driver/src/stm32f10x_tim.c ****   TIMx->CCMR1 = tmpccmr1;
 20019              		.loc 1 1609 0
 20020 0012 0383     		strh	r3, [r0, #24]	@ movhi
1610:../Library/STM32F10x_StdPeriph_Driver/src/stm32f10x_tim.c **** }
 20021              		.loc 1 1610 0
 20022 0014 7047     		bx	lr
 20023              		.cfi_endproc
 20024              	.LFE70:
 20026 0016 00BF     		.section	.text.TIM_OC2FastConfig,"ax",%progbits
 20027              		.align	2
 20028              		.global	TIM_OC2FastConfig
 20029              		.thumb
 20030              		.thumb_func
 20032              	TIM_OC2FastConfig:
 20033              	.LFB71:
1611:../Library/STM32F10x_StdPeriph_Driver/src/stm32f10x_tim.c **** 
1612:../Library/STM32F10x_StdPeriph_Driver/src/stm32f10x_tim.c **** /**
1613:../Library/STM32F10x_StdPeriph_Driver/src/stm32f10x_tim.c ****   * @brief  Configures the TIMx Output Compare 2 Fast feature.
1614:../Library/STM32F10x_StdPeriph_Driver/src/stm32f10x_tim.c ****   * @param  TIMx: where x can be  1, 2, 3, 4, 5, 8, 9, 12 or 15 to select 
1615:../Library/STM32F10x_StdPeriph_Driver/src/stm32f10x_tim.c ****   *   the TIM peripheral.
1616:../Library/STM32F10x_StdPeriph_Driver/src/stm32f10x_tim.c ****   * @param  TIM_OCFast: new state of the Output Compare Fast Enable Bit.
1617:../Library/STM32F10x_StdPeriph_Driver/src/stm32f10x_tim.c ****   *   This parameter can be one of the following values:
1618:../Library/STM32F10x_StdPeriph_Driver/src/stm32f10x_tim.c ****   *     @arg TIM_OCFast_Enable: TIM output compare fast enable
1619:../Library/STM32F10x_StdPeriph_Driver/src/stm32f10x_tim.c ****   *     @arg TIM_OCFast_Disable: TIM output compare fast disable
1620:../Library/STM32F10x_StdPeriph_Driver/src/stm32f10x_tim.c ****   * @retval None
1621:../Library/STM32F10x_StdPeriph_Driver/src/stm32f10x_tim.c ****   */
1622:../Library/STM32F10x_StdPeriph_Driver/src/stm32f10x_tim.c **** void TIM_OC2FastConfig(TIM_TypeDef* TIMx, uint16_t TIM_OCFast)
1623:../Library/STM32F10x_StdPeriph_Driver/src/stm32f10x_tim.c **** {
 20034              		.loc 1 1623 0
 20035              		.cfi_startproc
 20036              		@ args = 0, pretend = 0, frame = 0
 20037              		@ frame_needed = 0, uses_anonymous_args = 0
 20038              		@ link register save eliminated.
 20039              	.LVL224:
1624:../Library/STM32F10x_StdPeriph_Driver/src/stm32f10x_tim.c ****   uint16_t tmpccmr1 = 0;
1625:../Library/STM32F10x_StdPeriph_Driver/src/stm32f10x_tim.c ****   /* Check the parameters */
1626:../Library/STM32F10x_StdPeriph_Driver/src/stm32f10x_tim.c ****   assert_param(IS_TIM_LIST6_PERIPH(TIMx));
1627:../Library/STM32F10x_StdPeriph_Driver/src/stm32f10x_tim.c ****   assert_param(IS_TIM_OCFAST_STATE(TIM_OCFast));
1628:../Library/STM32F10x_StdPeriph_Driver/src/stm32f10x_tim.c ****   /* Get the TIMx CCMR1 register value */
1629:../Library/STM32F10x_StdPeriph_Driver/src/stm32f10x_tim.c ****   tmpccmr1 = TIMx->CCMR1;
 20040              		.loc 1 1629 0
 20041 0000 038B     		ldrh	r3, [r0, #24]
1630:../Library/STM32F10x_StdPeriph_Driver/src/stm32f10x_tim.c ****   /* Reset the OC2FE Bit */
1631:../Library/STM32F10x_StdPeriph_Driver/src/stm32f10x_tim.c ****   tmpccmr1 &= (uint16_t)~((uint16_t)TIM_CCMR1_OC2FE);
 20042              		.loc 1 1631 0
 20043 0002 23F48063 		bic	r3, r3, #1024
 20044              	.LVL225:
 20045 0006 4FEA0343 		lsl	r3, r3, #16
 20046              	.LVL226:
 20047 000a 4FEA1343 		lsr	r3, r3, #16
 20048              	.LVL227:
1632:../Library/STM32F10x_StdPeriph_Driver/src/stm32f10x_tim.c ****   /* Enable or Disable the Output Compare Fast Bit */
1633:../Library/STM32F10x_StdPeriph_Driver/src/stm32f10x_tim.c ****   tmpccmr1 |= (uint16_t)(TIM_OCFast << 8);
 20049              		.loc 1 1633 0
 20050 000e 43EA0123 		orr	r3, r3, r1, lsl #8
 20051              	.LVL228:
 20052 0012 9BB2     		uxth	r3, r3
 20053              	.LVL229:
1634:../Library/STM32F10x_StdPeriph_Driver/src/stm32f10x_tim.c ****   /* Write to TIMx CCMR1 */
1635:../Library/STM32F10x_StdPeriph_Driver/src/stm32f10x_tim.c ****   TIMx->CCMR1 = tmpccmr1;
 20054              		.loc 1 1635 0
 20055 0014 0383     		strh	r3, [r0, #24]	@ movhi
1636:../Library/STM32F10x_StdPeriph_Driver/src/stm32f10x_tim.c **** }
 20056              		.loc 1 1636 0
 20057 0016 7047     		bx	lr
 20058              		.cfi_endproc
 20059              	.LFE71:
 20061              		.section	.text.TIM_OC3FastConfig,"ax",%progbits
 20062              		.align	2
 20063              		.global	TIM_OC3FastConfig
 20064              		.thumb
 20065              		.thumb_func
 20067              	TIM_OC3FastConfig:
 20068              	.LFB72:
1637:../Library/STM32F10x_StdPeriph_Driver/src/stm32f10x_tim.c **** 
1638:../Library/STM32F10x_StdPeriph_Driver/src/stm32f10x_tim.c **** /**
1639:../Library/STM32F10x_StdPeriph_Driver/src/stm32f10x_tim.c ****   * @brief  Configures the TIMx Output Compare 3 Fast feature.
1640:../Library/STM32F10x_StdPeriph_Driver/src/stm32f10x_tim.c ****   * @param  TIMx: where x can be  1, 2, 3, 4, 5 or 8 to select the TIM peripheral.
1641:../Library/STM32F10x_StdPeriph_Driver/src/stm32f10x_tim.c ****   * @param  TIM_OCFast: new state of the Output Compare Fast Enable Bit.
1642:../Library/STM32F10x_StdPeriph_Driver/src/stm32f10x_tim.c ****   *   This parameter can be one of the following values:
1643:../Library/STM32F10x_StdPeriph_Driver/src/stm32f10x_tim.c ****   *     @arg TIM_OCFast_Enable: TIM output compare fast enable
1644:../Library/STM32F10x_StdPeriph_Driver/src/stm32f10x_tim.c ****   *     @arg TIM_OCFast_Disable: TIM output compare fast disable
1645:../Library/STM32F10x_StdPeriph_Driver/src/stm32f10x_tim.c ****   * @retval None
1646:../Library/STM32F10x_StdPeriph_Driver/src/stm32f10x_tim.c ****   */
1647:../Library/STM32F10x_StdPeriph_Driver/src/stm32f10x_tim.c **** void TIM_OC3FastConfig(TIM_TypeDef* TIMx, uint16_t TIM_OCFast)
1648:../Library/STM32F10x_StdPeriph_Driver/src/stm32f10x_tim.c **** {
 20069              		.loc 1 1648 0
 20070              		.cfi_startproc
 20071              		@ args = 0, pretend = 0, frame = 0
 20072              		@ frame_needed = 0, uses_anonymous_args = 0
 20073              		@ link register save eliminated.
 20074              	.LVL230:
1649:../Library/STM32F10x_StdPeriph_Driver/src/stm32f10x_tim.c ****   uint16_t tmpccmr2 = 0;
1650:../Library/STM32F10x_StdPeriph_Driver/src/stm32f10x_tim.c ****   /* Check the parameters */
1651:../Library/STM32F10x_StdPeriph_Driver/src/stm32f10x_tim.c ****   assert_param(IS_TIM_LIST3_PERIPH(TIMx));
1652:../Library/STM32F10x_StdPeriph_Driver/src/stm32f10x_tim.c ****   assert_param(IS_TIM_OCFAST_STATE(TIM_OCFast));
1653:../Library/STM32F10x_StdPeriph_Driver/src/stm32f10x_tim.c ****   /* Get the TIMx CCMR2 register value */
1654:../Library/STM32F10x_StdPeriph_Driver/src/stm32f10x_tim.c ****   tmpccmr2 = TIMx->CCMR2;
 20075              		.loc 1 1654 0
 20076 0000 838B     		ldrh	r3, [r0, #28]
1655:../Library/STM32F10x_StdPeriph_Driver/src/stm32f10x_tim.c ****   /* Reset the OC3FE Bit */
1656:../Library/STM32F10x_StdPeriph_Driver/src/stm32f10x_tim.c ****   tmpccmr2 &= (uint16_t)~((uint16_t)TIM_CCMR2_OC3FE);
 20077              		.loc 1 1656 0
 20078 0002 23F00403 		bic	r3, r3, #4
 20079              	.LVL231:
 20080 0006 4FEA0343 		lsl	r3, r3, #16
 20081              	.LVL232:
 20082 000a 4FEA1343 		lsr	r3, r3, #16
 20083              	.LVL233:
1657:../Library/STM32F10x_StdPeriph_Driver/src/stm32f10x_tim.c ****   /* Enable or Disable the Output Compare Fast Bit */
1658:../Library/STM32F10x_StdPeriph_Driver/src/stm32f10x_tim.c ****   tmpccmr2 |= TIM_OCFast;
 20084              		.loc 1 1658 0
 20085 000e 41EA0303 		orr	r3, r1, r3
 20086              	.LVL234:
1659:../Library/STM32F10x_StdPeriph_Driver/src/stm32f10x_tim.c ****   /* Write to TIMx CCMR2 */
1660:../Library/STM32F10x_StdPeriph_Driver/src/stm32f10x_tim.c ****   TIMx->CCMR2 = tmpccmr2;
 20087              		.loc 1 1660 0
 20088 0012 8383     		strh	r3, [r0, #28]	@ movhi
1661:../Library/STM32F10x_StdPeriph_Driver/src/stm32f10x_tim.c **** }
 20089              		.loc 1 1661 0
 20090 0014 7047     		bx	lr
 20091              		.cfi_endproc
 20092              	.LFE72:
 20094 0016 00BF     		.section	.text.TIM_OC4FastConfig,"ax",%progbits
 20095              		.align	2
 20096              		.global	TIM_OC4FastConfig
 20097              		.thumb
 20098              		.thumb_func
 20100              	TIM_OC4FastConfig:
 20101              	.LFB73:
1662:../Library/STM32F10x_StdPeriph_Driver/src/stm32f10x_tim.c **** 
1663:../Library/STM32F10x_StdPeriph_Driver/src/stm32f10x_tim.c **** /**
1664:../Library/STM32F10x_StdPeriph_Driver/src/stm32f10x_tim.c ****   * @brief  Configures the TIMx Output Compare 4 Fast feature.
1665:../Library/STM32F10x_StdPeriph_Driver/src/stm32f10x_tim.c ****   * @param  TIMx: where x can be  1, 2, 3, 4, 5 or 8 to select the TIM peripheral.
1666:../Library/STM32F10x_StdPeriph_Driver/src/stm32f10x_tim.c ****   * @param  TIM_OCFast: new state of the Output Compare Fast Enable Bit.
1667:../Library/STM32F10x_StdPeriph_Driver/src/stm32f10x_tim.c ****   *   This parameter can be one of the following values:
1668:../Library/STM32F10x_StdPeriph_Driver/src/stm32f10x_tim.c ****   *     @arg TIM_OCFast_Enable: TIM output compare fast enable
1669:../Library/STM32F10x_StdPeriph_Driver/src/stm32f10x_tim.c ****   *     @arg TIM_OCFast_Disable: TIM output compare fast disable
1670:../Library/STM32F10x_StdPeriph_Driver/src/stm32f10x_tim.c ****   * @retval None
1671:../Library/STM32F10x_StdPeriph_Driver/src/stm32f10x_tim.c ****   */
1672:../Library/STM32F10x_StdPeriph_Driver/src/stm32f10x_tim.c **** void TIM_OC4FastConfig(TIM_TypeDef* TIMx, uint16_t TIM_OCFast)
1673:../Library/STM32F10x_StdPeriph_Driver/src/stm32f10x_tim.c **** {
 20102              		.loc 1 1673 0
 20103              		.cfi_startproc
 20104              		@ args = 0, pretend = 0, frame = 0
 20105              		@ frame_needed = 0, uses_anonymous_args = 0
 20106              		@ link register save eliminated.
 20107              	.LVL235:
1674:../Library/STM32F10x_StdPeriph_Driver/src/stm32f10x_tim.c ****   uint16_t tmpccmr2 = 0;
1675:../Library/STM32F10x_StdPeriph_Driver/src/stm32f10x_tim.c ****   /* Check the parameters */
1676:../Library/STM32F10x_StdPeriph_Driver/src/stm32f10x_tim.c ****   assert_param(IS_TIM_LIST3_PERIPH(TIMx));
1677:../Library/STM32F10x_StdPeriph_Driver/src/stm32f10x_tim.c ****   assert_param(IS_TIM_OCFAST_STATE(TIM_OCFast));
1678:../Library/STM32F10x_StdPeriph_Driver/src/stm32f10x_tim.c ****   /* Get the TIMx CCMR2 register value */
1679:../Library/STM32F10x_StdPeriph_Driver/src/stm32f10x_tim.c ****   tmpccmr2 = TIMx->CCMR2;
 20108              		.loc 1 1679 0
 20109 0000 838B     		ldrh	r3, [r0, #28]
1680:../Library/STM32F10x_StdPeriph_Driver/src/stm32f10x_tim.c ****   /* Reset the OC4FE Bit */
1681:../Library/STM32F10x_StdPeriph_Driver/src/stm32f10x_tim.c ****   tmpccmr2 &= (uint16_t)~((uint16_t)TIM_CCMR2_OC4FE);
 20110              		.loc 1 1681 0
 20111 0002 23F48063 		bic	r3, r3, #1024
 20112              	.LVL236:
 20113 0006 4FEA0343 		lsl	r3, r3, #16
 20114              	.LVL237:
 20115 000a 4FEA1343 		lsr	r3, r3, #16
 20116              	.LVL238:
1682:../Library/STM32F10x_StdPeriph_Driver/src/stm32f10x_tim.c ****   /* Enable or Disable the Output Compare Fast Bit */
1683:../Library/STM32F10x_StdPeriph_Driver/src/stm32f10x_tim.c ****   tmpccmr2 |= (uint16_t)(TIM_OCFast << 8);
 20117              		.loc 1 1683 0
 20118 000e 43EA0123 		orr	r3, r3, r1, lsl #8
 20119              	.LVL239:
 20120 0012 9BB2     		uxth	r3, r3
 20121              	.LVL240:
1684:../Library/STM32F10x_StdPeriph_Driver/src/stm32f10x_tim.c ****   /* Write to TIMx CCMR2 */
1685:../Library/STM32F10x_StdPeriph_Driver/src/stm32f10x_tim.c ****   TIMx->CCMR2 = tmpccmr2;
 20122              		.loc 1 1685 0
 20123 0014 8383     		strh	r3, [r0, #28]	@ movhi
1686:../Library/STM32F10x_StdPeriph_Driver/src/stm32f10x_tim.c **** }
 20124              		.loc 1 1686 0
 20125 0016 7047     		bx	lr
 20126              		.cfi_endproc
 20127              	.LFE73:
 20129              		.section	.text.TIM_ClearOC1Ref,"ax",%progbits
 20130              		.align	2
 20131              		.global	TIM_ClearOC1Ref
 20132              		.thumb
 20133              		.thumb_func
 20135              	TIM_ClearOC1Ref:
 20136              	.LFB74:
1687:../Library/STM32F10x_StdPeriph_Driver/src/stm32f10x_tim.c **** 
1688:../Library/STM32F10x_StdPeriph_Driver/src/stm32f10x_tim.c **** /**
1689:../Library/STM32F10x_StdPeriph_Driver/src/stm32f10x_tim.c ****   * @brief  Clears or safeguards the OCREF1 signal on an external event
1690:../Library/STM32F10x_StdPeriph_Driver/src/stm32f10x_tim.c ****   * @param  TIMx: where x can be  1, 2, 3, 4, 5 or 8 to select the TIM peripheral.
1691:../Library/STM32F10x_StdPeriph_Driver/src/stm32f10x_tim.c ****   * @param  TIM_OCClear: new state of the Output Compare Clear Enable Bit.
1692:../Library/STM32F10x_StdPeriph_Driver/src/stm32f10x_tim.c ****   *   This parameter can be one of the following values:
1693:../Library/STM32F10x_StdPeriph_Driver/src/stm32f10x_tim.c ****   *     @arg TIM_OCClear_Enable: TIM Output clear enable
1694:../Library/STM32F10x_StdPeriph_Driver/src/stm32f10x_tim.c ****   *     @arg TIM_OCClear_Disable: TIM Output clear disable
1695:../Library/STM32F10x_StdPeriph_Driver/src/stm32f10x_tim.c ****   * @retval None
1696:../Library/STM32F10x_StdPeriph_Driver/src/stm32f10x_tim.c ****   */
1697:../Library/STM32F10x_StdPeriph_Driver/src/stm32f10x_tim.c **** void TIM_ClearOC1Ref(TIM_TypeDef* TIMx, uint16_t TIM_OCClear)
1698:../Library/STM32F10x_StdPeriph_Driver/src/stm32f10x_tim.c **** {
 20137              		.loc 1 1698 0
 20138              		.cfi_startproc
 20139              		@ args = 0, pretend = 0, frame = 0
 20140              		@ frame_needed = 0, uses_anonymous_args = 0
 20141              		@ link register save eliminated.
 20142              	.LVL241:
1699:../Library/STM32F10x_StdPeriph_Driver/src/stm32f10x_tim.c ****   uint16_t tmpccmr1 = 0;
1700:../Library/STM32F10x_StdPeriph_Driver/src/stm32f10x_tim.c ****   /* Check the parameters */
1701:../Library/STM32F10x_StdPeriph_Driver/src/stm32f10x_tim.c ****   assert_param(IS_TIM_LIST3_PERIPH(TIMx));
1702:../Library/STM32F10x_StdPeriph_Driver/src/stm32f10x_tim.c ****   assert_param(IS_TIM_OCCLEAR_STATE(TIM_OCClear));
1703:../Library/STM32F10x_StdPeriph_Driver/src/stm32f10x_tim.c **** 
1704:../Library/STM32F10x_StdPeriph_Driver/src/stm32f10x_tim.c ****   tmpccmr1 = TIMx->CCMR1;
 20143              		.loc 1 1704 0
 20144 0000 038B     		ldrh	r3, [r0, #24]
1705:../Library/STM32F10x_StdPeriph_Driver/src/stm32f10x_tim.c **** 
1706:../Library/STM32F10x_StdPeriph_Driver/src/stm32f10x_tim.c ****   /* Reset the OC1CE Bit */
1707:../Library/STM32F10x_StdPeriph_Driver/src/stm32f10x_tim.c ****   tmpccmr1 &= (uint16_t)~((uint16_t)TIM_CCMR1_OC1CE);
 20145              		.loc 1 1707 0
 20146 0002 23F08003 		bic	r3, r3, #128
 20147              	.LVL242:
 20148 0006 4FEA0343 		lsl	r3, r3, #16
 20149              	.LVL243:
 20150 000a 4FEA1343 		lsr	r3, r3, #16
 20151              	.LVL244:
1708:../Library/STM32F10x_StdPeriph_Driver/src/stm32f10x_tim.c ****   /* Enable or Disable the Output Compare Clear Bit */
1709:../Library/STM32F10x_StdPeriph_Driver/src/stm32f10x_tim.c ****   tmpccmr1 |= TIM_OCClear;
 20152              		.loc 1 1709 0
 20153 000e 41EA0303 		orr	r3, r1, r3
 20154              	.LVL245:
1710:../Library/STM32F10x_StdPeriph_Driver/src/stm32f10x_tim.c ****   /* Write to TIMx CCMR1 register */
1711:../Library/STM32F10x_StdPeriph_Driver/src/stm32f10x_tim.c ****   TIMx->CCMR1 = tmpccmr1;
 20155              		.loc 1 1711 0
 20156 0012 0383     		strh	r3, [r0, #24]	@ movhi
1712:../Library/STM32F10x_StdPeriph_Driver/src/stm32f10x_tim.c **** }
 20157              		.loc 1 1712 0
 20158 0014 7047     		bx	lr
 20159              		.cfi_endproc
 20160              	.LFE74:
 20162 0016 00BF     		.section	.text.TIM_ClearOC2Ref,"ax",%progbits
 20163              		.align	2
 20164              		.global	TIM_ClearOC2Ref
 20165              		.thumb
 20166              		.thumb_func
 20168              	TIM_ClearOC2Ref:
 20169              	.LFB75:
1713:../Library/STM32F10x_StdPeriph_Driver/src/stm32f10x_tim.c **** 
1714:../Library/STM32F10x_StdPeriph_Driver/src/stm32f10x_tim.c **** /**
1715:../Library/STM32F10x_StdPeriph_Driver/src/stm32f10x_tim.c ****   * @brief  Clears or safeguards the OCREF2 signal on an external event
1716:../Library/STM32F10x_StdPeriph_Driver/src/stm32f10x_tim.c ****   * @param  TIMx: where x can be  1, 2, 3, 4, 5 or 8 to select the TIM peripheral.
1717:../Library/STM32F10x_StdPeriph_Driver/src/stm32f10x_tim.c ****   * @param  TIM_OCClear: new state of the Output Compare Clear Enable Bit.
1718:../Library/STM32F10x_StdPeriph_Driver/src/stm32f10x_tim.c ****   *   This parameter can be one of the following values:
1719:../Library/STM32F10x_StdPeriph_Driver/src/stm32f10x_tim.c ****   *     @arg TIM_OCClear_Enable: TIM Output clear enable
1720:../Library/STM32F10x_StdPeriph_Driver/src/stm32f10x_tim.c ****   *     @arg TIM_OCClear_Disable: TIM Output clear disable
1721:../Library/STM32F10x_StdPeriph_Driver/src/stm32f10x_tim.c ****   * @retval None
1722:../Library/STM32F10x_StdPeriph_Driver/src/stm32f10x_tim.c ****   */
1723:../Library/STM32F10x_StdPeriph_Driver/src/stm32f10x_tim.c **** void TIM_ClearOC2Ref(TIM_TypeDef* TIMx, uint16_t TIM_OCClear)
1724:../Library/STM32F10x_StdPeriph_Driver/src/stm32f10x_tim.c **** {
 20170              		.loc 1 1724 0
 20171              		.cfi_startproc
 20172              		@ args = 0, pretend = 0, frame = 0
 20173              		@ frame_needed = 0, uses_anonymous_args = 0
 20174              		@ link register save eliminated.
 20175              	.LVL246:
1725:../Library/STM32F10x_StdPeriph_Driver/src/stm32f10x_tim.c ****   uint16_t tmpccmr1 = 0;
1726:../Library/STM32F10x_StdPeriph_Driver/src/stm32f10x_tim.c ****   /* Check the parameters */
1727:../Library/STM32F10x_StdPeriph_Driver/src/stm32f10x_tim.c ****   assert_param(IS_TIM_LIST3_PERIPH(TIMx));
1728:../Library/STM32F10x_StdPeriph_Driver/src/stm32f10x_tim.c ****   assert_param(IS_TIM_OCCLEAR_STATE(TIM_OCClear));
1729:../Library/STM32F10x_StdPeriph_Driver/src/stm32f10x_tim.c ****   tmpccmr1 = TIMx->CCMR1;
 20176              		.loc 1 1729 0
 20177 0000 038B     		ldrh	r3, [r0, #24]
1730:../Library/STM32F10x_StdPeriph_Driver/src/stm32f10x_tim.c ****   /* Reset the OC2CE Bit */
1731:../Library/STM32F10x_StdPeriph_Driver/src/stm32f10x_tim.c ****   tmpccmr1 &= (uint16_t)~((uint16_t)TIM_CCMR1_OC2CE);
 20178              		.loc 1 1731 0
 20179 0002 4FEA4343 		lsl	r3, r3, #17
 20180              	.LVL247:
 20181 0006 4FEA5343 		lsr	r3, r3, #17
 20182              	.LVL248:
1732:../Library/STM32F10x_StdPeriph_Driver/src/stm32f10x_tim.c ****   /* Enable or Disable the Output Compare Clear Bit */
1733:../Library/STM32F10x_StdPeriph_Driver/src/stm32f10x_tim.c ****   tmpccmr1 |= (uint16_t)(TIM_OCClear << 8);
 20183              		.loc 1 1733 0
 20184 000a 43EA0123 		orr	r3, r3, r1, lsl #8
 20185              	.LVL249:
 20186 000e 9BB2     		uxth	r3, r3
 20187              	.LVL250:
1734:../Library/STM32F10x_StdPeriph_Driver/src/stm32f10x_tim.c ****   /* Write to TIMx CCMR1 register */
1735:../Library/STM32F10x_StdPeriph_Driver/src/stm32f10x_tim.c ****   TIMx->CCMR1 = tmpccmr1;
 20188              		.loc 1 1735 0
 20189 0010 0383     		strh	r3, [r0, #24]	@ movhi
1736:../Library/STM32F10x_StdPeriph_Driver/src/stm32f10x_tim.c **** }
 20190              		.loc 1 1736 0
 20191 0012 7047     		bx	lr
 20192              		.cfi_endproc
 20193              	.LFE75:
 20195              		.section	.text.TIM_ClearOC3Ref,"ax",%progbits
 20196              		.align	2
 20197              		.global	TIM_ClearOC3Ref
 20198              		.thumb
 20199              		.thumb_func
 20201              	TIM_ClearOC3Ref:
 20202              	.LFB76:
1737:../Library/STM32F10x_StdPeriph_Driver/src/stm32f10x_tim.c **** 
1738:../Library/STM32F10x_StdPeriph_Driver/src/stm32f10x_tim.c **** /**
1739:../Library/STM32F10x_StdPeriph_Driver/src/stm32f10x_tim.c ****   * @brief  Clears or safeguards the OCREF3 signal on an external event
1740:../Library/STM32F10x_StdPeriph_Driver/src/stm32f10x_tim.c ****   * @param  TIMx: where x can be  1, 2, 3, 4, 5 or 8 to select the TIM peripheral.
1741:../Library/STM32F10x_StdPeriph_Driver/src/stm32f10x_tim.c ****   * @param  TIM_OCClear: new state of the Output Compare Clear Enable Bit.
1742:../Library/STM32F10x_StdPeriph_Driver/src/stm32f10x_tim.c ****   *   This parameter can be one of the following values:
1743:../Library/STM32F10x_StdPeriph_Driver/src/stm32f10x_tim.c ****   *     @arg TIM_OCClear_Enable: TIM Output clear enable
1744:../Library/STM32F10x_StdPeriph_Driver/src/stm32f10x_tim.c ****   *     @arg TIM_OCClear_Disable: TIM Output clear disable
1745:../Library/STM32F10x_StdPeriph_Driver/src/stm32f10x_tim.c ****   * @retval None
1746:../Library/STM32F10x_StdPeriph_Driver/src/stm32f10x_tim.c ****   */
1747:../Library/STM32F10x_StdPeriph_Driver/src/stm32f10x_tim.c **** void TIM_ClearOC3Ref(TIM_TypeDef* TIMx, uint16_t TIM_OCClear)
1748:../Library/STM32F10x_StdPeriph_Driver/src/stm32f10x_tim.c **** {
 20203              		.loc 1 1748 0
 20204              		.cfi_startproc
 20205              		@ args = 0, pretend = 0, frame = 0
 20206              		@ frame_needed = 0, uses_anonymous_args = 0
 20207              		@ link register save eliminated.
 20208              	.LVL251:
1749:../Library/STM32F10x_StdPeriph_Driver/src/stm32f10x_tim.c ****   uint16_t tmpccmr2 = 0;
1750:../Library/STM32F10x_StdPeriph_Driver/src/stm32f10x_tim.c ****   /* Check the parameters */
1751:../Library/STM32F10x_StdPeriph_Driver/src/stm32f10x_tim.c ****   assert_param(IS_TIM_LIST3_PERIPH(TIMx));
1752:../Library/STM32F10x_StdPeriph_Driver/src/stm32f10x_tim.c ****   assert_param(IS_TIM_OCCLEAR_STATE(TIM_OCClear));
1753:../Library/STM32F10x_StdPeriph_Driver/src/stm32f10x_tim.c ****   tmpccmr2 = TIMx->CCMR2;
 20209              		.loc 1 1753 0
 20210 0000 838B     		ldrh	r3, [r0, #28]
1754:../Library/STM32F10x_StdPeriph_Driver/src/stm32f10x_tim.c ****   /* Reset the OC3CE Bit */
1755:../Library/STM32F10x_StdPeriph_Driver/src/stm32f10x_tim.c ****   tmpccmr2 &= (uint16_t)~((uint16_t)TIM_CCMR2_OC3CE);
 20211              		.loc 1 1755 0
 20212 0002 23F08003 		bic	r3, r3, #128
 20213              	.LVL252:
 20214 0006 4FEA0343 		lsl	r3, r3, #16
 20215              	.LVL253:
 20216 000a 4FEA1343 		lsr	r3, r3, #16
 20217              	.LVL254:
1756:../Library/STM32F10x_StdPeriph_Driver/src/stm32f10x_tim.c ****   /* Enable or Disable the Output Compare Clear Bit */
1757:../Library/STM32F10x_StdPeriph_Driver/src/stm32f10x_tim.c ****   tmpccmr2 |= TIM_OCClear;
 20218              		.loc 1 1757 0
 20219 000e 41EA0303 		orr	r3, r1, r3
 20220              	.LVL255:
1758:../Library/STM32F10x_StdPeriph_Driver/src/stm32f10x_tim.c ****   /* Write to TIMx CCMR2 register */
1759:../Library/STM32F10x_StdPeriph_Driver/src/stm32f10x_tim.c ****   TIMx->CCMR2 = tmpccmr2;
 20221              		.loc 1 1759 0
 20222 0012 8383     		strh	r3, [r0, #28]	@ movhi
1760:../Library/STM32F10x_StdPeriph_Driver/src/stm32f10x_tim.c **** }
 20223              		.loc 1 1760 0
 20224 0014 7047     		bx	lr
 20225              		.cfi_endproc
 20226              	.LFE76:
 20228 0016 00BF     		.section	.text.TIM_ClearOC4Ref,"ax",%progbits
 20229              		.align	2
 20230              		.global	TIM_ClearOC4Ref
 20231              		.thumb
 20232              		.thumb_func
 20234              	TIM_ClearOC4Ref:
 20235              	.LFB77:
1761:../Library/STM32F10x_StdPeriph_Driver/src/stm32f10x_tim.c **** 
1762:../Library/STM32F10x_StdPeriph_Driver/src/stm32f10x_tim.c **** /**
1763:../Library/STM32F10x_StdPeriph_Driver/src/stm32f10x_tim.c ****   * @brief  Clears or safeguards the OCREF4 signal on an external event
1764:../Library/STM32F10x_StdPeriph_Driver/src/stm32f10x_tim.c ****   * @param  TIMx: where x can be  1, 2, 3, 4, 5 or 8 to select the TIM peripheral.
1765:../Library/STM32F10x_StdPeriph_Driver/src/stm32f10x_tim.c ****   * @param  TIM_OCClear: new state of the Output Compare Clear Enable Bit.
1766:../Library/STM32F10x_StdPeriph_Driver/src/stm32f10x_tim.c ****   *   This parameter can be one of the following values:
1767:../Library/STM32F10x_StdPeriph_Driver/src/stm32f10x_tim.c ****   *     @arg TIM_OCClear_Enable: TIM Output clear enable
1768:../Library/STM32F10x_StdPeriph_Driver/src/stm32f10x_tim.c ****   *     @arg TIM_OCClear_Disable: TIM Output clear disable
1769:../Library/STM32F10x_StdPeriph_Driver/src/stm32f10x_tim.c ****   * @retval None
1770:../Library/STM32F10x_StdPeriph_Driver/src/stm32f10x_tim.c ****   */
1771:../Library/STM32F10x_StdPeriph_Driver/src/stm32f10x_tim.c **** void TIM_ClearOC4Ref(TIM_TypeDef* TIMx, uint16_t TIM_OCClear)
1772:../Library/STM32F10x_StdPeriph_Driver/src/stm32f10x_tim.c **** {
 20236              		.loc 1 1772 0
 20237              		.cfi_startproc
 20238              		@ args = 0, pretend = 0, frame = 0
 20239              		@ frame_needed = 0, uses_anonymous_args = 0
 20240              		@ link register save eliminated.
 20241              	.LVL256:
1773:../Library/STM32F10x_StdPeriph_Driver/src/stm32f10x_tim.c ****   uint16_t tmpccmr2 = 0;
1774:../Library/STM32F10x_StdPeriph_Driver/src/stm32f10x_tim.c ****   /* Check the parameters */
1775:../Library/STM32F10x_StdPeriph_Driver/src/stm32f10x_tim.c ****   assert_param(IS_TIM_LIST3_PERIPH(TIMx));
1776:../Library/STM32F10x_StdPeriph_Driver/src/stm32f10x_tim.c ****   assert_param(IS_TIM_OCCLEAR_STATE(TIM_OCClear));
1777:../Library/STM32F10x_StdPeriph_Driver/src/stm32f10x_tim.c ****   tmpccmr2 = TIMx->CCMR2;
 20242              		.loc 1 1777 0
 20243 0000 838B     		ldrh	r3, [r0, #28]
1778:../Library/STM32F10x_StdPeriph_Driver/src/stm32f10x_tim.c ****   /* Reset the OC4CE Bit */
1779:../Library/STM32F10x_StdPeriph_Driver/src/stm32f10x_tim.c ****   tmpccmr2 &= (uint16_t)~((uint16_t)TIM_CCMR2_OC4CE);
 20244              		.loc 1 1779 0
 20245 0002 4FEA4343 		lsl	r3, r3, #17
 20246              	.LVL257:
 20247 0006 4FEA5343 		lsr	r3, r3, #17
 20248              	.LVL258:
1780:../Library/STM32F10x_StdPeriph_Driver/src/stm32f10x_tim.c ****   /* Enable or Disable the Output Compare Clear Bit */
1781:../Library/STM32F10x_StdPeriph_Driver/src/stm32f10x_tim.c ****   tmpccmr2 |= (uint16_t)(TIM_OCClear << 8);
 20249              		.loc 1 1781 0
 20250 000a 43EA0123 		orr	r3, r3, r1, lsl #8
 20251              	.LVL259:
 20252 000e 9BB2     		uxth	r3, r3
 20253              	.LVL260:
1782:../Library/STM32F10x_StdPeriph_Driver/src/stm32f10x_tim.c ****   /* Write to TIMx CCMR2 register */
1783:../Library/STM32F10x_StdPeriph_Driver/src/stm32f10x_tim.c ****   TIMx->CCMR2 = tmpccmr2;
 20254              		.loc 1 1783 0
 20255 0010 8383     		strh	r3, [r0, #28]	@ movhi
1784:../Library/STM32F10x_StdPeriph_Driver/src/stm32f10x_tim.c **** }
 20256              		.loc 1 1784 0
 20257 0012 7047     		bx	lr
 20258              		.cfi_endproc
 20259              	.LFE77:
 20261              		.section	.text.TIM_OC1PolarityConfig,"ax",%progbits
 20262              		.align	2
 20263              		.global	TIM_OC1PolarityConfig
 20264              		.thumb
 20265              		.thumb_func
 20267              	TIM_OC1PolarityConfig:
 20268              	.LFB78:
1785:../Library/STM32F10x_StdPeriph_Driver/src/stm32f10x_tim.c **** 
1786:../Library/STM32F10x_StdPeriph_Driver/src/stm32f10x_tim.c **** /**
1787:../Library/STM32F10x_StdPeriph_Driver/src/stm32f10x_tim.c ****   * @brief  Configures the TIMx channel 1 polarity.
1788:../Library/STM32F10x_StdPeriph_Driver/src/stm32f10x_tim.c ****   * @param  TIMx: where x can be 1 to 17 except 6 and 7 to select the TIM peripheral.
1789:../Library/STM32F10x_StdPeriph_Driver/src/stm32f10x_tim.c ****   * @param  TIM_OCPolarity: specifies the OC1 Polarity
1790:../Library/STM32F10x_StdPeriph_Driver/src/stm32f10x_tim.c ****   *   This parmeter can be one of the following values:
1791:../Library/STM32F10x_StdPeriph_Driver/src/stm32f10x_tim.c ****   *     @arg TIM_OCPolarity_High: Output Compare active high
1792:../Library/STM32F10x_StdPeriph_Driver/src/stm32f10x_tim.c ****   *     @arg TIM_OCPolarity_Low: Output Compare active low
1793:../Library/STM32F10x_StdPeriph_Driver/src/stm32f10x_tim.c ****   * @retval None
1794:../Library/STM32F10x_StdPeriph_Driver/src/stm32f10x_tim.c ****   */
1795:../Library/STM32F10x_StdPeriph_Driver/src/stm32f10x_tim.c **** void TIM_OC1PolarityConfig(TIM_TypeDef* TIMx, uint16_t TIM_OCPolarity)
1796:../Library/STM32F10x_StdPeriph_Driver/src/stm32f10x_tim.c **** {
 20269              		.loc 1 1796 0
 20270              		.cfi_startproc
 20271              		@ args = 0, pretend = 0, frame = 0
 20272              		@ frame_needed = 0, uses_anonymous_args = 0
 20273              		@ link register save eliminated.
 20274              	.LVL261:
1797:../Library/STM32F10x_StdPeriph_Driver/src/stm32f10x_tim.c ****   uint16_t tmpccer = 0;
1798:../Library/STM32F10x_StdPeriph_Driver/src/stm32f10x_tim.c ****   /* Check the parameters */
1799:../Library/STM32F10x_StdPeriph_Driver/src/stm32f10x_tim.c ****   assert_param(IS_TIM_LIST8_PERIPH(TIMx));
1800:../Library/STM32F10x_StdPeriph_Driver/src/stm32f10x_tim.c ****   assert_param(IS_TIM_OC_POLARITY(TIM_OCPolarity));
1801:../Library/STM32F10x_StdPeriph_Driver/src/stm32f10x_tim.c ****   tmpccer = TIMx->CCER;
 20275              		.loc 1 1801 0
 20276 0000 038C     		ldrh	r3, [r0, #32]
1802:../Library/STM32F10x_StdPeriph_Driver/src/stm32f10x_tim.c ****   /* Set or Reset the CC1P Bit */
1803:../Library/STM32F10x_StdPeriph_Driver/src/stm32f10x_tim.c ****   tmpccer &= (uint16_t)~((uint16_t)TIM_CCER_CC1P);
 20277              		.loc 1 1803 0
 20278 0002 23F00203 		bic	r3, r3, #2
 20279              	.LVL262:
 20280 0006 4FEA0343 		lsl	r3, r3, #16
 20281              	.LVL263:
 20282 000a 4FEA1343 		lsr	r3, r3, #16
 20283              	.LVL264:
1804:../Library/STM32F10x_StdPeriph_Driver/src/stm32f10x_tim.c ****   tmpccer |= TIM_OCPolarity;
 20284              		.loc 1 1804 0
 20285 000e 41EA0303 		orr	r3, r1, r3
 20286              	.LVL265:
1805:../Library/STM32F10x_StdPeriph_Driver/src/stm32f10x_tim.c ****   /* Write to TIMx CCER register */
1806:../Library/STM32F10x_StdPeriph_Driver/src/stm32f10x_tim.c ****   TIMx->CCER = tmpccer;
 20287              		.loc 1 1806 0
 20288 0012 0384     		strh	r3, [r0, #32]	@ movhi
1807:../Library/STM32F10x_StdPeriph_Driver/src/stm32f10x_tim.c **** }
 20289              		.loc 1 1807 0
 20290 0014 7047     		bx	lr
 20291              		.cfi_endproc
 20292              	.LFE78:
 20294 0016 00BF     		.section	.text.TIM_OC1NPolarityConfig,"ax",%progbits
 20295              		.align	2
 20296              		.global	TIM_OC1NPolarityConfig
 20297              		.thumb
 20298              		.thumb_func
 20300              	TIM_OC1NPolarityConfig:
 20301              	.LFB79:
1808:../Library/STM32F10x_StdPeriph_Driver/src/stm32f10x_tim.c **** 
1809:../Library/STM32F10x_StdPeriph_Driver/src/stm32f10x_tim.c **** /**
1810:../Library/STM32F10x_StdPeriph_Driver/src/stm32f10x_tim.c ****   * @brief  Configures the TIMx Channel 1N polarity.
1811:../Library/STM32F10x_StdPeriph_Driver/src/stm32f10x_tim.c ****   * @param  TIMx: where x can be 1, 8, 15, 16 or 17 to select the TIM peripheral.
1812:../Library/STM32F10x_StdPeriph_Driver/src/stm32f10x_tim.c ****   * @param  TIM_OCNPolarity: specifies the OC1N Polarity
1813:../Library/STM32F10x_StdPeriph_Driver/src/stm32f10x_tim.c ****   *   This parmeter can be one of the following values:
1814:../Library/STM32F10x_StdPeriph_Driver/src/stm32f10x_tim.c ****   *     @arg TIM_OCNPolarity_High: Output Compare active high
1815:../Library/STM32F10x_StdPeriph_Driver/src/stm32f10x_tim.c ****   *     @arg TIM_OCNPolarity_Low: Output Compare active low
1816:../Library/STM32F10x_StdPeriph_Driver/src/stm32f10x_tim.c ****   * @retval None
1817:../Library/STM32F10x_StdPeriph_Driver/src/stm32f10x_tim.c ****   */
1818:../Library/STM32F10x_StdPeriph_Driver/src/stm32f10x_tim.c **** void TIM_OC1NPolarityConfig(TIM_TypeDef* TIMx, uint16_t TIM_OCNPolarity)
1819:../Library/STM32F10x_StdPeriph_Driver/src/stm32f10x_tim.c **** {
 20302              		.loc 1 1819 0
 20303              		.cfi_startproc
 20304              		@ args = 0, pretend = 0, frame = 0
 20305              		@ frame_needed = 0, uses_anonymous_args = 0
 20306              		@ link register save eliminated.
 20307              	.LVL266:
1820:../Library/STM32F10x_StdPeriph_Driver/src/stm32f10x_tim.c ****   uint16_t tmpccer = 0;
1821:../Library/STM32F10x_StdPeriph_Driver/src/stm32f10x_tim.c ****   /* Check the parameters */
1822:../Library/STM32F10x_StdPeriph_Driver/src/stm32f10x_tim.c ****   assert_param(IS_TIM_LIST2_PERIPH(TIMx));
1823:../Library/STM32F10x_StdPeriph_Driver/src/stm32f10x_tim.c ****   assert_param(IS_TIM_OCN_POLARITY(TIM_OCNPolarity));
1824:../Library/STM32F10x_StdPeriph_Driver/src/stm32f10x_tim.c ****    
1825:../Library/STM32F10x_StdPeriph_Driver/src/stm32f10x_tim.c ****   tmpccer = TIMx->CCER;
 20308              		.loc 1 1825 0
 20309 0000 038C     		ldrh	r3, [r0, #32]
1826:../Library/STM32F10x_StdPeriph_Driver/src/stm32f10x_tim.c ****   /* Set or Reset the CC1NP Bit */
1827:../Library/STM32F10x_StdPeriph_Driver/src/stm32f10x_tim.c ****   tmpccer &= (uint16_t)~((uint16_t)TIM_CCER_CC1NP);
 20310              		.loc 1 1827 0
 20311 0002 23F00803 		bic	r3, r3, #8
 20312              	.LVL267:
 20313 0006 4FEA0343 		lsl	r3, r3, #16
 20314              	.LVL268:
 20315 000a 4FEA1343 		lsr	r3, r3, #16
 20316              	.LVL269:
1828:../Library/STM32F10x_StdPeriph_Driver/src/stm32f10x_tim.c ****   tmpccer |= TIM_OCNPolarity;
 20317              		.loc 1 1828 0
 20318 000e 41EA0303 		orr	r3, r1, r3
 20319              	.LVL270:
1829:../Library/STM32F10x_StdPeriph_Driver/src/stm32f10x_tim.c ****   /* Write to TIMx CCER register */
1830:../Library/STM32F10x_StdPeriph_Driver/src/stm32f10x_tim.c ****   TIMx->CCER = tmpccer;
 20320              		.loc 1 1830 0
 20321 0012 0384     		strh	r3, [r0, #32]	@ movhi
1831:../Library/STM32F10x_StdPeriph_Driver/src/stm32f10x_tim.c **** }
 20322              		.loc 1 1831 0
 20323 0014 7047     		bx	lr
 20324              		.cfi_endproc
 20325              	.LFE79:
 20327 0016 00BF     		.section	.text.TIM_OC2PolarityConfig,"ax",%progbits
 20328              		.align	2
 20329              		.global	TIM_OC2PolarityConfig
 20330              		.thumb
 20331              		.thumb_func
 20333              	TIM_OC2PolarityConfig:
 20334              	.LFB80:
1832:../Library/STM32F10x_StdPeriph_Driver/src/stm32f10x_tim.c **** 
1833:../Library/STM32F10x_StdPeriph_Driver/src/stm32f10x_tim.c **** /**
1834:../Library/STM32F10x_StdPeriph_Driver/src/stm32f10x_tim.c ****   * @brief  Configures the TIMx channel 2 polarity.
1835:../Library/STM32F10x_StdPeriph_Driver/src/stm32f10x_tim.c ****   * @param  TIMx: where x can be 1, 2, 3, 4, 5, 8, 9, 12 or 15 to select the TIM peripheral.
1836:../Library/STM32F10x_StdPeriph_Driver/src/stm32f10x_tim.c ****   * @param  TIM_OCPolarity: specifies the OC2 Polarity
1837:../Library/STM32F10x_StdPeriph_Driver/src/stm32f10x_tim.c ****   *   This parmeter can be one of the following values:
1838:../Library/STM32F10x_StdPeriph_Driver/src/stm32f10x_tim.c ****   *     @arg TIM_OCPolarity_High: Output Compare active high
1839:../Library/STM32F10x_StdPeriph_Driver/src/stm32f10x_tim.c ****   *     @arg TIM_OCPolarity_Low: Output Compare active low
1840:../Library/STM32F10x_StdPeriph_Driver/src/stm32f10x_tim.c ****   * @retval None
1841:../Library/STM32F10x_StdPeriph_Driver/src/stm32f10x_tim.c ****   */
1842:../Library/STM32F10x_StdPeriph_Driver/src/stm32f10x_tim.c **** void TIM_OC2PolarityConfig(TIM_TypeDef* TIMx, uint16_t TIM_OCPolarity)
1843:../Library/STM32F10x_StdPeriph_Driver/src/stm32f10x_tim.c **** {
 20335              		.loc 1 1843 0
 20336              		.cfi_startproc
 20337              		@ args = 0, pretend = 0, frame = 0
 20338              		@ frame_needed = 0, uses_anonymous_args = 0
 20339              		@ link register save eliminated.
 20340              	.LVL271:
1844:../Library/STM32F10x_StdPeriph_Driver/src/stm32f10x_tim.c ****   uint16_t tmpccer = 0;
1845:../Library/STM32F10x_StdPeriph_Driver/src/stm32f10x_tim.c ****   /* Check the parameters */
1846:../Library/STM32F10x_StdPeriph_Driver/src/stm32f10x_tim.c ****   assert_param(IS_TIM_LIST6_PERIPH(TIMx));
1847:../Library/STM32F10x_StdPeriph_Driver/src/stm32f10x_tim.c ****   assert_param(IS_TIM_OC_POLARITY(TIM_OCPolarity));
1848:../Library/STM32F10x_StdPeriph_Driver/src/stm32f10x_tim.c ****   tmpccer = TIMx->CCER;
 20341              		.loc 1 1848 0
 20342 0000 038C     		ldrh	r3, [r0, #32]
1849:../Library/STM32F10x_StdPeriph_Driver/src/stm32f10x_tim.c ****   /* Set or Reset the CC2P Bit */
1850:../Library/STM32F10x_StdPeriph_Driver/src/stm32f10x_tim.c ****   tmpccer &= (uint16_t)~((uint16_t)TIM_CCER_CC2P);
 20343              		.loc 1 1850 0
 20344 0002 23F02003 		bic	r3, r3, #32
 20345              	.LVL272:
 20346 0006 4FEA0343 		lsl	r3, r3, #16
 20347              	.LVL273:
 20348 000a 4FEA1343 		lsr	r3, r3, #16
 20349              	.LVL274:
1851:../Library/STM32F10x_StdPeriph_Driver/src/stm32f10x_tim.c ****   tmpccer |= (uint16_t)(TIM_OCPolarity << 4);
 20350              		.loc 1 1851 0
 20351 000e 43EA0113 		orr	r3, r3, r1, lsl #4
 20352              	.LVL275:
 20353 0012 9BB2     		uxth	r3, r3
 20354              	.LVL276:
1852:../Library/STM32F10x_StdPeriph_Driver/src/stm32f10x_tim.c ****   /* Write to TIMx CCER register */
1853:../Library/STM32F10x_StdPeriph_Driver/src/stm32f10x_tim.c ****   TIMx->CCER = tmpccer;
 20355              		.loc 1 1853 0
 20356 0014 0384     		strh	r3, [r0, #32]	@ movhi
1854:../Library/STM32F10x_StdPeriph_Driver/src/stm32f10x_tim.c **** }
 20357              		.loc 1 1854 0
 20358 0016 7047     		bx	lr
 20359              		.cfi_endproc
 20360              	.LFE80:
 20362              		.section	.text.TIM_OC2NPolarityConfig,"ax",%progbits
 20363              		.align	2
 20364              		.global	TIM_OC2NPolarityConfig
 20365              		.thumb
 20366              		.thumb_func
 20368              	TIM_OC2NPolarityConfig:
 20369              	.LFB81:
1855:../Library/STM32F10x_StdPeriph_Driver/src/stm32f10x_tim.c **** 
1856:../Library/STM32F10x_StdPeriph_Driver/src/stm32f10x_tim.c **** /**
1857:../Library/STM32F10x_StdPeriph_Driver/src/stm32f10x_tim.c ****   * @brief  Configures the TIMx Channel 2N polarity.
1858:../Library/STM32F10x_StdPeriph_Driver/src/stm32f10x_tim.c ****   * @param  TIMx: where x can be 1 or 8 to select the TIM peripheral.
1859:../Library/STM32F10x_StdPeriph_Driver/src/stm32f10x_tim.c ****   * @param  TIM_OCNPolarity: specifies the OC2N Polarity
1860:../Library/STM32F10x_StdPeriph_Driver/src/stm32f10x_tim.c ****   *   This parmeter can be one of the following values:
1861:../Library/STM32F10x_StdPeriph_Driver/src/stm32f10x_tim.c ****   *     @arg TIM_OCNPolarity_High: Output Compare active high
1862:../Library/STM32F10x_StdPeriph_Driver/src/stm32f10x_tim.c ****   *     @arg TIM_OCNPolarity_Low: Output Compare active low
1863:../Library/STM32F10x_StdPeriph_Driver/src/stm32f10x_tim.c ****   * @retval None
1864:../Library/STM32F10x_StdPeriph_Driver/src/stm32f10x_tim.c ****   */
1865:../Library/STM32F10x_StdPeriph_Driver/src/stm32f10x_tim.c **** void TIM_OC2NPolarityConfig(TIM_TypeDef* TIMx, uint16_t TIM_OCNPolarity)
1866:../Library/STM32F10x_StdPeriph_Driver/src/stm32f10x_tim.c **** {
 20370              		.loc 1 1866 0
 20371              		.cfi_startproc
 20372              		@ args = 0, pretend = 0, frame = 0
 20373              		@ frame_needed = 0, uses_anonymous_args = 0
 20374              		@ link register save eliminated.
 20375              	.LVL277:
1867:../Library/STM32F10x_StdPeriph_Driver/src/stm32f10x_tim.c ****   uint16_t tmpccer = 0;
1868:../Library/STM32F10x_StdPeriph_Driver/src/stm32f10x_tim.c ****   /* Check the parameters */
1869:../Library/STM32F10x_StdPeriph_Driver/src/stm32f10x_tim.c ****   assert_param(IS_TIM_LIST1_PERIPH(TIMx));
1870:../Library/STM32F10x_StdPeriph_Driver/src/stm32f10x_tim.c ****   assert_param(IS_TIM_OCN_POLARITY(TIM_OCNPolarity));
1871:../Library/STM32F10x_StdPeriph_Driver/src/stm32f10x_tim.c ****   
1872:../Library/STM32F10x_StdPeriph_Driver/src/stm32f10x_tim.c ****   tmpccer = TIMx->CCER;
 20376              		.loc 1 1872 0
 20377 0000 038C     		ldrh	r3, [r0, #32]
1873:../Library/STM32F10x_StdPeriph_Driver/src/stm32f10x_tim.c ****   /* Set or Reset the CC2NP Bit */
1874:../Library/STM32F10x_StdPeriph_Driver/src/stm32f10x_tim.c ****   tmpccer &= (uint16_t)~((uint16_t)TIM_CCER_CC2NP);
 20378              		.loc 1 1874 0
 20379 0002 23F08003 		bic	r3, r3, #128
 20380              	.LVL278:
 20381 0006 4FEA0343 		lsl	r3, r3, #16
 20382              	.LVL279:
 20383 000a 4FEA1343 		lsr	r3, r3, #16
 20384              	.LVL280:
1875:../Library/STM32F10x_StdPeriph_Driver/src/stm32f10x_tim.c ****   tmpccer |= (uint16_t)(TIM_OCNPolarity << 4);
 20385              		.loc 1 1875 0
 20386 000e 43EA0113 		orr	r3, r3, r1, lsl #4
 20387              	.LVL281:
 20388 0012 9BB2     		uxth	r3, r3
 20389              	.LVL282:
1876:../Library/STM32F10x_StdPeriph_Driver/src/stm32f10x_tim.c ****   /* Write to TIMx CCER register */
1877:../Library/STM32F10x_StdPeriph_Driver/src/stm32f10x_tim.c ****   TIMx->CCER = tmpccer;
 20390              		.loc 1 1877 0
 20391 0014 0384     		strh	r3, [r0, #32]	@ movhi
1878:../Library/STM32F10x_StdPeriph_Driver/src/stm32f10x_tim.c **** }
 20392              		.loc 1 1878 0
 20393 0016 7047     		bx	lr
 20394              		.cfi_endproc
 20395              	.LFE81:
 20397              		.section	.text.TIM_OC3PolarityConfig,"ax",%progbits
 20398              		.align	2
 20399              		.global	TIM_OC3PolarityConfig
 20400              		.thumb
 20401              		.thumb_func
 20403              	TIM_OC3PolarityConfig:
 20404              	.LFB82:
1879:../Library/STM32F10x_StdPeriph_Driver/src/stm32f10x_tim.c **** 
1880:../Library/STM32F10x_StdPeriph_Driver/src/stm32f10x_tim.c **** /**
1881:../Library/STM32F10x_StdPeriph_Driver/src/stm32f10x_tim.c ****   * @brief  Configures the TIMx channel 3 polarity.
1882:../Library/STM32F10x_StdPeriph_Driver/src/stm32f10x_tim.c ****   * @param  TIMx: where x can be 1, 2, 3, 4, 5 or 8 to select the TIM peripheral.
1883:../Library/STM32F10x_StdPeriph_Driver/src/stm32f10x_tim.c ****   * @param  TIM_OCPolarity: specifies the OC3 Polarity
1884:../Library/STM32F10x_StdPeriph_Driver/src/stm32f10x_tim.c ****   *   This parmeter can be one of the following values:
1885:../Library/STM32F10x_StdPeriph_Driver/src/stm32f10x_tim.c ****   *     @arg TIM_OCPolarity_High: Output Compare active high
1886:../Library/STM32F10x_StdPeriph_Driver/src/stm32f10x_tim.c ****   *     @arg TIM_OCPolarity_Low: Output Compare active low
1887:../Library/STM32F10x_StdPeriph_Driver/src/stm32f10x_tim.c ****   * @retval None
1888:../Library/STM32F10x_StdPeriph_Driver/src/stm32f10x_tim.c ****   */
1889:../Library/STM32F10x_StdPeriph_Driver/src/stm32f10x_tim.c **** void TIM_OC3PolarityConfig(TIM_TypeDef* TIMx, uint16_t TIM_OCPolarity)
1890:../Library/STM32F10x_StdPeriph_Driver/src/stm32f10x_tim.c **** {
 20405              		.loc 1 1890 0
 20406              		.cfi_startproc
 20407              		@ args = 0, pretend = 0, frame = 0
 20408              		@ frame_needed = 0, uses_anonymous_args = 0
 20409              		@ link register save eliminated.
 20410              	.LVL283:
1891:../Library/STM32F10x_StdPeriph_Driver/src/stm32f10x_tim.c ****   uint16_t tmpccer = 0;
1892:../Library/STM32F10x_StdPeriph_Driver/src/stm32f10x_tim.c ****   /* Check the parameters */
1893:../Library/STM32F10x_StdPeriph_Driver/src/stm32f10x_tim.c ****   assert_param(IS_TIM_LIST3_PERIPH(TIMx));
1894:../Library/STM32F10x_StdPeriph_Driver/src/stm32f10x_tim.c ****   assert_param(IS_TIM_OC_POLARITY(TIM_OCPolarity));
1895:../Library/STM32F10x_StdPeriph_Driver/src/stm32f10x_tim.c ****   tmpccer = TIMx->CCER;
 20411              		.loc 1 1895 0
 20412 0000 038C     		ldrh	r3, [r0, #32]
1896:../Library/STM32F10x_StdPeriph_Driver/src/stm32f10x_tim.c ****   /* Set or Reset the CC3P Bit */
1897:../Library/STM32F10x_StdPeriph_Driver/src/stm32f10x_tim.c ****   tmpccer &= (uint16_t)~((uint16_t)TIM_CCER_CC3P);
 20413              		.loc 1 1897 0
 20414 0002 23F40073 		bic	r3, r3, #512
 20415              	.LVL284:
 20416 0006 4FEA0343 		lsl	r3, r3, #16
 20417              	.LVL285:
 20418 000a 4FEA1343 		lsr	r3, r3, #16
 20419              	.LVL286:
1898:../Library/STM32F10x_StdPeriph_Driver/src/stm32f10x_tim.c ****   tmpccer |= (uint16_t)(TIM_OCPolarity << 8);
 20420              		.loc 1 1898 0
 20421 000e 43EA0123 		orr	r3, r3, r1, lsl #8
 20422              	.LVL287:
 20423 0012 9BB2     		uxth	r3, r3
 20424              	.LVL288:
1899:../Library/STM32F10x_StdPeriph_Driver/src/stm32f10x_tim.c ****   /* Write to TIMx CCER register */
1900:../Library/STM32F10x_StdPeriph_Driver/src/stm32f10x_tim.c ****   TIMx->CCER = tmpccer;
 20425              		.loc 1 1900 0
 20426 0014 0384     		strh	r3, [r0, #32]	@ movhi
1901:../Library/STM32F10x_StdPeriph_Driver/src/stm32f10x_tim.c **** }
 20427              		.loc 1 1901 0
 20428 0016 7047     		bx	lr
 20429              		.cfi_endproc
 20430              	.LFE82:
 20432              		.section	.text.TIM_OC3NPolarityConfig,"ax",%progbits
 20433              		.align	2
 20434              		.global	TIM_OC3NPolarityConfig
 20435              		.thumb
 20436              		.thumb_func
 20438              	TIM_OC3NPolarityConfig:
 20439              	.LFB83:
1902:../Library/STM32F10x_StdPeriph_Driver/src/stm32f10x_tim.c **** 
1903:../Library/STM32F10x_StdPeriph_Driver/src/stm32f10x_tim.c **** /**
1904:../Library/STM32F10x_StdPeriph_Driver/src/stm32f10x_tim.c ****   * @brief  Configures the TIMx Channel 3N polarity.
1905:../Library/STM32F10x_StdPeriph_Driver/src/stm32f10x_tim.c ****   * @param  TIMx: where x can be 1 or 8 to select the TIM peripheral.
1906:../Library/STM32F10x_StdPeriph_Driver/src/stm32f10x_tim.c ****   * @param  TIM_OCNPolarity: specifies the OC3N Polarity
1907:../Library/STM32F10x_StdPeriph_Driver/src/stm32f10x_tim.c ****   *   This parmeter can be one of the following values:
1908:../Library/STM32F10x_StdPeriph_Driver/src/stm32f10x_tim.c ****   *     @arg TIM_OCNPolarity_High: Output Compare active high
1909:../Library/STM32F10x_StdPeriph_Driver/src/stm32f10x_tim.c ****   *     @arg TIM_OCNPolarity_Low: Output Compare active low
1910:../Library/STM32F10x_StdPeriph_Driver/src/stm32f10x_tim.c ****   * @retval None
1911:../Library/STM32F10x_StdPeriph_Driver/src/stm32f10x_tim.c ****   */
1912:../Library/STM32F10x_StdPeriph_Driver/src/stm32f10x_tim.c **** void TIM_OC3NPolarityConfig(TIM_TypeDef* TIMx, uint16_t TIM_OCNPolarity)
1913:../Library/STM32F10x_StdPeriph_Driver/src/stm32f10x_tim.c **** {
 20440              		.loc 1 1913 0
 20441              		.cfi_startproc
 20442              		@ args = 0, pretend = 0, frame = 0
 20443              		@ frame_needed = 0, uses_anonymous_args = 0
 20444              		@ link register save eliminated.
 20445              	.LVL289:
1914:../Library/STM32F10x_StdPeriph_Driver/src/stm32f10x_tim.c ****   uint16_t tmpccer = 0;
1915:../Library/STM32F10x_StdPeriph_Driver/src/stm32f10x_tim.c ****  
1916:../Library/STM32F10x_StdPeriph_Driver/src/stm32f10x_tim.c ****   /* Check the parameters */
1917:../Library/STM32F10x_StdPeriph_Driver/src/stm32f10x_tim.c ****   assert_param(IS_TIM_LIST1_PERIPH(TIMx));
1918:../Library/STM32F10x_StdPeriph_Driver/src/stm32f10x_tim.c ****   assert_param(IS_TIM_OCN_POLARITY(TIM_OCNPolarity));
1919:../Library/STM32F10x_StdPeriph_Driver/src/stm32f10x_tim.c ****     
1920:../Library/STM32F10x_StdPeriph_Driver/src/stm32f10x_tim.c ****   tmpccer = TIMx->CCER;
 20446              		.loc 1 1920 0
 20447 0000 038C     		ldrh	r3, [r0, #32]
1921:../Library/STM32F10x_StdPeriph_Driver/src/stm32f10x_tim.c ****   /* Set or Reset the CC3NP Bit */
1922:../Library/STM32F10x_StdPeriph_Driver/src/stm32f10x_tim.c ****   tmpccer &= (uint16_t)~((uint16_t)TIM_CCER_CC3NP);
 20448              		.loc 1 1922 0
 20449 0002 23F40063 		bic	r3, r3, #2048
 20450              	.LVL290:
 20451 0006 4FEA0343 		lsl	r3, r3, #16
 20452              	.LVL291:
 20453 000a 4FEA1343 		lsr	r3, r3, #16
 20454              	.LVL292:
1923:../Library/STM32F10x_StdPeriph_Driver/src/stm32f10x_tim.c ****   tmpccer |= (uint16_t)(TIM_OCNPolarity << 8);
 20455              		.loc 1 1923 0
 20456 000e 43EA0123 		orr	r3, r3, r1, lsl #8
 20457              	.LVL293:
 20458 0012 9BB2     		uxth	r3, r3
 20459              	.LVL294:
1924:../Library/STM32F10x_StdPeriph_Driver/src/stm32f10x_tim.c ****   /* Write to TIMx CCER register */
1925:../Library/STM32F10x_StdPeriph_Driver/src/stm32f10x_tim.c ****   TIMx->CCER = tmpccer;
 20460              		.loc 1 1925 0
 20461 0014 0384     		strh	r3, [r0, #32]	@ movhi
1926:../Library/STM32F10x_StdPeriph_Driver/src/stm32f10x_tim.c **** }
 20462              		.loc 1 1926 0
 20463 0016 7047     		bx	lr
 20464              		.cfi_endproc
 20465              	.LFE83:
 20467              		.section	.text.TIM_OC4PolarityConfig,"ax",%progbits
 20468              		.align	2
 20469              		.global	TIM_OC4PolarityConfig
 20470              		.thumb
 20471              		.thumb_func
 20473              	TIM_OC4PolarityConfig:
 20474              	.LFB84:
1927:../Library/STM32F10x_StdPeriph_Driver/src/stm32f10x_tim.c **** 
1928:../Library/STM32F10x_StdPeriph_Driver/src/stm32f10x_tim.c **** /**
1929:../Library/STM32F10x_StdPeriph_Driver/src/stm32f10x_tim.c ****   * @brief  Configures the TIMx channel 4 polarity.
1930:../Library/STM32F10x_StdPeriph_Driver/src/stm32f10x_tim.c ****   * @param  TIMx: where x can be 1, 2, 3, 4, 5 or 8 to select the TIM peripheral.
1931:../Library/STM32F10x_StdPeriph_Driver/src/stm32f10x_tim.c ****   * @param  TIM_OCPolarity: specifies the OC4 Polarity
1932:../Library/STM32F10x_StdPeriph_Driver/src/stm32f10x_tim.c ****   *   This parmeter can be one of the following values:
1933:../Library/STM32F10x_StdPeriph_Driver/src/stm32f10x_tim.c ****   *     @arg TIM_OCPolarity_High: Output Compare active high
1934:../Library/STM32F10x_StdPeriph_Driver/src/stm32f10x_tim.c ****   *     @arg TIM_OCPolarity_Low: Output Compare active low
1935:../Library/STM32F10x_StdPeriph_Driver/src/stm32f10x_tim.c ****   * @retval None
1936:../Library/STM32F10x_StdPeriph_Driver/src/stm32f10x_tim.c ****   */
1937:../Library/STM32F10x_StdPeriph_Driver/src/stm32f10x_tim.c **** void TIM_OC4PolarityConfig(TIM_TypeDef* TIMx, uint16_t TIM_OCPolarity)
1938:../Library/STM32F10x_StdPeriph_Driver/src/stm32f10x_tim.c **** {
 20475              		.loc 1 1938 0
 20476              		.cfi_startproc
 20477              		@ args = 0, pretend = 0, frame = 0
 20478              		@ frame_needed = 0, uses_anonymous_args = 0
 20479              		@ link register save eliminated.
 20480              	.LVL295:
1939:../Library/STM32F10x_StdPeriph_Driver/src/stm32f10x_tim.c ****   uint16_t tmpccer = 0;
1940:../Library/STM32F10x_StdPeriph_Driver/src/stm32f10x_tim.c ****   /* Check the parameters */
1941:../Library/STM32F10x_StdPeriph_Driver/src/stm32f10x_tim.c ****   assert_param(IS_TIM_LIST3_PERIPH(TIMx));
1942:../Library/STM32F10x_StdPeriph_Driver/src/stm32f10x_tim.c ****   assert_param(IS_TIM_OC_POLARITY(TIM_OCPolarity));
1943:../Library/STM32F10x_StdPeriph_Driver/src/stm32f10x_tim.c ****   tmpccer = TIMx->CCER;
 20481              		.loc 1 1943 0
 20482 0000 038C     		ldrh	r3, [r0, #32]
1944:../Library/STM32F10x_StdPeriph_Driver/src/stm32f10x_tim.c ****   /* Set or Reset the CC4P Bit */
1945:../Library/STM32F10x_StdPeriph_Driver/src/stm32f10x_tim.c ****   tmpccer &= (uint16_t)~((uint16_t)TIM_CCER_CC4P);
 20483              		.loc 1 1945 0
 20484 0002 23F40053 		bic	r3, r3, #8192
 20485              	.LVL296:
 20486 0006 4FEA0343 		lsl	r3, r3, #16
 20487              	.LVL297:
 20488 000a 4FEA1343 		lsr	r3, r3, #16
 20489              	.LVL298:
1946:../Library/STM32F10x_StdPeriph_Driver/src/stm32f10x_tim.c ****   tmpccer |= (uint16_t)(TIM_OCPolarity << 12);
 20490              		.loc 1 1946 0
 20491 000e 43EA0133 		orr	r3, r3, r1, lsl #12
 20492              	.LVL299:
 20493 0012 9BB2     		uxth	r3, r3
 20494              	.LVL300:
1947:../Library/STM32F10x_StdPeriph_Driver/src/stm32f10x_tim.c ****   /* Write to TIMx CCER register */
1948:../Library/STM32F10x_StdPeriph_Driver/src/stm32f10x_tim.c ****   TIMx->CCER = tmpccer;
 20495              		.loc 1 1948 0
 20496 0014 0384     		strh	r3, [r0, #32]	@ movhi
1949:../Library/STM32F10x_StdPeriph_Driver/src/stm32f10x_tim.c **** }
 20497              		.loc 1 1949 0
 20498 0016 7047     		bx	lr
 20499              		.cfi_endproc
 20500              	.LFE84:
 20502              		.section	.text.TIM_CCxCmd,"ax",%progbits
 20503              		.align	2
 20504              		.global	TIM_CCxCmd
 20505              		.thumb
 20506              		.thumb_func
 20508              	TIM_CCxCmd:
 20509              	.LFB85:
1950:../Library/STM32F10x_StdPeriph_Driver/src/stm32f10x_tim.c **** 
1951:../Library/STM32F10x_StdPeriph_Driver/src/stm32f10x_tim.c **** /**
1952:../Library/STM32F10x_StdPeriph_Driver/src/stm32f10x_tim.c ****   * @brief  Enables or disables the TIM Capture Compare Channel x.
1953:../Library/STM32F10x_StdPeriph_Driver/src/stm32f10x_tim.c ****   * @param  TIMx: where x can be 1 to 17 except 6 and 7 to select the TIM peripheral.
1954:../Library/STM32F10x_StdPeriph_Driver/src/stm32f10x_tim.c ****   * @param  TIM_Channel: specifies the TIM Channel
1955:../Library/STM32F10x_StdPeriph_Driver/src/stm32f10x_tim.c ****   *   This parmeter can be one of the following values:
1956:../Library/STM32F10x_StdPeriph_Driver/src/stm32f10x_tim.c ****   *     @arg TIM_Channel_1: TIM Channel 1
1957:../Library/STM32F10x_StdPeriph_Driver/src/stm32f10x_tim.c ****   *     @arg TIM_Channel_2: TIM Channel 2
1958:../Library/STM32F10x_StdPeriph_Driver/src/stm32f10x_tim.c ****   *     @arg TIM_Channel_3: TIM Channel 3
1959:../Library/STM32F10x_StdPeriph_Driver/src/stm32f10x_tim.c ****   *     @arg TIM_Channel_4: TIM Channel 4
1960:../Library/STM32F10x_StdPeriph_Driver/src/stm32f10x_tim.c ****   * @param  TIM_CCx: specifies the TIM Channel CCxE bit new state.
1961:../Library/STM32F10x_StdPeriph_Driver/src/stm32f10x_tim.c ****   *   This parameter can be: TIM_CCx_Enable or TIM_CCx_Disable. 
1962:../Library/STM32F10x_StdPeriph_Driver/src/stm32f10x_tim.c ****   * @retval None
1963:../Library/STM32F10x_StdPeriph_Driver/src/stm32f10x_tim.c ****   */
1964:../Library/STM32F10x_StdPeriph_Driver/src/stm32f10x_tim.c **** void TIM_CCxCmd(TIM_TypeDef* TIMx, uint16_t TIM_Channel, uint16_t TIM_CCx)
1965:../Library/STM32F10x_StdPeriph_Driver/src/stm32f10x_tim.c **** {
 20510              		.loc 1 1965 0
 20511              		.cfi_startproc
 20512              		@ args = 0, pretend = 0, frame = 0
 20513              		@ frame_needed = 0, uses_anonymous_args = 0
 20514              		@ link register save eliminated.
 20515              	.LVL301:
1966:../Library/STM32F10x_StdPeriph_Driver/src/stm32f10x_tim.c ****   uint16_t tmp = 0;
1967:../Library/STM32F10x_StdPeriph_Driver/src/stm32f10x_tim.c **** 
1968:../Library/STM32F10x_StdPeriph_Driver/src/stm32f10x_tim.c ****   /* Check the parameters */
1969:../Library/STM32F10x_StdPeriph_Driver/src/stm32f10x_tim.c ****   assert_param(IS_TIM_LIST8_PERIPH(TIMx));
1970:../Library/STM32F10x_StdPeriph_Driver/src/stm32f10x_tim.c ****   assert_param(IS_TIM_CHANNEL(TIM_Channel));
1971:../Library/STM32F10x_StdPeriph_Driver/src/stm32f10x_tim.c ****   assert_param(IS_TIM_CCX(TIM_CCx));
1972:../Library/STM32F10x_StdPeriph_Driver/src/stm32f10x_tim.c **** 
1973:../Library/STM32F10x_StdPeriph_Driver/src/stm32f10x_tim.c ****   tmp = CCER_CCE_Set << TIM_Channel;
1974:../Library/STM32F10x_StdPeriph_Driver/src/stm32f10x_tim.c **** 
1975:../Library/STM32F10x_StdPeriph_Driver/src/stm32f10x_tim.c ****   /* Reset the CCxE Bit */
1976:../Library/STM32F10x_StdPeriph_Driver/src/stm32f10x_tim.c ****   TIMx->CCER &= (uint16_t)~ tmp;
 20516              		.loc 1 1976 0
 20517 0000 B0F820C0 		ldrh	ip, [r0, #32]
 20518 0004 1FFA8CFC 		uxth	ip, ip
 20519 0008 4FF00103 		mov	r3, #1
 20520 000c 03FA01F3 		lsl	r3, r3, r1
 20521 0010 2CEA0303 		bic	r3, ip, r3
 20522 0014 0384     		strh	r3, [r0, #32]	@ movhi
1977:../Library/STM32F10x_StdPeriph_Driver/src/stm32f10x_tim.c **** 
1978:../Library/STM32F10x_StdPeriph_Driver/src/stm32f10x_tim.c ****   /* Set or reset the CCxE Bit */ 
1979:../Library/STM32F10x_StdPeriph_Driver/src/stm32f10x_tim.c ****   TIMx->CCER |=  (uint16_t)(TIM_CCx << TIM_Channel);
 20523              		.loc 1 1979 0
 20524 0016 038C     		ldrh	r3, [r0, #32]
 20525 0018 02FA01F1 		lsl	r1, r2, r1
 20526              	.LVL302:
 20527 001c 41EA0303 		orr	r3, r1, r3
 20528 0020 9BB2     		uxth	r3, r3
 20529 0022 0384     		strh	r3, [r0, #32]	@ movhi
1980:../Library/STM32F10x_StdPeriph_Driver/src/stm32f10x_tim.c **** }
 20530              		.loc 1 1980 0
 20531 0024 7047     		bx	lr
 20532              		.cfi_endproc
 20533              	.LFE85:
 20535 0026 00BF     		.section	.text.TIM_CCxNCmd,"ax",%progbits
 20536              		.align	2
 20537              		.global	TIM_CCxNCmd
 20538              		.thumb
 20539              		.thumb_func
 20541              	TIM_CCxNCmd:
 20542              	.LFB86:
1981:../Library/STM32F10x_StdPeriph_Driver/src/stm32f10x_tim.c **** 
1982:../Library/STM32F10x_StdPeriph_Driver/src/stm32f10x_tim.c **** /**
1983:../Library/STM32F10x_StdPeriph_Driver/src/stm32f10x_tim.c ****   * @brief  Enables or disables the TIM Capture Compare Channel xN.
1984:../Library/STM32F10x_StdPeriph_Driver/src/stm32f10x_tim.c ****   * @param  TIMx: where x can be 1, 8, 15, 16 or 17 to select the TIM peripheral.
1985:../Library/STM32F10x_StdPeriph_Driver/src/stm32f10x_tim.c ****   * @param  TIM_Channel: specifies the TIM Channel
1986:../Library/STM32F10x_StdPeriph_Driver/src/stm32f10x_tim.c ****   *   This parmeter can be one of the following values:
1987:../Library/STM32F10x_StdPeriph_Driver/src/stm32f10x_tim.c ****   *     @arg TIM_Channel_1: TIM Channel 1
1988:../Library/STM32F10x_StdPeriph_Driver/src/stm32f10x_tim.c ****   *     @arg TIM_Channel_2: TIM Channel 2
1989:../Library/STM32F10x_StdPeriph_Driver/src/stm32f10x_tim.c ****   *     @arg TIM_Channel_3: TIM Channel 3
1990:../Library/STM32F10x_StdPeriph_Driver/src/stm32f10x_tim.c ****   * @param  TIM_CCxN: specifies the TIM Channel CCxNE bit new state.
1991:../Library/STM32F10x_StdPeriph_Driver/src/stm32f10x_tim.c ****   *   This parameter can be: TIM_CCxN_Enable or TIM_CCxN_Disable. 
1992:../Library/STM32F10x_StdPeriph_Driver/src/stm32f10x_tim.c ****   * @retval None
1993:../Library/STM32F10x_StdPeriph_Driver/src/stm32f10x_tim.c ****   */
1994:../Library/STM32F10x_StdPeriph_Driver/src/stm32f10x_tim.c **** void TIM_CCxNCmd(TIM_TypeDef* TIMx, uint16_t TIM_Channel, uint16_t TIM_CCxN)
1995:../Library/STM32F10x_StdPeriph_Driver/src/stm32f10x_tim.c **** {
 20543              		.loc 1 1995 0
 20544              		.cfi_startproc
 20545              		@ args = 0, pretend = 0, frame = 0
 20546              		@ frame_needed = 0, uses_anonymous_args = 0
 20547              		@ link register save eliminated.
 20548              	.LVL303:
1996:../Library/STM32F10x_StdPeriph_Driver/src/stm32f10x_tim.c ****   uint16_t tmp = 0;
1997:../Library/STM32F10x_StdPeriph_Driver/src/stm32f10x_tim.c **** 
1998:../Library/STM32F10x_StdPeriph_Driver/src/stm32f10x_tim.c ****   /* Check the parameters */
1999:../Library/STM32F10x_StdPeriph_Driver/src/stm32f10x_tim.c ****   assert_param(IS_TIM_LIST2_PERIPH(TIMx));
2000:../Library/STM32F10x_StdPeriph_Driver/src/stm32f10x_tim.c ****   assert_param(IS_TIM_COMPLEMENTARY_CHANNEL(TIM_Channel));
2001:../Library/STM32F10x_StdPeriph_Driver/src/stm32f10x_tim.c ****   assert_param(IS_TIM_CCXN(TIM_CCxN));
2002:../Library/STM32F10x_StdPeriph_Driver/src/stm32f10x_tim.c **** 
2003:../Library/STM32F10x_StdPeriph_Driver/src/stm32f10x_tim.c ****   tmp = CCER_CCNE_Set << TIM_Channel;
2004:../Library/STM32F10x_StdPeriph_Driver/src/stm32f10x_tim.c **** 
2005:../Library/STM32F10x_StdPeriph_Driver/src/stm32f10x_tim.c ****   /* Reset the CCxNE Bit */
2006:../Library/STM32F10x_StdPeriph_Driver/src/stm32f10x_tim.c ****   TIMx->CCER &= (uint16_t) ~tmp;
 20549              		.loc 1 2006 0
 20550 0000 B0F820C0 		ldrh	ip, [r0, #32]
 20551 0004 1FFA8CFC 		uxth	ip, ip
 20552 0008 4FF00403 		mov	r3, #4
 20553 000c 03FA01F3 		lsl	r3, r3, r1
 20554 0010 2CEA0303 		bic	r3, ip, r3
 20555 0014 0384     		strh	r3, [r0, #32]	@ movhi
2007:../Library/STM32F10x_StdPeriph_Driver/src/stm32f10x_tim.c **** 
2008:../Library/STM32F10x_StdPeriph_Driver/src/stm32f10x_tim.c ****   /* Set or reset the CCxNE Bit */ 
2009:../Library/STM32F10x_StdPeriph_Driver/src/stm32f10x_tim.c ****   TIMx->CCER |=  (uint16_t)(TIM_CCxN << TIM_Channel);
 20556              		.loc 1 2009 0
 20557 0016 038C     		ldrh	r3, [r0, #32]
 20558 0018 02FA01F1 		lsl	r1, r2, r1
 20559              	.LVL304:
 20560 001c 41EA0303 		orr	r3, r1, r3
 20561 0020 9BB2     		uxth	r3, r3
 20562 0022 0384     		strh	r3, [r0, #32]	@ movhi
2010:../Library/STM32F10x_StdPeriph_Driver/src/stm32f10x_tim.c **** }
 20563              		.loc 1 2010 0
 20564 0024 7047     		bx	lr
 20565              		.cfi_endproc
 20566              	.LFE86:
 20568 0026 00BF     		.section	.text.TIM_SelectOCxM,"ax",%progbits
 20569              		.align	2
 20570              		.global	TIM_SelectOCxM
 20571              		.thumb
 20572              		.thumb_func
 20574              	TIM_SelectOCxM:
 20575              	.LFB87:
2011:../Library/STM32F10x_StdPeriph_Driver/src/stm32f10x_tim.c **** 
2012:../Library/STM32F10x_StdPeriph_Driver/src/stm32f10x_tim.c **** /**
2013:../Library/STM32F10x_StdPeriph_Driver/src/stm32f10x_tim.c ****   * @brief  Selects the TIM Ouput Compare Mode.
2014:../Library/STM32F10x_StdPeriph_Driver/src/stm32f10x_tim.c ****   * @note   This function disables the selected channel before changing the Ouput
2015:../Library/STM32F10x_StdPeriph_Driver/src/stm32f10x_tim.c ****   *         Compare Mode.
2016:../Library/STM32F10x_StdPeriph_Driver/src/stm32f10x_tim.c ****   *         User has to enable this channel using TIM_CCxCmd and TIM_CCxNCmd functions.
2017:../Library/STM32F10x_StdPeriph_Driver/src/stm32f10x_tim.c ****   * @param  TIMx: where x can be 1 to 17 except 6 and 7 to select the TIM peripheral.
2018:../Library/STM32F10x_StdPeriph_Driver/src/stm32f10x_tim.c ****   * @param  TIM_Channel: specifies the TIM Channel
2019:../Library/STM32F10x_StdPeriph_Driver/src/stm32f10x_tim.c ****   *   This parmeter can be one of the following values:
2020:../Library/STM32F10x_StdPeriph_Driver/src/stm32f10x_tim.c ****   *     @arg TIM_Channel_1: TIM Channel 1
2021:../Library/STM32F10x_StdPeriph_Driver/src/stm32f10x_tim.c ****   *     @arg TIM_Channel_2: TIM Channel 2
2022:../Library/STM32F10x_StdPeriph_Driver/src/stm32f10x_tim.c ****   *     @arg TIM_Channel_3: TIM Channel 3
2023:../Library/STM32F10x_StdPeriph_Driver/src/stm32f10x_tim.c ****   *     @arg TIM_Channel_4: TIM Channel 4
2024:../Library/STM32F10x_StdPeriph_Driver/src/stm32f10x_tim.c ****   * @param  TIM_OCMode: specifies the TIM Output Compare Mode.
2025:../Library/STM32F10x_StdPeriph_Driver/src/stm32f10x_tim.c ****   *   This paramter can be one of the following values:
2026:../Library/STM32F10x_StdPeriph_Driver/src/stm32f10x_tim.c ****   *     @arg TIM_OCMode_Timing
2027:../Library/STM32F10x_StdPeriph_Driver/src/stm32f10x_tim.c ****   *     @arg TIM_OCMode_Active
2028:../Library/STM32F10x_StdPeriph_Driver/src/stm32f10x_tim.c ****   *     @arg TIM_OCMode_Toggle
2029:../Library/STM32F10x_StdPeriph_Driver/src/stm32f10x_tim.c ****   *     @arg TIM_OCMode_PWM1
2030:../Library/STM32F10x_StdPeriph_Driver/src/stm32f10x_tim.c ****   *     @arg TIM_OCMode_PWM2
2031:../Library/STM32F10x_StdPeriph_Driver/src/stm32f10x_tim.c ****   *     @arg TIM_ForcedAction_Active
2032:../Library/STM32F10x_StdPeriph_Driver/src/stm32f10x_tim.c ****   *     @arg TIM_ForcedAction_InActive
2033:../Library/STM32F10x_StdPeriph_Driver/src/stm32f10x_tim.c ****   * @retval None
2034:../Library/STM32F10x_StdPeriph_Driver/src/stm32f10x_tim.c ****   */
2035:../Library/STM32F10x_StdPeriph_Driver/src/stm32f10x_tim.c **** void TIM_SelectOCxM(TIM_TypeDef* TIMx, uint16_t TIM_Channel, uint16_t TIM_OCMode)
2036:../Library/STM32F10x_StdPeriph_Driver/src/stm32f10x_tim.c **** {
 20576              		.loc 1 2036 0
 20577              		.cfi_startproc
 20578              		@ args = 0, pretend = 0, frame = 0
 20579              		@ frame_needed = 0, uses_anonymous_args = 0
 20580              		@ link register save eliminated.
 20581              	.LVL305:
 20582 0000 10B4     		push	{r4}
 20583              	.LCFI9:
 20584              		.cfi_def_cfa_offset 4
2037:../Library/STM32F10x_StdPeriph_Driver/src/stm32f10x_tim.c ****   uint32_t tmp = 0;
2038:../Library/STM32F10x_StdPeriph_Driver/src/stm32f10x_tim.c ****   uint16_t tmp1 = 0;
2039:../Library/STM32F10x_StdPeriph_Driver/src/stm32f10x_tim.c **** 
2040:../Library/STM32F10x_StdPeriph_Driver/src/stm32f10x_tim.c ****   /* Check the parameters */
2041:../Library/STM32F10x_StdPeriph_Driver/src/stm32f10x_tim.c ****   assert_param(IS_TIM_LIST8_PERIPH(TIMx));
2042:../Library/STM32F10x_StdPeriph_Driver/src/stm32f10x_tim.c ****   assert_param(IS_TIM_CHANNEL(TIM_Channel));
2043:../Library/STM32F10x_StdPeriph_Driver/src/stm32f10x_tim.c ****   assert_param(IS_TIM_OCM(TIM_OCMode));
2044:../Library/STM32F10x_StdPeriph_Driver/src/stm32f10x_tim.c **** 
2045:../Library/STM32F10x_StdPeriph_Driver/src/stm32f10x_tim.c ****   tmp = (uint32_t) TIMx;
2046:../Library/STM32F10x_StdPeriph_Driver/src/stm32f10x_tim.c ****   tmp += CCMR_Offset;
 20585              		.loc 1 2046 0
 20586 0002 00F11803 		add	r3, r0, #24
 20587              	.LVL306:
2047:../Library/STM32F10x_StdPeriph_Driver/src/stm32f10x_tim.c **** 
2048:../Library/STM32F10x_StdPeriph_Driver/src/stm32f10x_tim.c ****   tmp1 = CCER_CCE_Set << (uint16_t)TIM_Channel;
2049:../Library/STM32F10x_StdPeriph_Driver/src/stm32f10x_tim.c **** 
2050:../Library/STM32F10x_StdPeriph_Driver/src/stm32f10x_tim.c ****   /* Disable the Channel: Reset the CCxE Bit */
2051:../Library/STM32F10x_StdPeriph_Driver/src/stm32f10x_tim.c ****   TIMx->CCER &= (uint16_t) ~tmp1;
 20588              		.loc 1 2051 0
 20589 0006 048C     		ldrh	r4, [r0, #32]
 20590              		.cfi_offset 4, -4
 20591 0008 A4B2     		uxth	r4, r4
 20592 000a 4FF0010C 		mov	ip, #1
 20593 000e 0CFA01FC 		lsl	ip, ip, r1
 20594 0012 24EA0C0C 		bic	ip, r4, ip
 20595 0016 A0F820C0 		strh	ip, [r0, #32]	@ movhi
2052:../Library/STM32F10x_StdPeriph_Driver/src/stm32f10x_tim.c **** 
2053:../Library/STM32F10x_StdPeriph_Driver/src/stm32f10x_tim.c ****   if((TIM_Channel == TIM_Channel_1) ||(TIM_Channel == TIM_Channel_3))
 20596              		.loc 1 2053 0
 20597 001a 0829     		cmp	r1, #8
 20598 001c 14BF     		ite	ne
 20599 001e 0020     		movne	r0, #0
 20600 0020 0120     		moveq	r0, #1
 20601              	.LVL307:
 20602 0022 0029     		cmp	r1, #0
 20603 0024 08BF     		it	eq
 20604 0026 40F00100 		orreq	r0, r0, #1
 20605 002a 50B1     		cbz	r0, .L136
2054:../Library/STM32F10x_StdPeriph_Driver/src/stm32f10x_tim.c ****   {
2055:../Library/STM32F10x_StdPeriph_Driver/src/stm32f10x_tim.c ****     tmp += (TIM_Channel>>1);
2056:../Library/STM32F10x_StdPeriph_Driver/src/stm32f10x_tim.c **** 
2057:../Library/STM32F10x_StdPeriph_Driver/src/stm32f10x_tim.c ****     /* Reset the OCxM bits in the CCMRx register */
2058:../Library/STM32F10x_StdPeriph_Driver/src/stm32f10x_tim.c ****     *(__IO uint32_t *) tmp &= (uint32_t)~((uint32_t)TIM_CCMR1_OC1M);
 20606              		.loc 1 2058 0
 20607 002c 03EB5101 		add	r1, r3, r1, lsr #1
 20608              	.LVL308:
 20609 0030 0B68     		ldr	r3, [r1, #0]
 20610              	.LVL309:
 20611 0032 23F07003 		bic	r3, r3, #112
 20612 0036 0B60     		str	r3, [r1, #0]
2059:../Library/STM32F10x_StdPeriph_Driver/src/stm32f10x_tim.c ****    
2060:../Library/STM32F10x_StdPeriph_Driver/src/stm32f10x_tim.c ****     /* Configure the OCxM bits in the CCMRx register */
2061:../Library/STM32F10x_StdPeriph_Driver/src/stm32f10x_tim.c ****     *(__IO uint32_t *) tmp |= TIM_OCMode;
 20613              		.loc 1 2061 0
 20614 0038 0B68     		ldr	r3, [r1, #0]
 20615 003a 43EA0202 		orr	r2, r3, r2
 20616              	.LVL310:
 20617 003e 0A60     		str	r2, [r1, #0]
 20618 0040 0FE0     		b	.L138
 20619              	.LVL311:
 20620              	.L136:
2062:../Library/STM32F10x_StdPeriph_Driver/src/stm32f10x_tim.c ****   }
2063:../Library/STM32F10x_StdPeriph_Driver/src/stm32f10x_tim.c ****   else
2064:../Library/STM32F10x_StdPeriph_Driver/src/stm32f10x_tim.c ****   {
2065:../Library/STM32F10x_StdPeriph_Driver/src/stm32f10x_tim.c ****     tmp += (uint16_t)(TIM_Channel - (uint16_t)4)>> (uint16_t)1;
2066:../Library/STM32F10x_StdPeriph_Driver/src/stm32f10x_tim.c **** 
2067:../Library/STM32F10x_StdPeriph_Driver/src/stm32f10x_tim.c ****     /* Reset the OCxM bits in the CCMRx register */
2068:../Library/STM32F10x_StdPeriph_Driver/src/stm32f10x_tim.c ****     *(__IO uint32_t *) tmp &= (uint32_t)~((uint32_t)TIM_CCMR1_OC2M);
 20621              		.loc 1 2068 0
 20622 0042 A1F10401 		sub	r1, r1, #4
 20623              	.LVL312:
 20624 0046 C1F34E01 		ubfx	r1, r1, #1, #15
 20625 004a 1944     		add	r1, r1, r3
 20626 004c 0B68     		ldr	r3, [r1, #0]
 20627              	.LVL313:
 20628 004e 23F4E043 		bic	r3, r3, #28672
 20629 0052 0B60     		str	r3, [r1, #0]
2069:../Library/STM32F10x_StdPeriph_Driver/src/stm32f10x_tim.c ****     
2070:../Library/STM32F10x_StdPeriph_Driver/src/stm32f10x_tim.c ****     /* Configure the OCxM bits in the CCMRx register */
2071:../Library/STM32F10x_StdPeriph_Driver/src/stm32f10x_tim.c ****     *(__IO uint32_t *) tmp |= (uint16_t)(TIM_OCMode << 8);
 20630              		.loc 1 2071 0
 20631 0054 0B68     		ldr	r3, [r1, #0]
 20632 0056 4FEA0222 		lsl	r2, r2, #8
 20633              	.LVL314:
 20634 005a 92B2     		uxth	r2, r2
 20635 005c 43EA0202 		orr	r2, r3, r2
 20636 0060 0A60     		str	r2, [r1, #0]
 20637              	.L138:
2072:../Library/STM32F10x_StdPeriph_Driver/src/stm32f10x_tim.c ****   }
2073:../Library/STM32F10x_StdPeriph_Driver/src/stm32f10x_tim.c **** }
 20638              		.loc 1 2073 0
 20639 0062 10BC     		pop	{r4}
 20640 0064 7047     		bx	lr
 20641              		.cfi_endproc
 20642              	.LFE87:
 20644 0066 00BF     		.section	.text.TIM_UpdateDisableConfig,"ax",%progbits
 20645              		.align	2
 20646              		.global	TIM_UpdateDisableConfig
 20647              		.thumb
 20648              		.thumb_func
 20650              	TIM_UpdateDisableConfig:
 20651              	.LFB88:
2074:../Library/STM32F10x_StdPeriph_Driver/src/stm32f10x_tim.c **** 
2075:../Library/STM32F10x_StdPeriph_Driver/src/stm32f10x_tim.c **** /**
2076:../Library/STM32F10x_StdPeriph_Driver/src/stm32f10x_tim.c ****   * @brief  Enables or Disables the TIMx Update event.
2077:../Library/STM32F10x_StdPeriph_Driver/src/stm32f10x_tim.c ****   * @param  TIMx: where x can be 1 to 17 to select the TIM peripheral.
2078:../Library/STM32F10x_StdPeriph_Driver/src/stm32f10x_tim.c ****   * @param  NewState: new state of the TIMx UDIS bit
2079:../Library/STM32F10x_StdPeriph_Driver/src/stm32f10x_tim.c ****   *   This parameter can be: ENABLE or DISABLE.
2080:../Library/STM32F10x_StdPeriph_Driver/src/stm32f10x_tim.c ****   * @retval None
2081:../Library/STM32F10x_StdPeriph_Driver/src/stm32f10x_tim.c ****   */
2082:../Library/STM32F10x_StdPeriph_Driver/src/stm32f10x_tim.c **** void TIM_UpdateDisableConfig(TIM_TypeDef* TIMx, FunctionalState NewState)
2083:../Library/STM32F10x_StdPeriph_Driver/src/stm32f10x_tim.c **** {
 20652              		.loc 1 2083 0
 20653              		.cfi_startproc
 20654              		@ args = 0, pretend = 0, frame = 0
 20655              		@ frame_needed = 0, uses_anonymous_args = 0
 20656              		@ link register save eliminated.
 20657              	.LVL315:
2084:../Library/STM32F10x_StdPeriph_Driver/src/stm32f10x_tim.c ****   /* Check the parameters */
2085:../Library/STM32F10x_StdPeriph_Driver/src/stm32f10x_tim.c ****   assert_param(IS_TIM_ALL_PERIPH(TIMx));
2086:../Library/STM32F10x_StdPeriph_Driver/src/stm32f10x_tim.c ****   assert_param(IS_FUNCTIONAL_STATE(NewState));
2087:../Library/STM32F10x_StdPeriph_Driver/src/stm32f10x_tim.c ****   if (NewState != DISABLE)
 20658              		.loc 1 2087 0
 20659 0000 29B1     		cbz	r1, .L140
2088:../Library/STM32F10x_StdPeriph_Driver/src/stm32f10x_tim.c ****   {
2089:../Library/STM32F10x_StdPeriph_Driver/src/stm32f10x_tim.c ****     /* Set the Update Disable Bit */
2090:../Library/STM32F10x_StdPeriph_Driver/src/stm32f10x_tim.c ****     TIMx->CR1 |= TIM_CR1_UDIS;
 20660              		.loc 1 2090 0
 20661 0002 0388     		ldrh	r3, [r0, #0]
 20662 0004 9BB2     		uxth	r3, r3
 20663 0006 43F00203 		orr	r3, r3, #2
 20664 000a 0380     		strh	r3, [r0, #0]	@ movhi
 20665 000c 7047     		bx	lr
 20666              	.L140:
2091:../Library/STM32F10x_StdPeriph_Driver/src/stm32f10x_tim.c ****   }
2092:../Library/STM32F10x_StdPeriph_Driver/src/stm32f10x_tim.c ****   else
2093:../Library/STM32F10x_StdPeriph_Driver/src/stm32f10x_tim.c ****   {
2094:../Library/STM32F10x_StdPeriph_Driver/src/stm32f10x_tim.c ****     /* Reset the Update Disable Bit */
2095:../Library/STM32F10x_StdPeriph_Driver/src/stm32f10x_tim.c ****     TIMx->CR1 &= (uint16_t)~((uint16_t)TIM_CR1_UDIS);
 20667              		.loc 1 2095 0
 20668 000e 0388     		ldrh	r3, [r0, #0]
 20669 0010 23F00203 		bic	r3, r3, #2
 20670 0014 4FEA0343 		lsl	r3, r3, #16
 20671 0018 4FEA1343 		lsr	r3, r3, #16
 20672 001c 0380     		strh	r3, [r0, #0]	@ movhi
 20673 001e 7047     		bx	lr
 20674              		.cfi_endproc
 20675              	.LFE88:
 20677              		.section	.text.TIM_UpdateRequestConfig,"ax",%progbits
 20678              		.align	2
 20679              		.global	TIM_UpdateRequestConfig
 20680              		.thumb
 20681              		.thumb_func
 20683              	TIM_UpdateRequestConfig:
 20684              	.LFB89:
2096:../Library/STM32F10x_StdPeriph_Driver/src/stm32f10x_tim.c ****   }
2097:../Library/STM32F10x_StdPeriph_Driver/src/stm32f10x_tim.c **** }
2098:../Library/STM32F10x_StdPeriph_Driver/src/stm32f10x_tim.c **** 
2099:../Library/STM32F10x_StdPeriph_Driver/src/stm32f10x_tim.c **** /**
2100:../Library/STM32F10x_StdPeriph_Driver/src/stm32f10x_tim.c ****   * @brief  Configures the TIMx Update Request Interrupt source.
2101:../Library/STM32F10x_StdPeriph_Driver/src/stm32f10x_tim.c ****   * @param  TIMx: where x can be 1 to 17 to select the TIM peripheral.
2102:../Library/STM32F10x_StdPeriph_Driver/src/stm32f10x_tim.c ****   * @param  TIM_UpdateSource: specifies the Update source.
2103:../Library/STM32F10x_StdPeriph_Driver/src/stm32f10x_tim.c ****   *   This parameter can be one of the following values:
2104:../Library/STM32F10x_StdPeriph_Driver/src/stm32f10x_tim.c ****   *     @arg TIM_UpdateSource_Regular: Source of update is the counter overflow/underflow
2105:../Library/STM32F10x_StdPeriph_Driver/src/stm32f10x_tim.c ****                                        or the setting of UG bit, or an update generation
2106:../Library/STM32F10x_StdPeriph_Driver/src/stm32f10x_tim.c ****                                        through the slave mode controller.
2107:../Library/STM32F10x_StdPeriph_Driver/src/stm32f10x_tim.c ****   *     @arg TIM_UpdateSource_Global: Source of update is counter overflow/underflow.
2108:../Library/STM32F10x_StdPeriph_Driver/src/stm32f10x_tim.c ****   * @retval None
2109:../Library/STM32F10x_StdPeriph_Driver/src/stm32f10x_tim.c ****   */
2110:../Library/STM32F10x_StdPeriph_Driver/src/stm32f10x_tim.c **** void TIM_UpdateRequestConfig(TIM_TypeDef* TIMx, uint16_t TIM_UpdateSource)
2111:../Library/STM32F10x_StdPeriph_Driver/src/stm32f10x_tim.c **** {
 20685              		.loc 1 2111 0
 20686              		.cfi_startproc
 20687              		@ args = 0, pretend = 0, frame = 0
 20688              		@ frame_needed = 0, uses_anonymous_args = 0
 20689              		@ link register save eliminated.
 20690              	.LVL316:
2112:../Library/STM32F10x_StdPeriph_Driver/src/stm32f10x_tim.c ****   /* Check the parameters */
2113:../Library/STM32F10x_StdPeriph_Driver/src/stm32f10x_tim.c ****   assert_param(IS_TIM_ALL_PERIPH(TIMx));
2114:../Library/STM32F10x_StdPeriph_Driver/src/stm32f10x_tim.c ****   assert_param(IS_TIM_UPDATE_SOURCE(TIM_UpdateSource));
2115:../Library/STM32F10x_StdPeriph_Driver/src/stm32f10x_tim.c ****   if (TIM_UpdateSource != TIM_UpdateSource_Global)
 20691              		.loc 1 2115 0
 20692 0000 29B1     		cbz	r1, .L144
2116:../Library/STM32F10x_StdPeriph_Driver/src/stm32f10x_tim.c ****   {
2117:../Library/STM32F10x_StdPeriph_Driver/src/stm32f10x_tim.c ****     /* Set the URS Bit */
2118:../Library/STM32F10x_StdPeriph_Driver/src/stm32f10x_tim.c ****     TIMx->CR1 |= TIM_CR1_URS;
 20693              		.loc 1 2118 0
 20694 0002 0388     		ldrh	r3, [r0, #0]
 20695 0004 9BB2     		uxth	r3, r3
 20696 0006 43F00403 		orr	r3, r3, #4
 20697 000a 0380     		strh	r3, [r0, #0]	@ movhi
 20698 000c 7047     		bx	lr
 20699              	.L144:
2119:../Library/STM32F10x_StdPeriph_Driver/src/stm32f10x_tim.c ****   }
2120:../Library/STM32F10x_StdPeriph_Driver/src/stm32f10x_tim.c ****   else
2121:../Library/STM32F10x_StdPeriph_Driver/src/stm32f10x_tim.c ****   {
2122:../Library/STM32F10x_StdPeriph_Driver/src/stm32f10x_tim.c ****     /* Reset the URS Bit */
2123:../Library/STM32F10x_StdPeriph_Driver/src/stm32f10x_tim.c ****     TIMx->CR1 &= (uint16_t)~((uint16_t)TIM_CR1_URS);
 20700              		.loc 1 2123 0
 20701 000e 0388     		ldrh	r3, [r0, #0]
 20702 0010 23F00403 		bic	r3, r3, #4
 20703 0014 4FEA0343 		lsl	r3, r3, #16
 20704 0018 4FEA1343 		lsr	r3, r3, #16
 20705 001c 0380     		strh	r3, [r0, #0]	@ movhi
 20706 001e 7047     		bx	lr
 20707              		.cfi_endproc
 20708              	.LFE89:
 20710              		.section	.text.TIM_SelectHallSensor,"ax",%progbits
 20711              		.align	2
 20712              		.global	TIM_SelectHallSensor
 20713              		.thumb
 20714              		.thumb_func
 20716              	TIM_SelectHallSensor:
 20717              	.LFB90:
2124:../Library/STM32F10x_StdPeriph_Driver/src/stm32f10x_tim.c ****   }
2125:../Library/STM32F10x_StdPeriph_Driver/src/stm32f10x_tim.c **** }
2126:../Library/STM32F10x_StdPeriph_Driver/src/stm32f10x_tim.c **** 
2127:../Library/STM32F10x_StdPeriph_Driver/src/stm32f10x_tim.c **** /**
2128:../Library/STM32F10x_StdPeriph_Driver/src/stm32f10x_tim.c ****   * @brief  Enables or disables the TIMxs Hall sensor interface.
2129:../Library/STM32F10x_StdPeriph_Driver/src/stm32f10x_tim.c ****   * @param  TIMx: where x can be 1, 2, 3, 4, 5 or 8 to select the TIM peripheral.
2130:../Library/STM32F10x_StdPeriph_Driver/src/stm32f10x_tim.c ****   * @param  NewState: new state of the TIMx Hall sensor interface.
2131:../Library/STM32F10x_StdPeriph_Driver/src/stm32f10x_tim.c ****   *   This parameter can be: ENABLE or DISABLE.
2132:../Library/STM32F10x_StdPeriph_Driver/src/stm32f10x_tim.c ****   * @retval None
2133:../Library/STM32F10x_StdPeriph_Driver/src/stm32f10x_tim.c ****   */
2134:../Library/STM32F10x_StdPeriph_Driver/src/stm32f10x_tim.c **** void TIM_SelectHallSensor(TIM_TypeDef* TIMx, FunctionalState NewState)
2135:../Library/STM32F10x_StdPeriph_Driver/src/stm32f10x_tim.c **** {
 20718              		.loc 1 2135 0
 20719              		.cfi_startproc
 20720              		@ args = 0, pretend = 0, frame = 0
 20721              		@ frame_needed = 0, uses_anonymous_args = 0
 20722              		@ link register save eliminated.
 20723              	.LVL317:
2136:../Library/STM32F10x_StdPeriph_Driver/src/stm32f10x_tim.c ****   /* Check the parameters */
2137:../Library/STM32F10x_StdPeriph_Driver/src/stm32f10x_tim.c ****   assert_param(IS_TIM_LIST6_PERIPH(TIMx));
2138:../Library/STM32F10x_StdPeriph_Driver/src/stm32f10x_tim.c ****   assert_param(IS_FUNCTIONAL_STATE(NewState));
2139:../Library/STM32F10x_StdPeriph_Driver/src/stm32f10x_tim.c ****   if (NewState != DISABLE)
 20724              		.loc 1 2139 0
 20725 0000 29B1     		cbz	r1, .L148
2140:../Library/STM32F10x_StdPeriph_Driver/src/stm32f10x_tim.c ****   {
2141:../Library/STM32F10x_StdPeriph_Driver/src/stm32f10x_tim.c ****     /* Set the TI1S Bit */
2142:../Library/STM32F10x_StdPeriph_Driver/src/stm32f10x_tim.c ****     TIMx->CR2 |= TIM_CR2_TI1S;
 20726              		.loc 1 2142 0
 20727 0002 8388     		ldrh	r3, [r0, #4]
 20728 0004 9BB2     		uxth	r3, r3
 20729 0006 43F08003 		orr	r3, r3, #128
 20730 000a 8380     		strh	r3, [r0, #4]	@ movhi
 20731 000c 7047     		bx	lr
 20732              	.L148:
2143:../Library/STM32F10x_StdPeriph_Driver/src/stm32f10x_tim.c ****   }
2144:../Library/STM32F10x_StdPeriph_Driver/src/stm32f10x_tim.c ****   else
2145:../Library/STM32F10x_StdPeriph_Driver/src/stm32f10x_tim.c ****   {
2146:../Library/STM32F10x_StdPeriph_Driver/src/stm32f10x_tim.c ****     /* Reset the TI1S Bit */
2147:../Library/STM32F10x_StdPeriph_Driver/src/stm32f10x_tim.c ****     TIMx->CR2 &= (uint16_t)~((uint16_t)TIM_CR2_TI1S);
 20733              		.loc 1 2147 0
 20734 000e 8388     		ldrh	r3, [r0, #4]
 20735 0010 23F08003 		bic	r3, r3, #128
 20736 0014 4FEA0343 		lsl	r3, r3, #16
 20737 0018 4FEA1343 		lsr	r3, r3, #16
 20738 001c 8380     		strh	r3, [r0, #4]	@ movhi
 20739 001e 7047     		bx	lr
 20740              		.cfi_endproc
 20741              	.LFE90:
 20743              		.section	.text.TIM_SelectOnePulseMode,"ax",%progbits
 20744              		.align	2
 20745              		.global	TIM_SelectOnePulseMode
 20746              		.thumb
 20747              		.thumb_func
 20749              	TIM_SelectOnePulseMode:
 20750              	.LFB91:
2148:../Library/STM32F10x_StdPeriph_Driver/src/stm32f10x_tim.c ****   }
2149:../Library/STM32F10x_StdPeriph_Driver/src/stm32f10x_tim.c **** }
2150:../Library/STM32F10x_StdPeriph_Driver/src/stm32f10x_tim.c **** 
2151:../Library/STM32F10x_StdPeriph_Driver/src/stm32f10x_tim.c **** /**
2152:../Library/STM32F10x_StdPeriph_Driver/src/stm32f10x_tim.c ****   * @brief  Selects the TIMxs One Pulse Mode.
2153:../Library/STM32F10x_StdPeriph_Driver/src/stm32f10x_tim.c ****   * @param  TIMx: where x can be 1 to 17 to select the TIM peripheral.
2154:../Library/STM32F10x_StdPeriph_Driver/src/stm32f10x_tim.c ****   * @param  TIM_OPMode: specifies the OPM Mode to be used.
2155:../Library/STM32F10x_StdPeriph_Driver/src/stm32f10x_tim.c ****   *   This parameter can be one of the following values:
2156:../Library/STM32F10x_StdPeriph_Driver/src/stm32f10x_tim.c ****   *     @arg TIM_OPMode_Single
2157:../Library/STM32F10x_StdPeriph_Driver/src/stm32f10x_tim.c ****   *     @arg TIM_OPMode_Repetitive
2158:../Library/STM32F10x_StdPeriph_Driver/src/stm32f10x_tim.c ****   * @retval None
2159:../Library/STM32F10x_StdPeriph_Driver/src/stm32f10x_tim.c ****   */
2160:../Library/STM32F10x_StdPeriph_Driver/src/stm32f10x_tim.c **** void TIM_SelectOnePulseMode(TIM_TypeDef* TIMx, uint16_t TIM_OPMode)
2161:../Library/STM32F10x_StdPeriph_Driver/src/stm32f10x_tim.c **** {
 20751              		.loc 1 2161 0
 20752              		.cfi_startproc
 20753              		@ args = 0, pretend = 0, frame = 0
 20754              		@ frame_needed = 0, uses_anonymous_args = 0
 20755              		@ link register save eliminated.
 20756              	.LVL318:
2162:../Library/STM32F10x_StdPeriph_Driver/src/stm32f10x_tim.c ****   /* Check the parameters */
2163:../Library/STM32F10x_StdPeriph_Driver/src/stm32f10x_tim.c ****   assert_param(IS_TIM_ALL_PERIPH(TIMx));
2164:../Library/STM32F10x_StdPeriph_Driver/src/stm32f10x_tim.c ****   assert_param(IS_TIM_OPM_MODE(TIM_OPMode));
2165:../Library/STM32F10x_StdPeriph_Driver/src/stm32f10x_tim.c ****   /* Reset the OPM Bit */
2166:../Library/STM32F10x_StdPeriph_Driver/src/stm32f10x_tim.c ****   TIMx->CR1 &= (uint16_t)~((uint16_t)TIM_CR1_OPM);
 20757              		.loc 1 2166 0
 20758 0000 0388     		ldrh	r3, [r0, #0]
 20759 0002 23F00803 		bic	r3, r3, #8
 20760 0006 4FEA0343 		lsl	r3, r3, #16
 20761 000a 4FEA1343 		lsr	r3, r3, #16
 20762 000e 0380     		strh	r3, [r0, #0]	@ movhi
2167:../Library/STM32F10x_StdPeriph_Driver/src/stm32f10x_tim.c ****   /* Configure the OPM Mode */
2168:../Library/STM32F10x_StdPeriph_Driver/src/stm32f10x_tim.c ****   TIMx->CR1 |= TIM_OPMode;
 20763              		.loc 1 2168 0
 20764 0010 0388     		ldrh	r3, [r0, #0]
 20765 0012 9BB2     		uxth	r3, r3
 20766 0014 41EA0303 		orr	r3, r1, r3
 20767 0018 0380     		strh	r3, [r0, #0]	@ movhi
2169:../Library/STM32F10x_StdPeriph_Driver/src/stm32f10x_tim.c **** }
 20768              		.loc 1 2169 0
 20769 001a 7047     		bx	lr
 20770              		.cfi_endproc
 20771              	.LFE91:
 20773              		.section	.text.TIM_SelectOutputTrigger,"ax",%progbits
 20774              		.align	2
 20775              		.global	TIM_SelectOutputTrigger
 20776              		.thumb
 20777              		.thumb_func
 20779              	TIM_SelectOutputTrigger:
 20780              	.LFB92:
2170:../Library/STM32F10x_StdPeriph_Driver/src/stm32f10x_tim.c **** 
2171:../Library/STM32F10x_StdPeriph_Driver/src/stm32f10x_tim.c **** /**
2172:../Library/STM32F10x_StdPeriph_Driver/src/stm32f10x_tim.c ****   * @brief  Selects the TIMx Trigger Output Mode.
2173:../Library/STM32F10x_StdPeriph_Driver/src/stm32f10x_tim.c ****   * @param  TIMx: where x can be 1, 2, 3, 4, 5, 6, 7, 8, 9, 12 or 15 to select the TIM peripheral.
2174:../Library/STM32F10x_StdPeriph_Driver/src/stm32f10x_tim.c ****   * @param  TIM_TRGOSource: specifies the Trigger Output source.
2175:../Library/STM32F10x_StdPeriph_Driver/src/stm32f10x_tim.c ****   *   This paramter can be one of the following values:
2176:../Library/STM32F10x_StdPeriph_Driver/src/stm32f10x_tim.c ****   *
2177:../Library/STM32F10x_StdPeriph_Driver/src/stm32f10x_tim.c ****   *  - For all TIMx
2178:../Library/STM32F10x_StdPeriph_Driver/src/stm32f10x_tim.c ****   *     @arg TIM_TRGOSource_Reset:  The UG bit in the TIM_EGR register is used as the trigger outpu
2179:../Library/STM32F10x_StdPeriph_Driver/src/stm32f10x_tim.c ****   *     @arg TIM_TRGOSource_Enable: The Counter Enable CEN is used as the trigger output (TRGO).
2180:../Library/STM32F10x_StdPeriph_Driver/src/stm32f10x_tim.c ****   *     @arg TIM_TRGOSource_Update: The update event is selected as the trigger output (TRGO).
2181:../Library/STM32F10x_StdPeriph_Driver/src/stm32f10x_tim.c ****   *
2182:../Library/STM32F10x_StdPeriph_Driver/src/stm32f10x_tim.c ****   *  - For all TIMx except TIM6 and TIM7
2183:../Library/STM32F10x_StdPeriph_Driver/src/stm32f10x_tim.c ****   *     @arg TIM_TRGOSource_OC1: The trigger output sends a positive pulse when the CC1IF flag
2184:../Library/STM32F10x_StdPeriph_Driver/src/stm32f10x_tim.c ****   *                              is to be set, as soon as a capture or compare match occurs (TRGO).
2185:../Library/STM32F10x_StdPeriph_Driver/src/stm32f10x_tim.c ****   *     @arg TIM_TRGOSource_OC1Ref: OC1REF signal is used as the trigger output (TRGO).
2186:../Library/STM32F10x_StdPeriph_Driver/src/stm32f10x_tim.c ****   *     @arg TIM_TRGOSource_OC2Ref: OC2REF signal is used as the trigger output (TRGO).
2187:../Library/STM32F10x_StdPeriph_Driver/src/stm32f10x_tim.c ****   *     @arg TIM_TRGOSource_OC3Ref: OC3REF signal is used as the trigger output (TRGO).
2188:../Library/STM32F10x_StdPeriph_Driver/src/stm32f10x_tim.c ****   *     @arg TIM_TRGOSource_OC4Ref: OC4REF signal is used as the trigger output (TRGO).
2189:../Library/STM32F10x_StdPeriph_Driver/src/stm32f10x_tim.c ****   *
2190:../Library/STM32F10x_StdPeriph_Driver/src/stm32f10x_tim.c ****   * @retval None
2191:../Library/STM32F10x_StdPeriph_Driver/src/stm32f10x_tim.c ****   */
2192:../Library/STM32F10x_StdPeriph_Driver/src/stm32f10x_tim.c **** void TIM_SelectOutputTrigger(TIM_TypeDef* TIMx, uint16_t TIM_TRGOSource)
2193:../Library/STM32F10x_StdPeriph_Driver/src/stm32f10x_tim.c **** {
 20781              		.loc 1 2193 0
 20782              		.cfi_startproc
 20783              		@ args = 0, pretend = 0, frame = 0
 20784              		@ frame_needed = 0, uses_anonymous_args = 0
 20785              		@ link register save eliminated.
 20786              	.LVL319:
2194:../Library/STM32F10x_StdPeriph_Driver/src/stm32f10x_tim.c ****   /* Check the parameters */
2195:../Library/STM32F10x_StdPeriph_Driver/src/stm32f10x_tim.c ****   assert_param(IS_TIM_LIST7_PERIPH(TIMx));
2196:../Library/STM32F10x_StdPeriph_Driver/src/stm32f10x_tim.c ****   assert_param(IS_TIM_TRGO_SOURCE(TIM_TRGOSource));
2197:../Library/STM32F10x_StdPeriph_Driver/src/stm32f10x_tim.c ****   /* Reset the MMS Bits */
2198:../Library/STM32F10x_StdPeriph_Driver/src/stm32f10x_tim.c ****   TIMx->CR2 &= (uint16_t)~((uint16_t)TIM_CR2_MMS);
 20787              		.loc 1 2198 0
 20788 0000 8388     		ldrh	r3, [r0, #4]
 20789 0002 23F07003 		bic	r3, r3, #112
 20790 0006 4FEA0343 		lsl	r3, r3, #16
 20791 000a 4FEA1343 		lsr	r3, r3, #16
 20792 000e 8380     		strh	r3, [r0, #4]	@ movhi
2199:../Library/STM32F10x_StdPeriph_Driver/src/stm32f10x_tim.c ****   /* Select the TRGO source */
2200:../Library/STM32F10x_StdPeriph_Driver/src/stm32f10x_tim.c ****   TIMx->CR2 |=  TIM_TRGOSource;
 20793              		.loc 1 2200 0
 20794 0010 8388     		ldrh	r3, [r0, #4]
 20795 0012 9BB2     		uxth	r3, r3
 20796 0014 41EA0303 		orr	r3, r1, r3
 20797 0018 8380     		strh	r3, [r0, #4]	@ movhi
2201:../Library/STM32F10x_StdPeriph_Driver/src/stm32f10x_tim.c **** }
 20798              		.loc 1 2201 0
 20799 001a 7047     		bx	lr
 20800              		.cfi_endproc
 20801              	.LFE92:
 20803              		.section	.text.TIM_SelectSlaveMode,"ax",%progbits
 20804              		.align	2
 20805              		.global	TIM_SelectSlaveMode
 20806              		.thumb
 20807              		.thumb_func
 20809              	TIM_SelectSlaveMode:
 20810              	.LFB93:
2202:../Library/STM32F10x_StdPeriph_Driver/src/stm32f10x_tim.c **** 
2203:../Library/STM32F10x_StdPeriph_Driver/src/stm32f10x_tim.c **** /**
2204:../Library/STM32F10x_StdPeriph_Driver/src/stm32f10x_tim.c ****   * @brief  Selects the TIMx Slave Mode.
2205:../Library/STM32F10x_StdPeriph_Driver/src/stm32f10x_tim.c ****   * @param  TIMx: where x can be 1, 2, 3, 4, 5, 8, 9, 12 or 15 to select the TIM peripheral.
2206:../Library/STM32F10x_StdPeriph_Driver/src/stm32f10x_tim.c ****   * @param  TIM_SlaveMode: specifies the Timer Slave Mode.
2207:../Library/STM32F10x_StdPeriph_Driver/src/stm32f10x_tim.c ****   *   This paramter can be one of the following values:
2208:../Library/STM32F10x_StdPeriph_Driver/src/stm32f10x_tim.c ****   *     @arg TIM_SlaveMode_Reset: Rising edge of the selected trigger signal (TRGI) re-initializes
2209:../Library/STM32F10x_StdPeriph_Driver/src/stm32f10x_tim.c ****   *                               the counter and triggers an update of the registers.
2210:../Library/STM32F10x_StdPeriph_Driver/src/stm32f10x_tim.c ****   *     @arg TIM_SlaveMode_Gated:     The counter clock is enabled when the trigger signal (TRGI) i
2211:../Library/STM32F10x_StdPeriph_Driver/src/stm32f10x_tim.c ****   *     @arg TIM_SlaveMode_Trigger:   The counter starts at a rising edge of the trigger TRGI.
2212:../Library/STM32F10x_StdPeriph_Driver/src/stm32f10x_tim.c ****   *     @arg TIM_SlaveMode_External1: Rising edges of the selected trigger (TRGI) clock the counter
2213:../Library/STM32F10x_StdPeriph_Driver/src/stm32f10x_tim.c ****   * @retval None
2214:../Library/STM32F10x_StdPeriph_Driver/src/stm32f10x_tim.c ****   */
2215:../Library/STM32F10x_StdPeriph_Driver/src/stm32f10x_tim.c **** void TIM_SelectSlaveMode(TIM_TypeDef* TIMx, uint16_t TIM_SlaveMode)
2216:../Library/STM32F10x_StdPeriph_Driver/src/stm32f10x_tim.c **** {
 20811              		.loc 1 2216 0
 20812              		.cfi_startproc
 20813              		@ args = 0, pretend = 0, frame = 0
 20814              		@ frame_needed = 0, uses_anonymous_args = 0
 20815              		@ link register save eliminated.
 20816              	.LVL320:
2217:../Library/STM32F10x_StdPeriph_Driver/src/stm32f10x_tim.c ****   /* Check the parameters */
2218:../Library/STM32F10x_StdPeriph_Driver/src/stm32f10x_tim.c ****   assert_param(IS_TIM_LIST6_PERIPH(TIMx));
2219:../Library/STM32F10x_StdPeriph_Driver/src/stm32f10x_tim.c ****   assert_param(IS_TIM_SLAVE_MODE(TIM_SlaveMode));
2220:../Library/STM32F10x_StdPeriph_Driver/src/stm32f10x_tim.c ****  /* Reset the SMS Bits */
2221:../Library/STM32F10x_StdPeriph_Driver/src/stm32f10x_tim.c ****   TIMx->SMCR &= (uint16_t)~((uint16_t)TIM_SMCR_SMS);
 20817              		.loc 1 2221 0
 20818 0000 0389     		ldrh	r3, [r0, #8]
 20819 0002 23F00703 		bic	r3, r3, #7
 20820 0006 4FEA0343 		lsl	r3, r3, #16
 20821 000a 4FEA1343 		lsr	r3, r3, #16
 20822 000e 0381     		strh	r3, [r0, #8]	@ movhi
2222:../Library/STM32F10x_StdPeriph_Driver/src/stm32f10x_tim.c ****   /* Select the Slave Mode */
2223:../Library/STM32F10x_StdPeriph_Driver/src/stm32f10x_tim.c ****   TIMx->SMCR |= TIM_SlaveMode;
 20823              		.loc 1 2223 0
 20824 0010 0389     		ldrh	r3, [r0, #8]
 20825 0012 9BB2     		uxth	r3, r3
 20826 0014 41EA0303 		orr	r3, r1, r3
 20827 0018 0381     		strh	r3, [r0, #8]	@ movhi
2224:../Library/STM32F10x_StdPeriph_Driver/src/stm32f10x_tim.c **** }
 20828              		.loc 1 2224 0
 20829 001a 7047     		bx	lr
 20830              		.cfi_endproc
 20831              	.LFE93:
 20833              		.section	.text.TIM_SelectMasterSlaveMode,"ax",%progbits
 20834              		.align	2
 20835              		.global	TIM_SelectMasterSlaveMode
 20836              		.thumb
 20837              		.thumb_func
 20839              	TIM_SelectMasterSlaveMode:
 20840              	.LFB94:
2225:../Library/STM32F10x_StdPeriph_Driver/src/stm32f10x_tim.c **** 
2226:../Library/STM32F10x_StdPeriph_Driver/src/stm32f10x_tim.c **** /**
2227:../Library/STM32F10x_StdPeriph_Driver/src/stm32f10x_tim.c ****   * @brief  Sets or Resets the TIMx Master/Slave Mode.
2228:../Library/STM32F10x_StdPeriph_Driver/src/stm32f10x_tim.c ****   * @param  TIMx: where x can be 1, 2, 3, 4, 5, 8, 9, 12 or 15 to select the TIM peripheral.
2229:../Library/STM32F10x_StdPeriph_Driver/src/stm32f10x_tim.c ****   * @param  TIM_MasterSlaveMode: specifies the Timer Master Slave Mode.
2230:../Library/STM32F10x_StdPeriph_Driver/src/stm32f10x_tim.c ****   *   This paramter can be one of the following values:
2231:../Library/STM32F10x_StdPeriph_Driver/src/stm32f10x_tim.c ****   *     @arg TIM_MasterSlaveMode_Enable: synchronization between the current timer
2232:../Library/STM32F10x_StdPeriph_Driver/src/stm32f10x_tim.c ****   *                                      and its slaves (through TRGO).
2233:../Library/STM32F10x_StdPeriph_Driver/src/stm32f10x_tim.c ****   *     @arg TIM_MasterSlaveMode_Disable: No action
2234:../Library/STM32F10x_StdPeriph_Driver/src/stm32f10x_tim.c ****   * @retval None
2235:../Library/STM32F10x_StdPeriph_Driver/src/stm32f10x_tim.c ****   */
2236:../Library/STM32F10x_StdPeriph_Driver/src/stm32f10x_tim.c **** void TIM_SelectMasterSlaveMode(TIM_TypeDef* TIMx, uint16_t TIM_MasterSlaveMode)
2237:../Library/STM32F10x_StdPeriph_Driver/src/stm32f10x_tim.c **** {
 20841              		.loc 1 2237 0
 20842              		.cfi_startproc
 20843              		@ args = 0, pretend = 0, frame = 0
 20844              		@ frame_needed = 0, uses_anonymous_args = 0
 20845              		@ link register save eliminated.
 20846              	.LVL321:
2238:../Library/STM32F10x_StdPeriph_Driver/src/stm32f10x_tim.c ****   /* Check the parameters */
2239:../Library/STM32F10x_StdPeriph_Driver/src/stm32f10x_tim.c ****   assert_param(IS_TIM_LIST6_PERIPH(TIMx));
2240:../Library/STM32F10x_StdPeriph_Driver/src/stm32f10x_tim.c ****   assert_param(IS_TIM_MSM_STATE(TIM_MasterSlaveMode));
2241:../Library/STM32F10x_StdPeriph_Driver/src/stm32f10x_tim.c ****   /* Reset the MSM Bit */
2242:../Library/STM32F10x_StdPeriph_Driver/src/stm32f10x_tim.c ****   TIMx->SMCR &= (uint16_t)~((uint16_t)TIM_SMCR_MSM);
 20847              		.loc 1 2242 0
 20848 0000 0389     		ldrh	r3, [r0, #8]
 20849 0002 23F08003 		bic	r3, r3, #128
 20850 0006 4FEA0343 		lsl	r3, r3, #16
 20851 000a 4FEA1343 		lsr	r3, r3, #16
 20852 000e 0381     		strh	r3, [r0, #8]	@ movhi
2243:../Library/STM32F10x_StdPeriph_Driver/src/stm32f10x_tim.c ****   
2244:../Library/STM32F10x_StdPeriph_Driver/src/stm32f10x_tim.c ****   /* Set or Reset the MSM Bit */
2245:../Library/STM32F10x_StdPeriph_Driver/src/stm32f10x_tim.c ****   TIMx->SMCR |= TIM_MasterSlaveMode;
 20853              		.loc 1 2245 0
 20854 0010 0389     		ldrh	r3, [r0, #8]
 20855 0012 9BB2     		uxth	r3, r3
 20856 0014 41EA0303 		orr	r3, r1, r3
 20857 0018 0381     		strh	r3, [r0, #8]	@ movhi
2246:../Library/STM32F10x_StdPeriph_Driver/src/stm32f10x_tim.c **** }
 20858              		.loc 1 2246 0
 20859 001a 7047     		bx	lr
 20860              		.cfi_endproc
 20861              	.LFE94:
 20863              		.section	.text.TIM_SetCounter,"ax",%progbits
 20864              		.align	2
 20865              		.global	TIM_SetCounter
 20866              		.thumb
 20867              		.thumb_func
 20869              	TIM_SetCounter:
 20870              	.LFB95:
2247:../Library/STM32F10x_StdPeriph_Driver/src/stm32f10x_tim.c **** 
2248:../Library/STM32F10x_StdPeriph_Driver/src/stm32f10x_tim.c **** /**
2249:../Library/STM32F10x_StdPeriph_Driver/src/stm32f10x_tim.c ****   * @brief  Sets the TIMx Counter Register value
2250:../Library/STM32F10x_StdPeriph_Driver/src/stm32f10x_tim.c ****   * @param  TIMx: where x can be 1 to 17 to select the TIM peripheral.
2251:../Library/STM32F10x_StdPeriph_Driver/src/stm32f10x_tim.c ****   * @param  Counter: specifies the Counter register new value.
2252:../Library/STM32F10x_StdPeriph_Driver/src/stm32f10x_tim.c ****   * @retval None
2253:../Library/STM32F10x_StdPeriph_Driver/src/stm32f10x_tim.c ****   */
2254:../Library/STM32F10x_StdPeriph_Driver/src/stm32f10x_tim.c **** void TIM_SetCounter(TIM_TypeDef* TIMx, uint16_t Counter)
2255:../Library/STM32F10x_StdPeriph_Driver/src/stm32f10x_tim.c **** {
 20871              		.loc 1 2255 0
 20872              		.cfi_startproc
 20873              		@ args = 0, pretend = 0, frame = 0
 20874              		@ frame_needed = 0, uses_anonymous_args = 0
 20875              		@ link register save eliminated.
 20876              	.LVL322:
2256:../Library/STM32F10x_StdPeriph_Driver/src/stm32f10x_tim.c ****   /* Check the parameters */
2257:../Library/STM32F10x_StdPeriph_Driver/src/stm32f10x_tim.c ****   assert_param(IS_TIM_ALL_PERIPH(TIMx));
2258:../Library/STM32F10x_StdPeriph_Driver/src/stm32f10x_tim.c ****   /* Set the Counter Register value */
2259:../Library/STM32F10x_StdPeriph_Driver/src/stm32f10x_tim.c ****   TIMx->CNT = Counter;
 20877              		.loc 1 2259 0
 20878 0000 8184     		strh	r1, [r0, #36]	@ movhi
2260:../Library/STM32F10x_StdPeriph_Driver/src/stm32f10x_tim.c **** }
 20879              		.loc 1 2260 0
 20880 0002 7047     		bx	lr
 20881              		.cfi_endproc
 20882              	.LFE95:
 20884              		.section	.text.TIM_SetAutoreload,"ax",%progbits
 20885              		.align	2
 20886              		.global	TIM_SetAutoreload
 20887              		.thumb
 20888              		.thumb_func
 20890              	TIM_SetAutoreload:
 20891              	.LFB96:
2261:../Library/STM32F10x_StdPeriph_Driver/src/stm32f10x_tim.c **** 
2262:../Library/STM32F10x_StdPeriph_Driver/src/stm32f10x_tim.c **** /**
2263:../Library/STM32F10x_StdPeriph_Driver/src/stm32f10x_tim.c ****   * @brief  Sets the TIMx Autoreload Register value
2264:../Library/STM32F10x_StdPeriph_Driver/src/stm32f10x_tim.c ****   * @param  TIMx: where x can be 1 to 17 to select the TIM peripheral.
2265:../Library/STM32F10x_StdPeriph_Driver/src/stm32f10x_tim.c ****   * @param  Autoreload: specifies the Autoreload register new value.
2266:../Library/STM32F10x_StdPeriph_Driver/src/stm32f10x_tim.c ****   * @retval None
2267:../Library/STM32F10x_StdPeriph_Driver/src/stm32f10x_tim.c ****   */
2268:../Library/STM32F10x_StdPeriph_Driver/src/stm32f10x_tim.c **** void TIM_SetAutoreload(TIM_TypeDef* TIMx, uint16_t Autoreload)
2269:../Library/STM32F10x_StdPeriph_Driver/src/stm32f10x_tim.c **** {
 20892              		.loc 1 2269 0
 20893              		.cfi_startproc
 20894              		@ args = 0, pretend = 0, frame = 0
 20895              		@ frame_needed = 0, uses_anonymous_args = 0
 20896              		@ link register save eliminated.
 20897              	.LVL323:
2270:../Library/STM32F10x_StdPeriph_Driver/src/stm32f10x_tim.c ****   /* Check the parameters */
2271:../Library/STM32F10x_StdPeriph_Driver/src/stm32f10x_tim.c ****   assert_param(IS_TIM_ALL_PERIPH(TIMx));
2272:../Library/STM32F10x_StdPeriph_Driver/src/stm32f10x_tim.c ****   /* Set the Autoreload Register value */
2273:../Library/STM32F10x_StdPeriph_Driver/src/stm32f10x_tim.c ****   TIMx->ARR = Autoreload;
 20898              		.loc 1 2273 0
 20899 0000 8185     		strh	r1, [r0, #44]	@ movhi
2274:../Library/STM32F10x_StdPeriph_Driver/src/stm32f10x_tim.c **** }
 20900              		.loc 1 2274 0
 20901 0002 7047     		bx	lr
 20902              		.cfi_endproc
 20903              	.LFE96:
 20905              		.section	.text.TIM_SetCompare1,"ax",%progbits
 20906              		.align	2
 20907              		.global	TIM_SetCompare1
 20908              		.thumb
 20909              		.thumb_func
 20911              	TIM_SetCompare1:
 20912              	.LFB97:
2275:../Library/STM32F10x_StdPeriph_Driver/src/stm32f10x_tim.c **** 
2276:../Library/STM32F10x_StdPeriph_Driver/src/stm32f10x_tim.c **** /**
2277:../Library/STM32F10x_StdPeriph_Driver/src/stm32f10x_tim.c ****   * @brief  Sets the TIMx Capture Compare1 Register value
2278:../Library/STM32F10x_StdPeriph_Driver/src/stm32f10x_tim.c ****   * @param  TIMx: where x can be 1 to 17 except 6 and 7 to select the TIM peripheral.
2279:../Library/STM32F10x_StdPeriph_Driver/src/stm32f10x_tim.c ****   * @param  Compare1: specifies the Capture Compare1 register new value.
2280:../Library/STM32F10x_StdPeriph_Driver/src/stm32f10x_tim.c ****   * @retval None
2281:../Library/STM32F10x_StdPeriph_Driver/src/stm32f10x_tim.c ****   */
2282:../Library/STM32F10x_StdPeriph_Driver/src/stm32f10x_tim.c **** void TIM_SetCompare1(TIM_TypeDef* TIMx, uint16_t Compare1)
2283:../Library/STM32F10x_StdPeriph_Driver/src/stm32f10x_tim.c **** {
 20913              		.loc 1 2283 0
 20914              		.cfi_startproc
 20915              		@ args = 0, pretend = 0, frame = 0
 20916              		@ frame_needed = 0, uses_anonymous_args = 0
 20917              		@ link register save eliminated.
 20918              	.LVL324:
2284:../Library/STM32F10x_StdPeriph_Driver/src/stm32f10x_tim.c ****   /* Check the parameters */
2285:../Library/STM32F10x_StdPeriph_Driver/src/stm32f10x_tim.c ****   assert_param(IS_TIM_LIST8_PERIPH(TIMx));
2286:../Library/STM32F10x_StdPeriph_Driver/src/stm32f10x_tim.c ****   /* Set the Capture Compare1 Register value */
2287:../Library/STM32F10x_StdPeriph_Driver/src/stm32f10x_tim.c ****   TIMx->CCR1 = Compare1;
 20919              		.loc 1 2287 0
 20920 0000 8186     		strh	r1, [r0, #52]	@ movhi
2288:../Library/STM32F10x_StdPeriph_Driver/src/stm32f10x_tim.c **** }
 20921              		.loc 1 2288 0
 20922 0002 7047     		bx	lr
 20923              		.cfi_endproc
 20924              	.LFE97:
 20926              		.section	.text.TIM_SetCompare2,"ax",%progbits
 20927              		.align	2
 20928              		.global	TIM_SetCompare2
 20929              		.thumb
 20930              		.thumb_func
 20932              	TIM_SetCompare2:
 20933              	.LFB98:
2289:../Library/STM32F10x_StdPeriph_Driver/src/stm32f10x_tim.c **** 
2290:../Library/STM32F10x_StdPeriph_Driver/src/stm32f10x_tim.c **** /**
2291:../Library/STM32F10x_StdPeriph_Driver/src/stm32f10x_tim.c ****   * @brief  Sets the TIMx Capture Compare2 Register value
2292:../Library/STM32F10x_StdPeriph_Driver/src/stm32f10x_tim.c ****   * @param  TIMx: where x can be 1, 2, 3, 4, 5, 8, 9, 12 or 15 to select the TIM peripheral.
2293:../Library/STM32F10x_StdPeriph_Driver/src/stm32f10x_tim.c ****   * @param  Compare2: specifies the Capture Compare2 register new value.
2294:../Library/STM32F10x_StdPeriph_Driver/src/stm32f10x_tim.c ****   * @retval None
2295:../Library/STM32F10x_StdPeriph_Driver/src/stm32f10x_tim.c ****   */
2296:../Library/STM32F10x_StdPeriph_Driver/src/stm32f10x_tim.c **** void TIM_SetCompare2(TIM_TypeDef* TIMx, uint16_t Compare2)
2297:../Library/STM32F10x_StdPeriph_Driver/src/stm32f10x_tim.c **** {
 20934              		.loc 1 2297 0
 20935              		.cfi_startproc
 20936              		@ args = 0, pretend = 0, frame = 0
 20937              		@ frame_needed = 0, uses_anonymous_args = 0
 20938              		@ link register save eliminated.
 20939              	.LVL325:
2298:../Library/STM32F10x_StdPeriph_Driver/src/stm32f10x_tim.c ****   /* Check the parameters */
2299:../Library/STM32F10x_StdPeriph_Driver/src/stm32f10x_tim.c ****   assert_param(IS_TIM_LIST6_PERIPH(TIMx));
2300:../Library/STM32F10x_StdPeriph_Driver/src/stm32f10x_tim.c ****   /* Set the Capture Compare2 Register value */
2301:../Library/STM32F10x_StdPeriph_Driver/src/stm32f10x_tim.c ****   TIMx->CCR2 = Compare2;
 20940              		.loc 1 2301 0
 20941 0000 0187     		strh	r1, [r0, #56]	@ movhi
2302:../Library/STM32F10x_StdPeriph_Driver/src/stm32f10x_tim.c **** }
 20942              		.loc 1 2302 0
 20943 0002 7047     		bx	lr
 20944              		.cfi_endproc
 20945              	.LFE98:
 20947              		.section	.text.TIM_SetCompare3,"ax",%progbits
 20948              		.align	2
 20949              		.global	TIM_SetCompare3
 20950              		.thumb
 20951              		.thumb_func
 20953              	TIM_SetCompare3:
 20954              	.LFB99:
2303:../Library/STM32F10x_StdPeriph_Driver/src/stm32f10x_tim.c **** 
2304:../Library/STM32F10x_StdPeriph_Driver/src/stm32f10x_tim.c **** /**
2305:../Library/STM32F10x_StdPeriph_Driver/src/stm32f10x_tim.c ****   * @brief  Sets the TIMx Capture Compare3 Register value
2306:../Library/STM32F10x_StdPeriph_Driver/src/stm32f10x_tim.c ****   * @param  TIMx: where x can be 1, 2, 3, 4, 5 or 8 to select the TIM peripheral.
2307:../Library/STM32F10x_StdPeriph_Driver/src/stm32f10x_tim.c ****   * @param  Compare3: specifies the Capture Compare3 register new value.
2308:../Library/STM32F10x_StdPeriph_Driver/src/stm32f10x_tim.c ****   * @retval None
2309:../Library/STM32F10x_StdPeriph_Driver/src/stm32f10x_tim.c ****   */
2310:../Library/STM32F10x_StdPeriph_Driver/src/stm32f10x_tim.c **** void TIM_SetCompare3(TIM_TypeDef* TIMx, uint16_t Compare3)
2311:../Library/STM32F10x_StdPeriph_Driver/src/stm32f10x_tim.c **** {
 20955              		.loc 1 2311 0
 20956              		.cfi_startproc
 20957              		@ args = 0, pretend = 0, frame = 0
 20958              		@ frame_needed = 0, uses_anonymous_args = 0
 20959              		@ link register save eliminated.
 20960              	.LVL326:
2312:../Library/STM32F10x_StdPeriph_Driver/src/stm32f10x_tim.c ****   /* Check the parameters */
2313:../Library/STM32F10x_StdPeriph_Driver/src/stm32f10x_tim.c ****   assert_param(IS_TIM_LIST3_PERIPH(TIMx));
2314:../Library/STM32F10x_StdPeriph_Driver/src/stm32f10x_tim.c ****   /* Set the Capture Compare3 Register value */
2315:../Library/STM32F10x_StdPeriph_Driver/src/stm32f10x_tim.c ****   TIMx->CCR3 = Compare3;
 20961              		.loc 1 2315 0
 20962 0000 8187     		strh	r1, [r0, #60]	@ movhi
2316:../Library/STM32F10x_StdPeriph_Driver/src/stm32f10x_tim.c **** }
 20963              		.loc 1 2316 0
 20964 0002 7047     		bx	lr
 20965              		.cfi_endproc
 20966              	.LFE99:
 20968              		.section	.text.TIM_SetCompare4,"ax",%progbits
 20969              		.align	2
 20970              		.global	TIM_SetCompare4
 20971              		.thumb
 20972              		.thumb_func
 20974              	TIM_SetCompare4:
 20975              	.LFB100:
2317:../Library/STM32F10x_StdPeriph_Driver/src/stm32f10x_tim.c **** 
2318:../Library/STM32F10x_StdPeriph_Driver/src/stm32f10x_tim.c **** /**
2319:../Library/STM32F10x_StdPeriph_Driver/src/stm32f10x_tim.c ****   * @brief  Sets the TIMx Capture Compare4 Register value
2320:../Library/STM32F10x_StdPeriph_Driver/src/stm32f10x_tim.c ****   * @param  TIMx: where x can be 1, 2, 3, 4, 5 or 8 to select the TIM peripheral.
2321:../Library/STM32F10x_StdPeriph_Driver/src/stm32f10x_tim.c ****   * @param  Compare4: specifies the Capture Compare4 register new value.
2322:../Library/STM32F10x_StdPeriph_Driver/src/stm32f10x_tim.c ****   * @retval None
2323:../Library/STM32F10x_StdPeriph_Driver/src/stm32f10x_tim.c ****   */
2324:../Library/STM32F10x_StdPeriph_Driver/src/stm32f10x_tim.c **** void TIM_SetCompare4(TIM_TypeDef* TIMx, uint16_t Compare4)
2325:../Library/STM32F10x_StdPeriph_Driver/src/stm32f10x_tim.c **** {
 20976              		.loc 1 2325 0
 20977              		.cfi_startproc
 20978              		@ args = 0, pretend = 0, frame = 0
 20979              		@ frame_needed = 0, uses_anonymous_args = 0
 20980              		@ link register save eliminated.
 20981              	.LVL327:
2326:../Library/STM32F10x_StdPeriph_Driver/src/stm32f10x_tim.c ****   /* Check the parameters */
2327:../Library/STM32F10x_StdPeriph_Driver/src/stm32f10x_tim.c ****   assert_param(IS_TIM_LIST3_PERIPH(TIMx));
2328:../Library/STM32F10x_StdPeriph_Driver/src/stm32f10x_tim.c ****   /* Set the Capture Compare4 Register value */
2329:../Library/STM32F10x_StdPeriph_Driver/src/stm32f10x_tim.c ****   TIMx->CCR4 = Compare4;
 20982              		.loc 1 2329 0
 20983 0000 A0F84010 		strh	r1, [r0, #64]	@ movhi
2330:../Library/STM32F10x_StdPeriph_Driver/src/stm32f10x_tim.c **** }
 20984              		.loc 1 2330 0
 20985 0004 7047     		bx	lr
 20986              		.cfi_endproc
 20987              	.LFE100:
 20989 0006 00BF     		.section	.text.TIM_SetIC1Prescaler,"ax",%progbits
 20990              		.align	2
 20991              		.global	TIM_SetIC1Prescaler
 20992              		.thumb
 20993              		.thumb_func
 20995              	TIM_SetIC1Prescaler:
 20996              	.LFB101:
2331:../Library/STM32F10x_StdPeriph_Driver/src/stm32f10x_tim.c **** 
2332:../Library/STM32F10x_StdPeriph_Driver/src/stm32f10x_tim.c **** /**
2333:../Library/STM32F10x_StdPeriph_Driver/src/stm32f10x_tim.c ****   * @brief  Sets the TIMx Input Capture 1 prescaler.
2334:../Library/STM32F10x_StdPeriph_Driver/src/stm32f10x_tim.c ****   * @param  TIMx: where x can be 1 to 17 except 6 and 7 to select the TIM peripheral.
2335:../Library/STM32F10x_StdPeriph_Driver/src/stm32f10x_tim.c ****   * @param  TIM_ICPSC: specifies the Input Capture1 prescaler new value.
2336:../Library/STM32F10x_StdPeriph_Driver/src/stm32f10x_tim.c ****   *   This parameter can be one of the following values:
2337:../Library/STM32F10x_StdPeriph_Driver/src/stm32f10x_tim.c ****   *     @arg TIM_ICPSC_DIV1: no prescaler
2338:../Library/STM32F10x_StdPeriph_Driver/src/stm32f10x_tim.c ****   *     @arg TIM_ICPSC_DIV2: capture is done once every 2 events
2339:../Library/STM32F10x_StdPeriph_Driver/src/stm32f10x_tim.c ****   *     @arg TIM_ICPSC_DIV4: capture is done once every 4 events
2340:../Library/STM32F10x_StdPeriph_Driver/src/stm32f10x_tim.c ****   *     @arg TIM_ICPSC_DIV8: capture is done once every 8 events
2341:../Library/STM32F10x_StdPeriph_Driver/src/stm32f10x_tim.c ****   * @retval None
2342:../Library/STM32F10x_StdPeriph_Driver/src/stm32f10x_tim.c ****   */
2343:../Library/STM32F10x_StdPeriph_Driver/src/stm32f10x_tim.c **** void TIM_SetIC1Prescaler(TIM_TypeDef* TIMx, uint16_t TIM_ICPSC)
2344:../Library/STM32F10x_StdPeriph_Driver/src/stm32f10x_tim.c **** {
 20997              		.loc 1 2344 0
 20998              		.cfi_startproc
 20999              		@ args = 0, pretend = 0, frame = 0
 21000              		@ frame_needed = 0, uses_anonymous_args = 0
 21001              		@ link register save eliminated.
 21002              	.LVL328:
2345:../Library/STM32F10x_StdPeriph_Driver/src/stm32f10x_tim.c ****   /* Check the parameters */
2346:../Library/STM32F10x_StdPeriph_Driver/src/stm32f10x_tim.c ****   assert_param(IS_TIM_LIST8_PERIPH(TIMx));
2347:../Library/STM32F10x_StdPeriph_Driver/src/stm32f10x_tim.c ****   assert_param(IS_TIM_IC_PRESCALER(TIM_ICPSC));
2348:../Library/STM32F10x_StdPeriph_Driver/src/stm32f10x_tim.c ****   /* Reset the IC1PSC Bits */
2349:../Library/STM32F10x_StdPeriph_Driver/src/stm32f10x_tim.c ****   TIMx->CCMR1 &= (uint16_t)~((uint16_t)TIM_CCMR1_IC1PSC);
 21003              		.loc 1 2349 0
 21004 0000 038B     		ldrh	r3, [r0, #24]
 21005 0002 23F00C03 		bic	r3, r3, #12
 21006 0006 4FEA0343 		lsl	r3, r3, #16
 21007 000a 4FEA1343 		lsr	r3, r3, #16
 21008 000e 0383     		strh	r3, [r0, #24]	@ movhi
2350:../Library/STM32F10x_StdPeriph_Driver/src/stm32f10x_tim.c ****   /* Set the IC1PSC value */
2351:../Library/STM32F10x_StdPeriph_Driver/src/stm32f10x_tim.c ****   TIMx->CCMR1 |= TIM_ICPSC;
 21009              		.loc 1 2351 0
 21010 0010 038B     		ldrh	r3, [r0, #24]
 21011 0012 9BB2     		uxth	r3, r3
 21012 0014 41EA0303 		orr	r3, r1, r3
 21013 0018 0383     		strh	r3, [r0, #24]	@ movhi
2352:../Library/STM32F10x_StdPeriph_Driver/src/stm32f10x_tim.c **** }
 21014              		.loc 1 2352 0
 21015 001a 7047     		bx	lr
 21016              		.cfi_endproc
 21017              	.LFE101:
 21019              		.section	.text.TIM_SetIC2Prescaler,"ax",%progbits
 21020              		.align	2
 21021              		.global	TIM_SetIC2Prescaler
 21022              		.thumb
 21023              		.thumb_func
 21025              	TIM_SetIC2Prescaler:
 21026              	.LFB102:
2353:../Library/STM32F10x_StdPeriph_Driver/src/stm32f10x_tim.c **** 
2354:../Library/STM32F10x_StdPeriph_Driver/src/stm32f10x_tim.c **** /**
2355:../Library/STM32F10x_StdPeriph_Driver/src/stm32f10x_tim.c ****   * @brief  Sets the TIMx Input Capture 2 prescaler.
2356:../Library/STM32F10x_StdPeriph_Driver/src/stm32f10x_tim.c ****   * @param  TIMx: where x can be 1, 2, 3, 4, 5, 8, 9, 12 or 15 to select the TIM peripheral.
2357:../Library/STM32F10x_StdPeriph_Driver/src/stm32f10x_tim.c ****   * @param  TIM_ICPSC: specifies the Input Capture2 prescaler new value.
2358:../Library/STM32F10x_StdPeriph_Driver/src/stm32f10x_tim.c ****   *   This parameter can be one of the following values:
2359:../Library/STM32F10x_StdPeriph_Driver/src/stm32f10x_tim.c ****   *     @arg TIM_ICPSC_DIV1: no prescaler
2360:../Library/STM32F10x_StdPeriph_Driver/src/stm32f10x_tim.c ****   *     @arg TIM_ICPSC_DIV2: capture is done once every 2 events
2361:../Library/STM32F10x_StdPeriph_Driver/src/stm32f10x_tim.c ****   *     @arg TIM_ICPSC_DIV4: capture is done once every 4 events
2362:../Library/STM32F10x_StdPeriph_Driver/src/stm32f10x_tim.c ****   *     @arg TIM_ICPSC_DIV8: capture is done once every 8 events
2363:../Library/STM32F10x_StdPeriph_Driver/src/stm32f10x_tim.c ****   * @retval None
2364:../Library/STM32F10x_StdPeriph_Driver/src/stm32f10x_tim.c ****   */
2365:../Library/STM32F10x_StdPeriph_Driver/src/stm32f10x_tim.c **** void TIM_SetIC2Prescaler(TIM_TypeDef* TIMx, uint16_t TIM_ICPSC)
2366:../Library/STM32F10x_StdPeriph_Driver/src/stm32f10x_tim.c **** {
 21027              		.loc 1 2366 0
 21028              		.cfi_startproc
 21029              		@ args = 0, pretend = 0, frame = 0
 21030              		@ frame_needed = 0, uses_anonymous_args = 0
 21031              		@ link register save eliminated.
 21032              	.LVL329:
2367:../Library/STM32F10x_StdPeriph_Driver/src/stm32f10x_tim.c ****   /* Check the parameters */
2368:../Library/STM32F10x_StdPeriph_Driver/src/stm32f10x_tim.c ****   assert_param(IS_TIM_LIST6_PERIPH(TIMx));
2369:../Library/STM32F10x_StdPeriph_Driver/src/stm32f10x_tim.c ****   assert_param(IS_TIM_IC_PRESCALER(TIM_ICPSC));
2370:../Library/STM32F10x_StdPeriph_Driver/src/stm32f10x_tim.c ****   /* Reset the IC2PSC Bits */
2371:../Library/STM32F10x_StdPeriph_Driver/src/stm32f10x_tim.c ****   TIMx->CCMR1 &= (uint16_t)~((uint16_t)TIM_CCMR1_IC2PSC);
 21033              		.loc 1 2371 0
 21034 0000 038B     		ldrh	r3, [r0, #24]
 21035 0002 23F44063 		bic	r3, r3, #3072
 21036 0006 4FEA0343 		lsl	r3, r3, #16
 21037 000a 4FEA1343 		lsr	r3, r3, #16
 21038 000e 0383     		strh	r3, [r0, #24]	@ movhi
2372:../Library/STM32F10x_StdPeriph_Driver/src/stm32f10x_tim.c ****   /* Set the IC2PSC value */
2373:../Library/STM32F10x_StdPeriph_Driver/src/stm32f10x_tim.c ****   TIMx->CCMR1 |= (uint16_t)(TIM_ICPSC << 8);
 21039              		.loc 1 2373 0
 21040 0010 038B     		ldrh	r3, [r0, #24]
 21041 0012 9BB2     		uxth	r3, r3
 21042 0014 43EA0123 		orr	r3, r3, r1, lsl #8
 21043 0018 9BB2     		uxth	r3, r3
 21044 001a 0383     		strh	r3, [r0, #24]	@ movhi
2374:../Library/STM32F10x_StdPeriph_Driver/src/stm32f10x_tim.c **** }
 21045              		.loc 1 2374 0
 21046 001c 7047     		bx	lr
 21047              		.cfi_endproc
 21048              	.LFE102:
 21050 001e 00BF     		.section	.text.TIM_SetIC3Prescaler,"ax",%progbits
 21051              		.align	2
 21052              		.global	TIM_SetIC3Prescaler
 21053              		.thumb
 21054              		.thumb_func
 21056              	TIM_SetIC3Prescaler:
 21057              	.LFB103:
2375:../Library/STM32F10x_StdPeriph_Driver/src/stm32f10x_tim.c **** 
2376:../Library/STM32F10x_StdPeriph_Driver/src/stm32f10x_tim.c **** /**
2377:../Library/STM32F10x_StdPeriph_Driver/src/stm32f10x_tim.c ****   * @brief  Sets the TIMx Input Capture 3 prescaler.
2378:../Library/STM32F10x_StdPeriph_Driver/src/stm32f10x_tim.c ****   * @param  TIMx: where x can be 1, 2, 3, 4, 5 or 8 to select the TIM peripheral.
2379:../Library/STM32F10x_StdPeriph_Driver/src/stm32f10x_tim.c ****   * @param  TIM_ICPSC: specifies the Input Capture3 prescaler new value.
2380:../Library/STM32F10x_StdPeriph_Driver/src/stm32f10x_tim.c ****   *   This parameter can be one of the following values:
2381:../Library/STM32F10x_StdPeriph_Driver/src/stm32f10x_tim.c ****   *     @arg TIM_ICPSC_DIV1: no prescaler
2382:../Library/STM32F10x_StdPeriph_Driver/src/stm32f10x_tim.c ****   *     @arg TIM_ICPSC_DIV2: capture is done once every 2 events
2383:../Library/STM32F10x_StdPeriph_Driver/src/stm32f10x_tim.c ****   *     @arg TIM_ICPSC_DIV4: capture is done once every 4 events
2384:../Library/STM32F10x_StdPeriph_Driver/src/stm32f10x_tim.c ****   *     @arg TIM_ICPSC_DIV8: capture is done once every 8 events
2385:../Library/STM32F10x_StdPeriph_Driver/src/stm32f10x_tim.c ****   * @retval None
2386:../Library/STM32F10x_StdPeriph_Driver/src/stm32f10x_tim.c ****   */
2387:../Library/STM32F10x_StdPeriph_Driver/src/stm32f10x_tim.c **** void TIM_SetIC3Prescaler(TIM_TypeDef* TIMx, uint16_t TIM_ICPSC)
2388:../Library/STM32F10x_StdPeriph_Driver/src/stm32f10x_tim.c **** {
 21058              		.loc 1 2388 0
 21059              		.cfi_startproc
 21060              		@ args = 0, pretend = 0, frame = 0
 21061              		@ frame_needed = 0, uses_anonymous_args = 0
 21062              		@ link register save eliminated.
 21063              	.LVL330:
2389:../Library/STM32F10x_StdPeriph_Driver/src/stm32f10x_tim.c ****   /* Check the parameters */
2390:../Library/STM32F10x_StdPeriph_Driver/src/stm32f10x_tim.c ****   assert_param(IS_TIM_LIST3_PERIPH(TIMx));
2391:../Library/STM32F10x_StdPeriph_Driver/src/stm32f10x_tim.c ****   assert_param(IS_TIM_IC_PRESCALER(TIM_ICPSC));
2392:../Library/STM32F10x_StdPeriph_Driver/src/stm32f10x_tim.c ****   /* Reset the IC3PSC Bits */
2393:../Library/STM32F10x_StdPeriph_Driver/src/stm32f10x_tim.c ****   TIMx->CCMR2 &= (uint16_t)~((uint16_t)TIM_CCMR2_IC3PSC);
 21064              		.loc 1 2393 0
 21065 0000 838B     		ldrh	r3, [r0, #28]
 21066 0002 23F00C03 		bic	r3, r3, #12
 21067 0006 4FEA0343 		lsl	r3, r3, #16
 21068 000a 4FEA1343 		lsr	r3, r3, #16
 21069 000e 8383     		strh	r3, [r0, #28]	@ movhi
2394:../Library/STM32F10x_StdPeriph_Driver/src/stm32f10x_tim.c ****   /* Set the IC3PSC value */
2395:../Library/STM32F10x_StdPeriph_Driver/src/stm32f10x_tim.c ****   TIMx->CCMR2 |= TIM_ICPSC;
 21070              		.loc 1 2395 0
 21071 0010 838B     		ldrh	r3, [r0, #28]
 21072 0012 9BB2     		uxth	r3, r3
 21073 0014 41EA0303 		orr	r3, r1, r3
 21074 0018 8383     		strh	r3, [r0, #28]	@ movhi
2396:../Library/STM32F10x_StdPeriph_Driver/src/stm32f10x_tim.c **** }
 21075              		.loc 1 2396 0
 21076 001a 7047     		bx	lr
 21077              		.cfi_endproc
 21078              	.LFE103:
 21080              		.section	.text.TIM_SetIC4Prescaler,"ax",%progbits
 21081              		.align	2
 21082              		.global	TIM_SetIC4Prescaler
 21083              		.thumb
 21084              		.thumb_func
 21086              	TIM_SetIC4Prescaler:
 21087              	.LFB104:
2397:../Library/STM32F10x_StdPeriph_Driver/src/stm32f10x_tim.c **** 
2398:../Library/STM32F10x_StdPeriph_Driver/src/stm32f10x_tim.c **** /**
2399:../Library/STM32F10x_StdPeriph_Driver/src/stm32f10x_tim.c ****   * @brief  Sets the TIMx Input Capture 4 prescaler.
2400:../Library/STM32F10x_StdPeriph_Driver/src/stm32f10x_tim.c ****   * @param  TIMx: where x can be 1, 2, 3, 4, 5 or 8 to select the TIM peripheral.
2401:../Library/STM32F10x_StdPeriph_Driver/src/stm32f10x_tim.c ****   * @param  TIM_ICPSC: specifies the Input Capture4 prescaler new value.
2402:../Library/STM32F10x_StdPeriph_Driver/src/stm32f10x_tim.c ****   *   This parameter can be one of the following values:
2403:../Library/STM32F10x_StdPeriph_Driver/src/stm32f10x_tim.c ****   *     @arg TIM_ICPSC_DIV1: no prescaler
2404:../Library/STM32F10x_StdPeriph_Driver/src/stm32f10x_tim.c ****   *     @arg TIM_ICPSC_DIV2: capture is done once every 2 events
2405:../Library/STM32F10x_StdPeriph_Driver/src/stm32f10x_tim.c ****   *     @arg TIM_ICPSC_DIV4: capture is done once every 4 events
2406:../Library/STM32F10x_StdPeriph_Driver/src/stm32f10x_tim.c ****   *     @arg TIM_ICPSC_DIV8: capture is done once every 8 events
2407:../Library/STM32F10x_StdPeriph_Driver/src/stm32f10x_tim.c ****   * @retval None
2408:../Library/STM32F10x_StdPeriph_Driver/src/stm32f10x_tim.c ****   */
2409:../Library/STM32F10x_StdPeriph_Driver/src/stm32f10x_tim.c **** void TIM_SetIC4Prescaler(TIM_TypeDef* TIMx, uint16_t TIM_ICPSC)
2410:../Library/STM32F10x_StdPeriph_Driver/src/stm32f10x_tim.c **** {  
 21088              		.loc 1 2410 0
 21089              		.cfi_startproc
 21090              		@ args = 0, pretend = 0, frame = 0
 21091              		@ frame_needed = 0, uses_anonymous_args = 0
 21092              		@ link register save eliminated.
 21093              	.LVL331:
2411:../Library/STM32F10x_StdPeriph_Driver/src/stm32f10x_tim.c ****   /* Check the parameters */
2412:../Library/STM32F10x_StdPeriph_Driver/src/stm32f10x_tim.c ****   assert_param(IS_TIM_LIST3_PERIPH(TIMx));
2413:../Library/STM32F10x_StdPeriph_Driver/src/stm32f10x_tim.c ****   assert_param(IS_TIM_IC_PRESCALER(TIM_ICPSC));
2414:../Library/STM32F10x_StdPeriph_Driver/src/stm32f10x_tim.c ****   /* Reset the IC4PSC Bits */
2415:../Library/STM32F10x_StdPeriph_Driver/src/stm32f10x_tim.c ****   TIMx->CCMR2 &= (uint16_t)~((uint16_t)TIM_CCMR2_IC4PSC);
 21094              		.loc 1 2415 0
 21095 0000 838B     		ldrh	r3, [r0, #28]
 21096 0002 23F44063 		bic	r3, r3, #3072
 21097 0006 4FEA0343 		lsl	r3, r3, #16
 21098 000a 4FEA1343 		lsr	r3, r3, #16
 21099 000e 8383     		strh	r3, [r0, #28]	@ movhi
2416:../Library/STM32F10x_StdPeriph_Driver/src/stm32f10x_tim.c ****   /* Set the IC4PSC value */
2417:../Library/STM32F10x_StdPeriph_Driver/src/stm32f10x_tim.c ****   TIMx->CCMR2 |= (uint16_t)(TIM_ICPSC << 8);
 21100              		.loc 1 2417 0
 21101 0010 838B     		ldrh	r3, [r0, #28]
 21102 0012 9BB2     		uxth	r3, r3
 21103 0014 43EA0123 		orr	r3, r3, r1, lsl #8
 21104 0018 9BB2     		uxth	r3, r3
 21105 001a 8383     		strh	r3, [r0, #28]	@ movhi
2418:../Library/STM32F10x_StdPeriph_Driver/src/stm32f10x_tim.c **** }
 21106              		.loc 1 2418 0
 21107 001c 7047     		bx	lr
 21108              		.cfi_endproc
 21109              	.LFE104:
 21111 001e 00BF     		.section	.text.TIM_SetClockDivision,"ax",%progbits
 21112              		.align	2
 21113              		.global	TIM_SetClockDivision
 21114              		.thumb
 21115              		.thumb_func
 21117              	TIM_SetClockDivision:
 21118              	.LFB105:
2419:../Library/STM32F10x_StdPeriph_Driver/src/stm32f10x_tim.c **** 
2420:../Library/STM32F10x_StdPeriph_Driver/src/stm32f10x_tim.c **** /**
2421:../Library/STM32F10x_StdPeriph_Driver/src/stm32f10x_tim.c ****   * @brief  Sets the TIMx Clock Division value.
2422:../Library/STM32F10x_StdPeriph_Driver/src/stm32f10x_tim.c ****   * @param  TIMx: where x can be  1 to 17 except 6 and 7 to select 
2423:../Library/STM32F10x_StdPeriph_Driver/src/stm32f10x_tim.c ****   *   the TIM peripheral.
2424:../Library/STM32F10x_StdPeriph_Driver/src/stm32f10x_tim.c ****   * @param  TIM_CKD: specifies the clock division value.
2425:../Library/STM32F10x_StdPeriph_Driver/src/stm32f10x_tim.c ****   *   This parameter can be one of the following value:
2426:../Library/STM32F10x_StdPeriph_Driver/src/stm32f10x_tim.c ****   *     @arg TIM_CKD_DIV1: TDTS = Tck_tim
2427:../Library/STM32F10x_StdPeriph_Driver/src/stm32f10x_tim.c ****   *     @arg TIM_CKD_DIV2: TDTS = 2*Tck_tim
2428:../Library/STM32F10x_StdPeriph_Driver/src/stm32f10x_tim.c ****   *     @arg TIM_CKD_DIV4: TDTS = 4*Tck_tim
2429:../Library/STM32F10x_StdPeriph_Driver/src/stm32f10x_tim.c ****   * @retval None
2430:../Library/STM32F10x_StdPeriph_Driver/src/stm32f10x_tim.c ****   */
2431:../Library/STM32F10x_StdPeriph_Driver/src/stm32f10x_tim.c **** void TIM_SetClockDivision(TIM_TypeDef* TIMx, uint16_t TIM_CKD)
2432:../Library/STM32F10x_StdPeriph_Driver/src/stm32f10x_tim.c **** {
 21119              		.loc 1 2432 0
 21120              		.cfi_startproc
 21121              		@ args = 0, pretend = 0, frame = 0
 21122              		@ frame_needed = 0, uses_anonymous_args = 0
 21123              		@ link register save eliminated.
 21124              	.LVL332:
2433:../Library/STM32F10x_StdPeriph_Driver/src/stm32f10x_tim.c ****   /* Check the parameters */
2434:../Library/STM32F10x_StdPeriph_Driver/src/stm32f10x_tim.c ****   assert_param(IS_TIM_LIST8_PERIPH(TIMx));
2435:../Library/STM32F10x_StdPeriph_Driver/src/stm32f10x_tim.c ****   assert_param(IS_TIM_CKD_DIV(TIM_CKD));
2436:../Library/STM32F10x_StdPeriph_Driver/src/stm32f10x_tim.c ****   /* Reset the CKD Bits */
2437:../Library/STM32F10x_StdPeriph_Driver/src/stm32f10x_tim.c ****   TIMx->CR1 &= (uint16_t)~((uint16_t)TIM_CR1_CKD);
 21125              		.loc 1 2437 0
 21126 0000 0388     		ldrh	r3, [r0, #0]
 21127 0002 23F44073 		bic	r3, r3, #768
 21128 0006 4FEA0343 		lsl	r3, r3, #16
 21129 000a 4FEA1343 		lsr	r3, r3, #16
 21130 000e 0380     		strh	r3, [r0, #0]	@ movhi
2438:../Library/STM32F10x_StdPeriph_Driver/src/stm32f10x_tim.c ****   /* Set the CKD value */
2439:../Library/STM32F10x_StdPeriph_Driver/src/stm32f10x_tim.c ****   TIMx->CR1 |= TIM_CKD;
 21131              		.loc 1 2439 0
 21132 0010 0388     		ldrh	r3, [r0, #0]
 21133 0012 9BB2     		uxth	r3, r3
 21134 0014 41EA0303 		orr	r3, r1, r3
 21135 0018 0380     		strh	r3, [r0, #0]	@ movhi
2440:../Library/STM32F10x_StdPeriph_Driver/src/stm32f10x_tim.c **** }
 21136              		.loc 1 2440 0
 21137 001a 7047     		bx	lr
 21138              		.cfi_endproc
 21139              	.LFE105:
 21141              		.section	.text.TIM_GetCapture1,"ax",%progbits
 21142              		.align	2
 21143              		.global	TIM_GetCapture1
 21144              		.thumb
 21145              		.thumb_func
 21147              	TIM_GetCapture1:
 21148              	.LFB106:
2441:../Library/STM32F10x_StdPeriph_Driver/src/stm32f10x_tim.c **** 
2442:../Library/STM32F10x_StdPeriph_Driver/src/stm32f10x_tim.c **** /**
2443:../Library/STM32F10x_StdPeriph_Driver/src/stm32f10x_tim.c ****   * @brief  Gets the TIMx Input Capture 1 value.
2444:../Library/STM32F10x_StdPeriph_Driver/src/stm32f10x_tim.c ****   * @param  TIMx: where x can be 1 to 17 except 6 and 7 to select the TIM peripheral.
2445:../Library/STM32F10x_StdPeriph_Driver/src/stm32f10x_tim.c ****   * @retval Capture Compare 1 Register value.
2446:../Library/STM32F10x_StdPeriph_Driver/src/stm32f10x_tim.c ****   */
2447:../Library/STM32F10x_StdPeriph_Driver/src/stm32f10x_tim.c **** uint16_t TIM_GetCapture1(TIM_TypeDef* TIMx)
2448:../Library/STM32F10x_StdPeriph_Driver/src/stm32f10x_tim.c **** {
 21149              		.loc 1 2448 0
 21150              		.cfi_startproc
 21151              		@ args = 0, pretend = 0, frame = 0
 21152              		@ frame_needed = 0, uses_anonymous_args = 0
 21153              		@ link register save eliminated.
 21154              	.LVL333:
2449:../Library/STM32F10x_StdPeriph_Driver/src/stm32f10x_tim.c ****   /* Check the parameters */
2450:../Library/STM32F10x_StdPeriph_Driver/src/stm32f10x_tim.c ****   assert_param(IS_TIM_LIST8_PERIPH(TIMx));
2451:../Library/STM32F10x_StdPeriph_Driver/src/stm32f10x_tim.c ****   /* Get the Capture 1 Register value */
2452:../Library/STM32F10x_StdPeriph_Driver/src/stm32f10x_tim.c ****   return TIMx->CCR1;
 21155              		.loc 1 2452 0
 21156 0000 808E     		ldrh	r0, [r0, #52]
 21157              	.LVL334:
2453:../Library/STM32F10x_StdPeriph_Driver/src/stm32f10x_tim.c **** }
 21158              		.loc 1 2453 0
 21159 0002 80B2     		uxth	r0, r0
 21160 0004 7047     		bx	lr
 21161              		.cfi_endproc
 21162              	.LFE106:
 21164 0006 00BF     		.section	.text.TIM_GetCapture2,"ax",%progbits
 21165              		.align	2
 21166              		.global	TIM_GetCapture2
 21167              		.thumb
 21168              		.thumb_func
 21170              	TIM_GetCapture2:
 21171              	.LFB107:
2454:../Library/STM32F10x_StdPeriph_Driver/src/stm32f10x_tim.c **** 
2455:../Library/STM32F10x_StdPeriph_Driver/src/stm32f10x_tim.c **** /**
2456:../Library/STM32F10x_StdPeriph_Driver/src/stm32f10x_tim.c ****   * @brief  Gets the TIMx Input Capture 2 value.
2457:../Library/STM32F10x_StdPeriph_Driver/src/stm32f10x_tim.c ****   * @param  TIMx: where x can be 1, 2, 3, 4, 5, 8, 9, 12 or 15 to select the TIM peripheral.
2458:../Library/STM32F10x_StdPeriph_Driver/src/stm32f10x_tim.c ****   * @retval Capture Compare 2 Register value.
2459:../Library/STM32F10x_StdPeriph_Driver/src/stm32f10x_tim.c ****   */
2460:../Library/STM32F10x_StdPeriph_Driver/src/stm32f10x_tim.c **** uint16_t TIM_GetCapture2(TIM_TypeDef* TIMx)
2461:../Library/STM32F10x_StdPeriph_Driver/src/stm32f10x_tim.c **** {
 21172              		.loc 1 2461 0
 21173              		.cfi_startproc
 21174              		@ args = 0, pretend = 0, frame = 0
 21175              		@ frame_needed = 0, uses_anonymous_args = 0
 21176              		@ link register save eliminated.
 21177              	.LVL335:
2462:../Library/STM32F10x_StdPeriph_Driver/src/stm32f10x_tim.c ****   /* Check the parameters */
2463:../Library/STM32F10x_StdPeriph_Driver/src/stm32f10x_tim.c ****   assert_param(IS_TIM_LIST6_PERIPH(TIMx));
2464:../Library/STM32F10x_StdPeriph_Driver/src/stm32f10x_tim.c ****   /* Get the Capture 2 Register value */
2465:../Library/STM32F10x_StdPeriph_Driver/src/stm32f10x_tim.c ****   return TIMx->CCR2;
 21178              		.loc 1 2465 0
 21179 0000 008F     		ldrh	r0, [r0, #56]
 21180              	.LVL336:
2466:../Library/STM32F10x_StdPeriph_Driver/src/stm32f10x_tim.c **** }
 21181              		.loc 1 2466 0
 21182 0002 80B2     		uxth	r0, r0
 21183 0004 7047     		bx	lr
 21184              		.cfi_endproc
 21185              	.LFE107:
 21187 0006 00BF     		.section	.text.TIM_GetCapture3,"ax",%progbits
 21188              		.align	2
 21189              		.global	TIM_GetCapture3
 21190              		.thumb
 21191              		.thumb_func
 21193              	TIM_GetCapture3:
 21194              	.LFB108:
2467:../Library/STM32F10x_StdPeriph_Driver/src/stm32f10x_tim.c **** 
2468:../Library/STM32F10x_StdPeriph_Driver/src/stm32f10x_tim.c **** /**
2469:../Library/STM32F10x_StdPeriph_Driver/src/stm32f10x_tim.c ****   * @brief  Gets the TIMx Input Capture 3 value.
2470:../Library/STM32F10x_StdPeriph_Driver/src/stm32f10x_tim.c ****   * @param  TIMx: where x can be 1, 2, 3, 4, 5 or 8 to select the TIM peripheral.
2471:../Library/STM32F10x_StdPeriph_Driver/src/stm32f10x_tim.c ****   * @retval Capture Compare 3 Register value.
2472:../Library/STM32F10x_StdPeriph_Driver/src/stm32f10x_tim.c ****   */
2473:../Library/STM32F10x_StdPeriph_Driver/src/stm32f10x_tim.c **** uint16_t TIM_GetCapture3(TIM_TypeDef* TIMx)
2474:../Library/STM32F10x_StdPeriph_Driver/src/stm32f10x_tim.c **** {
 21195              		.loc 1 2474 0
 21196              		.cfi_startproc
 21197              		@ args = 0, pretend = 0, frame = 0
 21198              		@ frame_needed = 0, uses_anonymous_args = 0
 21199              		@ link register save eliminated.
 21200              	.LVL337:
2475:../Library/STM32F10x_StdPeriph_Driver/src/stm32f10x_tim.c ****   /* Check the parameters */
2476:../Library/STM32F10x_StdPeriph_Driver/src/stm32f10x_tim.c ****   assert_param(IS_TIM_LIST3_PERIPH(TIMx)); 
2477:../Library/STM32F10x_StdPeriph_Driver/src/stm32f10x_tim.c ****   /* Get the Capture 3 Register value */
2478:../Library/STM32F10x_StdPeriph_Driver/src/stm32f10x_tim.c ****   return TIMx->CCR3;
 21201              		.loc 1 2478 0
 21202 0000 808F     		ldrh	r0, [r0, #60]
 21203              	.LVL338:
2479:../Library/STM32F10x_StdPeriph_Driver/src/stm32f10x_tim.c **** }
 21204              		.loc 1 2479 0
 21205 0002 80B2     		uxth	r0, r0
 21206 0004 7047     		bx	lr
 21207              		.cfi_endproc
 21208              	.LFE108:
 21210 0006 00BF     		.section	.text.TIM_GetCapture4,"ax",%progbits
 21211              		.align	2
 21212              		.global	TIM_GetCapture4
 21213              		.thumb
 21214              		.thumb_func
 21216              	TIM_GetCapture4:
 21217              	.LFB109:
2480:../Library/STM32F10x_StdPeriph_Driver/src/stm32f10x_tim.c **** 
2481:../Library/STM32F10x_StdPeriph_Driver/src/stm32f10x_tim.c **** /**
2482:../Library/STM32F10x_StdPeriph_Driver/src/stm32f10x_tim.c ****   * @brief  Gets the TIMx Input Capture 4 value.
2483:../Library/STM32F10x_StdPeriph_Driver/src/stm32f10x_tim.c ****   * @param  TIMx: where x can be 1, 2, 3, 4, 5 or 8 to select the TIM peripheral.
2484:../Library/STM32F10x_StdPeriph_Driver/src/stm32f10x_tim.c ****   * @retval Capture Compare 4 Register value.
2485:../Library/STM32F10x_StdPeriph_Driver/src/stm32f10x_tim.c ****   */
2486:../Library/STM32F10x_StdPeriph_Driver/src/stm32f10x_tim.c **** uint16_t TIM_GetCapture4(TIM_TypeDef* TIMx)
2487:../Library/STM32F10x_StdPeriph_Driver/src/stm32f10x_tim.c **** {
 21218              		.loc 1 2487 0
 21219              		.cfi_startproc
 21220              		@ args = 0, pretend = 0, frame = 0
 21221              		@ frame_needed = 0, uses_anonymous_args = 0
 21222              		@ link register save eliminated.
 21223              	.LVL339:
2488:../Library/STM32F10x_StdPeriph_Driver/src/stm32f10x_tim.c ****   /* Check the parameters */
2489:../Library/STM32F10x_StdPeriph_Driver/src/stm32f10x_tim.c ****   assert_param(IS_TIM_LIST3_PERIPH(TIMx));
2490:../Library/STM32F10x_StdPeriph_Driver/src/stm32f10x_tim.c ****   /* Get the Capture 4 Register value */
2491:../Library/STM32F10x_StdPeriph_Driver/src/stm32f10x_tim.c ****   return TIMx->CCR4;
 21224              		.loc 1 2491 0
 21225 0000 B0F84000 		ldrh	r0, [r0, #64]
 21226              	.LVL340:
2492:../Library/STM32F10x_StdPeriph_Driver/src/stm32f10x_tim.c **** }
 21227              		.loc 1 2492 0
 21228 0004 80B2     		uxth	r0, r0
 21229 0006 7047     		bx	lr
 21230              		.cfi_endproc
 21231              	.LFE109:
 21233              		.section	.text.TIM_GetCounter,"ax",%progbits
 21234              		.align	2
 21235              		.global	TIM_GetCounter
 21236              		.thumb
 21237              		.thumb_func
 21239              	TIM_GetCounter:
 21240              	.LFB110:
2493:../Library/STM32F10x_StdPeriph_Driver/src/stm32f10x_tim.c **** 
2494:../Library/STM32F10x_StdPeriph_Driver/src/stm32f10x_tim.c **** /**
2495:../Library/STM32F10x_StdPeriph_Driver/src/stm32f10x_tim.c ****   * @brief  Gets the TIMx Counter value.
2496:../Library/STM32F10x_StdPeriph_Driver/src/stm32f10x_tim.c ****   * @param  TIMx: where x can be 1 to 17 to select the TIM peripheral.
2497:../Library/STM32F10x_StdPeriph_Driver/src/stm32f10x_tim.c ****   * @retval Counter Register value.
2498:../Library/STM32F10x_StdPeriph_Driver/src/stm32f10x_tim.c ****   */
2499:../Library/STM32F10x_StdPeriph_Driver/src/stm32f10x_tim.c **** uint16_t TIM_GetCounter(TIM_TypeDef* TIMx)
2500:../Library/STM32F10x_StdPeriph_Driver/src/stm32f10x_tim.c **** {
 21241              		.loc 1 2500 0
 21242              		.cfi_startproc
 21243              		@ args = 0, pretend = 0, frame = 0
 21244              		@ frame_needed = 0, uses_anonymous_args = 0
 21245              		@ link register save eliminated.
 21246              	.LVL341:
2501:../Library/STM32F10x_StdPeriph_Driver/src/stm32f10x_tim.c ****   /* Check the parameters */
2502:../Library/STM32F10x_StdPeriph_Driver/src/stm32f10x_tim.c ****   assert_param(IS_TIM_ALL_PERIPH(TIMx));
2503:../Library/STM32F10x_StdPeriph_Driver/src/stm32f10x_tim.c ****   /* Get the Counter Register value */
2504:../Library/STM32F10x_StdPeriph_Driver/src/stm32f10x_tim.c ****   return TIMx->CNT;
 21247              		.loc 1 2504 0
 21248 0000 808C     		ldrh	r0, [r0, #36]
 21249              	.LVL342:
2505:../Library/STM32F10x_StdPeriph_Driver/src/stm32f10x_tim.c **** }
 21250              		.loc 1 2505 0
 21251 0002 80B2     		uxth	r0, r0
 21252 0004 7047     		bx	lr
 21253              		.cfi_endproc
 21254              	.LFE110:
 21256 0006 00BF     		.section	.text.TIM_GetPrescaler,"ax",%progbits
 21257              		.align	2
 21258              		.global	TIM_GetPrescaler
 21259              		.thumb
 21260              		.thumb_func
 21262              	TIM_GetPrescaler:
 21263              	.LFB111:
2506:../Library/STM32F10x_StdPeriph_Driver/src/stm32f10x_tim.c **** 
2507:../Library/STM32F10x_StdPeriph_Driver/src/stm32f10x_tim.c **** /**
2508:../Library/STM32F10x_StdPeriph_Driver/src/stm32f10x_tim.c ****   * @brief  Gets the TIMx Prescaler value.
2509:../Library/STM32F10x_StdPeriph_Driver/src/stm32f10x_tim.c ****   * @param  TIMx: where x can be 1 to 17 to select the TIM peripheral.
2510:../Library/STM32F10x_StdPeriph_Driver/src/stm32f10x_tim.c ****   * @retval Prescaler Register value.
2511:../Library/STM32F10x_StdPeriph_Driver/src/stm32f10x_tim.c ****   */
2512:../Library/STM32F10x_StdPeriph_Driver/src/stm32f10x_tim.c **** uint16_t TIM_GetPrescaler(TIM_TypeDef* TIMx)
2513:../Library/STM32F10x_StdPeriph_Driver/src/stm32f10x_tim.c **** {
 21264              		.loc 1 2513 0
 21265              		.cfi_startproc
 21266              		@ args = 0, pretend = 0, frame = 0
 21267              		@ frame_needed = 0, uses_anonymous_args = 0
 21268              		@ link register save eliminated.
 21269              	.LVL343:
2514:../Library/STM32F10x_StdPeriph_Driver/src/stm32f10x_tim.c ****   /* Check the parameters */
2515:../Library/STM32F10x_StdPeriph_Driver/src/stm32f10x_tim.c ****   assert_param(IS_TIM_ALL_PERIPH(TIMx));
2516:../Library/STM32F10x_StdPeriph_Driver/src/stm32f10x_tim.c ****   /* Get the Prescaler Register value */
2517:../Library/STM32F10x_StdPeriph_Driver/src/stm32f10x_tim.c ****   return TIMx->PSC;
 21270              		.loc 1 2517 0
 21271 0000 008D     		ldrh	r0, [r0, #40]
 21272              	.LVL344:
2518:../Library/STM32F10x_StdPeriph_Driver/src/stm32f10x_tim.c **** }
 21273              		.loc 1 2518 0
 21274 0002 80B2     		uxth	r0, r0
 21275 0004 7047     		bx	lr
 21276              		.cfi_endproc
 21277              	.LFE111:
 21279 0006 00BF     		.section	.text.TIM_GetFlagStatus,"ax",%progbits
 21280              		.align	2
 21281              		.global	TIM_GetFlagStatus
 21282              		.thumb
 21283              		.thumb_func
 21285              	TIM_GetFlagStatus:
 21286              	.LFB112:
2519:../Library/STM32F10x_StdPeriph_Driver/src/stm32f10x_tim.c **** 
2520:../Library/STM32F10x_StdPeriph_Driver/src/stm32f10x_tim.c **** /**
2521:../Library/STM32F10x_StdPeriph_Driver/src/stm32f10x_tim.c ****   * @brief  Checks whether the specified TIM flag is set or not.
2522:../Library/STM32F10x_StdPeriph_Driver/src/stm32f10x_tim.c ****   * @param  TIMx: where x can be 1 to 17 to select the TIM peripheral.
2523:../Library/STM32F10x_StdPeriph_Driver/src/stm32f10x_tim.c ****   * @param  TIM_FLAG: specifies the flag to check.
2524:../Library/STM32F10x_StdPeriph_Driver/src/stm32f10x_tim.c ****   *   This parameter can be one of the following values:
2525:../Library/STM32F10x_StdPeriph_Driver/src/stm32f10x_tim.c ****   *     @arg TIM_FLAG_Update: TIM update Flag
2526:../Library/STM32F10x_StdPeriph_Driver/src/stm32f10x_tim.c ****   *     @arg TIM_FLAG_CC1: TIM Capture Compare 1 Flag
2527:../Library/STM32F10x_StdPeriph_Driver/src/stm32f10x_tim.c ****   *     @arg TIM_FLAG_CC2: TIM Capture Compare 2 Flag
2528:../Library/STM32F10x_StdPeriph_Driver/src/stm32f10x_tim.c ****   *     @arg TIM_FLAG_CC3: TIM Capture Compare 3 Flag
2529:../Library/STM32F10x_StdPeriph_Driver/src/stm32f10x_tim.c ****   *     @arg TIM_FLAG_CC4: TIM Capture Compare 4 Flag
2530:../Library/STM32F10x_StdPeriph_Driver/src/stm32f10x_tim.c ****   *     @arg TIM_FLAG_COM: TIM Commutation Flag
2531:../Library/STM32F10x_StdPeriph_Driver/src/stm32f10x_tim.c ****   *     @arg TIM_FLAG_Trigger: TIM Trigger Flag
2532:../Library/STM32F10x_StdPeriph_Driver/src/stm32f10x_tim.c ****   *     @arg TIM_FLAG_Break: TIM Break Flag
2533:../Library/STM32F10x_StdPeriph_Driver/src/stm32f10x_tim.c ****   *     @arg TIM_FLAG_CC1OF: TIM Capture Compare 1 overcapture Flag
2534:../Library/STM32F10x_StdPeriph_Driver/src/stm32f10x_tim.c ****   *     @arg TIM_FLAG_CC2OF: TIM Capture Compare 2 overcapture Flag
2535:../Library/STM32F10x_StdPeriph_Driver/src/stm32f10x_tim.c ****   *     @arg TIM_FLAG_CC3OF: TIM Capture Compare 3 overcapture Flag
2536:../Library/STM32F10x_StdPeriph_Driver/src/stm32f10x_tim.c ****   *     @arg TIM_FLAG_CC4OF: TIM Capture Compare 4 overcapture Flag
2537:../Library/STM32F10x_StdPeriph_Driver/src/stm32f10x_tim.c ****   * @note
2538:../Library/STM32F10x_StdPeriph_Driver/src/stm32f10x_tim.c ****   *   - TIM6 and TIM7 can have only one update flag. 
2539:../Library/STM32F10x_StdPeriph_Driver/src/stm32f10x_tim.c ****   *   - TIM9, TIM12 and TIM15 can have only TIM_FLAG_Update, TIM_FLAG_CC1,
2540:../Library/STM32F10x_StdPeriph_Driver/src/stm32f10x_tim.c ****   *      TIM_FLAG_CC2 or TIM_FLAG_Trigger. 
2541:../Library/STM32F10x_StdPeriph_Driver/src/stm32f10x_tim.c ****   *   - TIM10, TIM11, TIM13, TIM14, TIM16 and TIM17 can have TIM_FLAG_Update or TIM_FLAG_CC1.   
2542:../Library/STM32F10x_StdPeriph_Driver/src/stm32f10x_tim.c ****   *   - TIM_FLAG_Break is used only with TIM1, TIM8 and TIM15. 
2543:../Library/STM32F10x_StdPeriph_Driver/src/stm32f10x_tim.c ****   *   - TIM_FLAG_COM is used only with TIM1, TIM8, TIM15, TIM16 and TIM17.    
2544:../Library/STM32F10x_StdPeriph_Driver/src/stm32f10x_tim.c ****   * @retval The new state of TIM_FLAG (SET or RESET).
2545:../Library/STM32F10x_StdPeriph_Driver/src/stm32f10x_tim.c ****   */
2546:../Library/STM32F10x_StdPeriph_Driver/src/stm32f10x_tim.c **** FlagStatus TIM_GetFlagStatus(TIM_TypeDef* TIMx, uint16_t TIM_FLAG)
2547:../Library/STM32F10x_StdPeriph_Driver/src/stm32f10x_tim.c **** { 
 21287              		.loc 1 2547 0
 21288              		.cfi_startproc
 21289              		@ args = 0, pretend = 0, frame = 0
 21290              		@ frame_needed = 0, uses_anonymous_args = 0
 21291              		@ link register save eliminated.
 21292              	.LVL345:
2548:../Library/STM32F10x_StdPeriph_Driver/src/stm32f10x_tim.c ****   ITStatus bitstatus = RESET;  
2549:../Library/STM32F10x_StdPeriph_Driver/src/stm32f10x_tim.c ****   /* Check the parameters */
2550:../Library/STM32F10x_StdPeriph_Driver/src/stm32f10x_tim.c ****   assert_param(IS_TIM_ALL_PERIPH(TIMx));
2551:../Library/STM32F10x_StdPeriph_Driver/src/stm32f10x_tim.c ****   assert_param(IS_TIM_GET_FLAG(TIM_FLAG));
2552:../Library/STM32F10x_StdPeriph_Driver/src/stm32f10x_tim.c ****   
2553:../Library/STM32F10x_StdPeriph_Driver/src/stm32f10x_tim.c ****   if ((TIMx->SR & TIM_FLAG) != (uint16_t)RESET)
 21293              		.loc 1 2553 0
 21294 0000 038A     		ldrh	r3, [r0, #16]
 21295 0002 1942     		tst	r1, r3
2554:../Library/STM32F10x_StdPeriph_Driver/src/stm32f10x_tim.c ****   {
2555:../Library/STM32F10x_StdPeriph_Driver/src/stm32f10x_tim.c ****     bitstatus = SET;
2556:../Library/STM32F10x_StdPeriph_Driver/src/stm32f10x_tim.c ****   }
2557:../Library/STM32F10x_StdPeriph_Driver/src/stm32f10x_tim.c ****   else
2558:../Library/STM32F10x_StdPeriph_Driver/src/stm32f10x_tim.c ****   {
2559:../Library/STM32F10x_StdPeriph_Driver/src/stm32f10x_tim.c ****     bitstatus = RESET;
2560:../Library/STM32F10x_StdPeriph_Driver/src/stm32f10x_tim.c ****   }
2561:../Library/STM32F10x_StdPeriph_Driver/src/stm32f10x_tim.c ****   return bitstatus;
2562:../Library/STM32F10x_StdPeriph_Driver/src/stm32f10x_tim.c **** }
 21296              		.loc 1 2562 0
 21297 0004 0CBF     		ite	eq
 21298 0006 0020     		moveq	r0, #0
 21299 0008 0120     		movne	r0, #1
 21300              	.LVL346:
 21301 000a 7047     		bx	lr
 21302              		.cfi_endproc
 21303              	.LFE112:
 21305              		.section	.text.TIM_ClearFlag,"ax",%progbits
 21306              		.align	2
 21307              		.global	TIM_ClearFlag
 21308              		.thumb
 21309              		.thumb_func
 21311              	TIM_ClearFlag:
 21312              	.LFB113:
2563:../Library/STM32F10x_StdPeriph_Driver/src/stm32f10x_tim.c **** 
2564:../Library/STM32F10x_StdPeriph_Driver/src/stm32f10x_tim.c **** /**
2565:../Library/STM32F10x_StdPeriph_Driver/src/stm32f10x_tim.c ****   * @brief  Clears the TIMx's pending flags.
2566:../Library/STM32F10x_StdPeriph_Driver/src/stm32f10x_tim.c ****   * @param  TIMx: where x can be 1 to 17 to select the TIM peripheral.
2567:../Library/STM32F10x_StdPeriph_Driver/src/stm32f10x_tim.c ****   * @param  TIM_FLAG: specifies the flag bit to clear.
2568:../Library/STM32F10x_StdPeriph_Driver/src/stm32f10x_tim.c ****   *   This parameter can be any combination of the following values:
2569:../Library/STM32F10x_StdPeriph_Driver/src/stm32f10x_tim.c ****   *     @arg TIM_FLAG_Update: TIM update Flag
2570:../Library/STM32F10x_StdPeriph_Driver/src/stm32f10x_tim.c ****   *     @arg TIM_FLAG_CC1: TIM Capture Compare 1 Flag
2571:../Library/STM32F10x_StdPeriph_Driver/src/stm32f10x_tim.c ****   *     @arg TIM_FLAG_CC2: TIM Capture Compare 2 Flag
2572:../Library/STM32F10x_StdPeriph_Driver/src/stm32f10x_tim.c ****   *     @arg TIM_FLAG_CC3: TIM Capture Compare 3 Flag
2573:../Library/STM32F10x_StdPeriph_Driver/src/stm32f10x_tim.c ****   *     @arg TIM_FLAG_CC4: TIM Capture Compare 4 Flag
2574:../Library/STM32F10x_StdPeriph_Driver/src/stm32f10x_tim.c ****   *     @arg TIM_FLAG_COM: TIM Commutation Flag
2575:../Library/STM32F10x_StdPeriph_Driver/src/stm32f10x_tim.c ****   *     @arg TIM_FLAG_Trigger: TIM Trigger Flag
2576:../Library/STM32F10x_StdPeriph_Driver/src/stm32f10x_tim.c ****   *     @arg TIM_FLAG_Break: TIM Break Flag
2577:../Library/STM32F10x_StdPeriph_Driver/src/stm32f10x_tim.c ****   *     @arg TIM_FLAG_CC1OF: TIM Capture Compare 1 overcapture Flag
2578:../Library/STM32F10x_StdPeriph_Driver/src/stm32f10x_tim.c ****   *     @arg TIM_FLAG_CC2OF: TIM Capture Compare 2 overcapture Flag
2579:../Library/STM32F10x_StdPeriph_Driver/src/stm32f10x_tim.c ****   *     @arg TIM_FLAG_CC3OF: TIM Capture Compare 3 overcapture Flag
2580:../Library/STM32F10x_StdPeriph_Driver/src/stm32f10x_tim.c ****   *     @arg TIM_FLAG_CC4OF: TIM Capture Compare 4 overcapture Flag
2581:../Library/STM32F10x_StdPeriph_Driver/src/stm32f10x_tim.c ****   * @note
2582:../Library/STM32F10x_StdPeriph_Driver/src/stm32f10x_tim.c ****   *   - TIM6 and TIM7 can have only one update flag. 
2583:../Library/STM32F10x_StdPeriph_Driver/src/stm32f10x_tim.c ****   *   - TIM9, TIM12 and TIM15 can have only TIM_FLAG_Update, TIM_FLAG_CC1,
2584:../Library/STM32F10x_StdPeriph_Driver/src/stm32f10x_tim.c ****   *      TIM_FLAG_CC2 or TIM_FLAG_Trigger. 
2585:../Library/STM32F10x_StdPeriph_Driver/src/stm32f10x_tim.c ****   *   - TIM10, TIM11, TIM13, TIM14, TIM16 and TIM17 can have TIM_FLAG_Update or TIM_FLAG_CC1.   
2586:../Library/STM32F10x_StdPeriph_Driver/src/stm32f10x_tim.c ****   *   - TIM_FLAG_Break is used only with TIM1, TIM8 and TIM15. 
2587:../Library/STM32F10x_StdPeriph_Driver/src/stm32f10x_tim.c ****   *   - TIM_FLAG_COM is used only with TIM1, TIM8, TIM15, TIM16 and TIM17.   
2588:../Library/STM32F10x_StdPeriph_Driver/src/stm32f10x_tim.c ****   * @retval None
2589:../Library/STM32F10x_StdPeriph_Driver/src/stm32f10x_tim.c ****   */
2590:../Library/STM32F10x_StdPeriph_Driver/src/stm32f10x_tim.c **** void TIM_ClearFlag(TIM_TypeDef* TIMx, uint16_t TIM_FLAG)
2591:../Library/STM32F10x_StdPeriph_Driver/src/stm32f10x_tim.c **** {  
 21313              		.loc 1 2591 0
 21314              		.cfi_startproc
 21315              		@ args = 0, pretend = 0, frame = 0
 21316              		@ frame_needed = 0, uses_anonymous_args = 0
 21317              		@ link register save eliminated.
 21318              	.LVL347:
2592:../Library/STM32F10x_StdPeriph_Driver/src/stm32f10x_tim.c ****   /* Check the parameters */
2593:../Library/STM32F10x_StdPeriph_Driver/src/stm32f10x_tim.c ****   assert_param(IS_TIM_ALL_PERIPH(TIMx));
2594:../Library/STM32F10x_StdPeriph_Driver/src/stm32f10x_tim.c ****   assert_param(IS_TIM_CLEAR_FLAG(TIM_FLAG));
2595:../Library/STM32F10x_StdPeriph_Driver/src/stm32f10x_tim.c ****    
2596:../Library/STM32F10x_StdPeriph_Driver/src/stm32f10x_tim.c ****   /* Clear the flags */
2597:../Library/STM32F10x_StdPeriph_Driver/src/stm32f10x_tim.c ****   TIMx->SR = (uint16_t)~TIM_FLAG;
 21319              		.loc 1 2597 0
 21320 0000 6FEA0101 		mvn	r1, r1
 21321              	.LVL348:
 21322 0004 89B2     		uxth	r1, r1
 21323 0006 0182     		strh	r1, [r0, #16]	@ movhi
2598:../Library/STM32F10x_StdPeriph_Driver/src/stm32f10x_tim.c **** }
 21324              		.loc 1 2598 0
 21325 0008 7047     		bx	lr
 21326              		.cfi_endproc
 21327              	.LFE113:
 21329 000a 00BF     		.section	.text.TIM_GetITStatus,"ax",%progbits
 21330              		.align	2
 21331              		.global	TIM_GetITStatus
 21332              		.thumb
 21333              		.thumb_func
 21335              	TIM_GetITStatus:
 21336              	.LFB114:
2599:../Library/STM32F10x_StdPeriph_Driver/src/stm32f10x_tim.c **** 
2600:../Library/STM32F10x_StdPeriph_Driver/src/stm32f10x_tim.c **** /**
2601:../Library/STM32F10x_StdPeriph_Driver/src/stm32f10x_tim.c ****   * @brief  Checks whether the TIM interrupt has occurred or not.
2602:../Library/STM32F10x_StdPeriph_Driver/src/stm32f10x_tim.c ****   * @param  TIMx: where x can be 1 to 17 to select the TIM peripheral.
2603:../Library/STM32F10x_StdPeriph_Driver/src/stm32f10x_tim.c ****   * @param  TIM_IT: specifies the TIM interrupt source to check.
2604:../Library/STM32F10x_StdPeriph_Driver/src/stm32f10x_tim.c ****   *   This parameter can be one of the following values:
2605:../Library/STM32F10x_StdPeriph_Driver/src/stm32f10x_tim.c ****   *     @arg TIM_IT_Update: TIM update Interrupt source
2606:../Library/STM32F10x_StdPeriph_Driver/src/stm32f10x_tim.c ****   *     @arg TIM_IT_CC1: TIM Capture Compare 1 Interrupt source
2607:../Library/STM32F10x_StdPeriph_Driver/src/stm32f10x_tim.c ****   *     @arg TIM_IT_CC2: TIM Capture Compare 2 Interrupt source
2608:../Library/STM32F10x_StdPeriph_Driver/src/stm32f10x_tim.c ****   *     @arg TIM_IT_CC3: TIM Capture Compare 3 Interrupt source
2609:../Library/STM32F10x_StdPeriph_Driver/src/stm32f10x_tim.c ****   *     @arg TIM_IT_CC4: TIM Capture Compare 4 Interrupt source
2610:../Library/STM32F10x_StdPeriph_Driver/src/stm32f10x_tim.c ****   *     @arg TIM_IT_COM: TIM Commutation Interrupt source
2611:../Library/STM32F10x_StdPeriph_Driver/src/stm32f10x_tim.c ****   *     @arg TIM_IT_Trigger: TIM Trigger Interrupt source
2612:../Library/STM32F10x_StdPeriph_Driver/src/stm32f10x_tim.c ****   *     @arg TIM_IT_Break: TIM Break Interrupt source
2613:../Library/STM32F10x_StdPeriph_Driver/src/stm32f10x_tim.c ****   * @note
2614:../Library/STM32F10x_StdPeriph_Driver/src/stm32f10x_tim.c ****   *   - TIM6 and TIM7 can generate only an update interrupt.
2615:../Library/STM32F10x_StdPeriph_Driver/src/stm32f10x_tim.c ****   *   - TIM9, TIM12 and TIM15 can have only TIM_IT_Update, TIM_IT_CC1,
2616:../Library/STM32F10x_StdPeriph_Driver/src/stm32f10x_tim.c ****   *      TIM_IT_CC2 or TIM_IT_Trigger. 
2617:../Library/STM32F10x_StdPeriph_Driver/src/stm32f10x_tim.c ****   *   - TIM10, TIM11, TIM13, TIM14, TIM16 and TIM17 can have TIM_IT_Update or TIM_IT_CC1.   
2618:../Library/STM32F10x_StdPeriph_Driver/src/stm32f10x_tim.c ****   *   - TIM_IT_Break is used only with TIM1, TIM8 and TIM15. 
2619:../Library/STM32F10x_StdPeriph_Driver/src/stm32f10x_tim.c ****   *   - TIM_IT_COM is used only with TIM1, TIM8, TIM15, TIM16 and TIM17.  
2620:../Library/STM32F10x_StdPeriph_Driver/src/stm32f10x_tim.c ****   * @retval The new state of the TIM_IT(SET or RESET).
2621:../Library/STM32F10x_StdPeriph_Driver/src/stm32f10x_tim.c ****   */
2622:../Library/STM32F10x_StdPeriph_Driver/src/stm32f10x_tim.c **** ITStatus TIM_GetITStatus(TIM_TypeDef* TIMx, uint16_t TIM_IT)
2623:../Library/STM32F10x_StdPeriph_Driver/src/stm32f10x_tim.c **** {
 21337              		.loc 1 2623 0
 21338              		.cfi_startproc
 21339              		@ args = 0, pretend = 0, frame = 0
 21340              		@ frame_needed = 0, uses_anonymous_args = 0
 21341              		@ link register save eliminated.
 21342              	.LVL349:
2624:../Library/STM32F10x_StdPeriph_Driver/src/stm32f10x_tim.c ****   ITStatus bitstatus = RESET;  
2625:../Library/STM32F10x_StdPeriph_Driver/src/stm32f10x_tim.c ****   uint16_t itstatus = 0x0, itenable = 0x0;
2626:../Library/STM32F10x_StdPeriph_Driver/src/stm32f10x_tim.c ****   /* Check the parameters */
2627:../Library/STM32F10x_StdPeriph_Driver/src/stm32f10x_tim.c ****   assert_param(IS_TIM_ALL_PERIPH(TIMx));
2628:../Library/STM32F10x_StdPeriph_Driver/src/stm32f10x_tim.c ****   assert_param(IS_TIM_GET_IT(TIM_IT));
2629:../Library/STM32F10x_StdPeriph_Driver/src/stm32f10x_tim.c ****    
2630:../Library/STM32F10x_StdPeriph_Driver/src/stm32f10x_tim.c ****   itstatus = TIMx->SR & TIM_IT;
 21343              		.loc 1 2630 0
 21344 0000 028A     		ldrh	r2, [r0, #16]
2631:../Library/STM32F10x_StdPeriph_Driver/src/stm32f10x_tim.c ****   
2632:../Library/STM32F10x_StdPeriph_Driver/src/stm32f10x_tim.c ****   itenable = TIMx->DIER & TIM_IT;
 21345              		.loc 1 2632 0
 21346 0002 8389     		ldrh	r3, [r0, #12]
 21347 0004 1142     		tst	r1, r2
 21348 0006 0CBF     		ite	eq
 21349 0008 0020     		moveq	r0, #0
 21350 000a 0120     		movne	r0, #1
 21351              	.LVL350:
 21352 000c 1942     		tst	r1, r3
2633:../Library/STM32F10x_StdPeriph_Driver/src/stm32f10x_tim.c ****   if ((itstatus != (uint16_t)RESET) && (itenable != (uint16_t)RESET))
2634:../Library/STM32F10x_StdPeriph_Driver/src/stm32f10x_tim.c ****   {
2635:../Library/STM32F10x_StdPeriph_Driver/src/stm32f10x_tim.c ****     bitstatus = SET;
2636:../Library/STM32F10x_StdPeriph_Driver/src/stm32f10x_tim.c ****   }
2637:../Library/STM32F10x_StdPeriph_Driver/src/stm32f10x_tim.c ****   else
2638:../Library/STM32F10x_StdPeriph_Driver/src/stm32f10x_tim.c ****   {
2639:../Library/STM32F10x_StdPeriph_Driver/src/stm32f10x_tim.c ****     bitstatus = RESET;
2640:../Library/STM32F10x_StdPeriph_Driver/src/stm32f10x_tim.c ****   }
2641:../Library/STM32F10x_StdPeriph_Driver/src/stm32f10x_tim.c ****   return bitstatus;
2642:../Library/STM32F10x_StdPeriph_Driver/src/stm32f10x_tim.c **** }
 21353              		.loc 1 2642 0
 21354 000e 0CBF     		ite	eq
 21355 0010 0020     		moveq	r0, #0
 21356 0012 00F00100 		andne	r0, r0, #1
 21357 0016 7047     		bx	lr
 21358              		.cfi_endproc
 21359              	.LFE114:
 21361              		.section	.text.TIM_ClearITPendingBit,"ax",%progbits
 21362              		.align	2
 21363              		.global	TIM_ClearITPendingBit
 21364              		.thumb
 21365              		.thumb_func
 21367              	TIM_ClearITPendingBit:
 21368              	.LFB115:
2643:../Library/STM32F10x_StdPeriph_Driver/src/stm32f10x_tim.c **** 
2644:../Library/STM32F10x_StdPeriph_Driver/src/stm32f10x_tim.c **** /**
2645:../Library/STM32F10x_StdPeriph_Driver/src/stm32f10x_tim.c ****   * @brief  Clears the TIMx's interrupt pending bits.
2646:../Library/STM32F10x_StdPeriph_Driver/src/stm32f10x_tim.c ****   * @param  TIMx: where x can be 1 to 17 to select the TIM peripheral.
2647:../Library/STM32F10x_StdPeriph_Driver/src/stm32f10x_tim.c ****   * @param  TIM_IT: specifies the pending bit to clear.
2648:../Library/STM32F10x_StdPeriph_Driver/src/stm32f10x_tim.c ****   *   This parameter can be any combination of the following values:
2649:../Library/STM32F10x_StdPeriph_Driver/src/stm32f10x_tim.c ****   *     @arg TIM_IT_Update: TIM1 update Interrupt source
2650:../Library/STM32F10x_StdPeriph_Driver/src/stm32f10x_tim.c ****   *     @arg TIM_IT_CC1: TIM Capture Compare 1 Interrupt source
2651:../Library/STM32F10x_StdPeriph_Driver/src/stm32f10x_tim.c ****   *     @arg TIM_IT_CC2: TIM Capture Compare 2 Interrupt source
2652:../Library/STM32F10x_StdPeriph_Driver/src/stm32f10x_tim.c ****   *     @arg TIM_IT_CC3: TIM Capture Compare 3 Interrupt source
2653:../Library/STM32F10x_StdPeriph_Driver/src/stm32f10x_tim.c ****   *     @arg TIM_IT_CC4: TIM Capture Compare 4 Interrupt source
2654:../Library/STM32F10x_StdPeriph_Driver/src/stm32f10x_tim.c ****   *     @arg TIM_IT_COM: TIM Commutation Interrupt source
2655:../Library/STM32F10x_StdPeriph_Driver/src/stm32f10x_tim.c ****   *     @arg TIM_IT_Trigger: TIM Trigger Interrupt source
2656:../Library/STM32F10x_StdPeriph_Driver/src/stm32f10x_tim.c ****   *     @arg TIM_IT_Break: TIM Break Interrupt source
2657:../Library/STM32F10x_StdPeriph_Driver/src/stm32f10x_tim.c ****   * @note
2658:../Library/STM32F10x_StdPeriph_Driver/src/stm32f10x_tim.c ****   *   - TIM6 and TIM7 can generate only an update interrupt.
2659:../Library/STM32F10x_StdPeriph_Driver/src/stm32f10x_tim.c ****   *   - TIM9, TIM12 and TIM15 can have only TIM_IT_Update, TIM_IT_CC1,
2660:../Library/STM32F10x_StdPeriph_Driver/src/stm32f10x_tim.c ****   *      TIM_IT_CC2 or TIM_IT_Trigger. 
2661:../Library/STM32F10x_StdPeriph_Driver/src/stm32f10x_tim.c ****   *   - TIM10, TIM11, TIM13, TIM14, TIM16 and TIM17 can have TIM_IT_Update or TIM_IT_CC1.   
2662:../Library/STM32F10x_StdPeriph_Driver/src/stm32f10x_tim.c ****   *   - TIM_IT_Break is used only with TIM1, TIM8 and TIM15. 
2663:../Library/STM32F10x_StdPeriph_Driver/src/stm32f10x_tim.c ****   *   - TIM_IT_COM is used only with TIM1, TIM8, TIM15, TIM16 and TIM17.    
2664:../Library/STM32F10x_StdPeriph_Driver/src/stm32f10x_tim.c ****   * @retval None
2665:../Library/STM32F10x_StdPeriph_Driver/src/stm32f10x_tim.c ****   */
2666:../Library/STM32F10x_StdPeriph_Driver/src/stm32f10x_tim.c **** void TIM_ClearITPendingBit(TIM_TypeDef* TIMx, uint16_t TIM_IT)
2667:../Library/STM32F10x_StdPeriph_Driver/src/stm32f10x_tim.c **** {
 21369              		.loc 1 2667 0
 21370              		.cfi_startproc
 21371              		@ args = 0, pretend = 0, frame = 0
 21372              		@ frame_needed = 0, uses_anonymous_args = 0
 21373              		@ link register save eliminated.
 21374              	.LVL351:
2668:../Library/STM32F10x_StdPeriph_Driver/src/stm32f10x_tim.c ****   /* Check the parameters */
2669:../Library/STM32F10x_StdPeriph_Driver/src/stm32f10x_tim.c ****   assert_param(IS_TIM_ALL_PERIPH(TIMx));
2670:../Library/STM32F10x_StdPeriph_Driver/src/stm32f10x_tim.c ****   assert_param(IS_TIM_IT(TIM_IT));
2671:../Library/STM32F10x_StdPeriph_Driver/src/stm32f10x_tim.c ****   /* Clear the IT pending Bit */
2672:../Library/STM32F10x_StdPeriph_Driver/src/stm32f10x_tim.c ****   TIMx->SR = (uint16_t)~TIM_IT;
 21375              		.loc 1 2672 0
 21376 0000 6FEA0101 		mvn	r1, r1
 21377              	.LVL352:
 21378 0004 89B2     		uxth	r1, r1
 21379 0006 0182     		strh	r1, [r0, #16]	@ movhi
2673:../Library/STM32F10x_StdPeriph_Driver/src/stm32f10x_tim.c **** }
 21380              		.loc 1 2673 0
 21381 0008 7047     		bx	lr
 21382              		.cfi_endproc
 21383              	.LFE115:
 21385 000a 00BF     		.section	.text.TI1_Config,"ax",%progbits
 21386              		.align	2
 21387              		.thumb
 21388              		.thumb_func
 21390              	TI1_Config:
 21391              	.LFB116:
2674:../Library/STM32F10x_StdPeriph_Driver/src/stm32f10x_tim.c **** 
2675:../Library/STM32F10x_StdPeriph_Driver/src/stm32f10x_tim.c **** /**
2676:../Library/STM32F10x_StdPeriph_Driver/src/stm32f10x_tim.c ****   * @brief  Configure the TI1 as Input.
2677:../Library/STM32F10x_StdPeriph_Driver/src/stm32f10x_tim.c ****   * @param  TIMx: where x can be 1 to 17 except 6 and 7 to select the TIM peripheral.
2678:../Library/STM32F10x_StdPeriph_Driver/src/stm32f10x_tim.c ****   * @param  TIM_ICPolarity : The Input Polarity.
2679:../Library/STM32F10x_StdPeriph_Driver/src/stm32f10x_tim.c ****   *   This parameter can be one of the following values:
2680:../Library/STM32F10x_StdPeriph_Driver/src/stm32f10x_tim.c ****   *     @arg TIM_ICPolarity_Rising
2681:../Library/STM32F10x_StdPeriph_Driver/src/stm32f10x_tim.c ****   *     @arg TIM_ICPolarity_Falling
2682:../Library/STM32F10x_StdPeriph_Driver/src/stm32f10x_tim.c ****   * @param  TIM_ICSelection: specifies the input to be used.
2683:../Library/STM32F10x_StdPeriph_Driver/src/stm32f10x_tim.c ****   *   This parameter can be one of the following values:
2684:../Library/STM32F10x_StdPeriph_Driver/src/stm32f10x_tim.c ****   *     @arg TIM_ICSelection_DirectTI: TIM Input 1 is selected to be connected to IC1.
2685:../Library/STM32F10x_StdPeriph_Driver/src/stm32f10x_tim.c ****   *     @arg TIM_ICSelection_IndirectTI: TIM Input 1 is selected to be connected to IC2.
2686:../Library/STM32F10x_StdPeriph_Driver/src/stm32f10x_tim.c ****   *     @arg TIM_ICSelection_TRC: TIM Input 1 is selected to be connected to TRC.
2687:../Library/STM32F10x_StdPeriph_Driver/src/stm32f10x_tim.c ****   * @param  TIM_ICFilter: Specifies the Input Capture Filter.
2688:../Library/STM32F10x_StdPeriph_Driver/src/stm32f10x_tim.c ****   *   This parameter must be a value between 0x00 and 0x0F.
2689:../Library/STM32F10x_StdPeriph_Driver/src/stm32f10x_tim.c ****   * @retval None
2690:../Library/STM32F10x_StdPeriph_Driver/src/stm32f10x_tim.c ****   */
2691:../Library/STM32F10x_StdPeriph_Driver/src/stm32f10x_tim.c **** static void TI1_Config(TIM_TypeDef* TIMx, uint16_t TIM_ICPolarity, uint16_t TIM_ICSelection,
2692:../Library/STM32F10x_StdPeriph_Driver/src/stm32f10x_tim.c ****                        uint16_t TIM_ICFilter)
2693:../Library/STM32F10x_StdPeriph_Driver/src/stm32f10x_tim.c **** {
 21392              		.loc 1 2693 0
 21393              		.cfi_startproc
 21394              		@ args = 0, pretend = 0, frame = 0
 21395              		@ frame_needed = 0, uses_anonymous_args = 0
 21396              		@ link register save eliminated.
 21397              	.LVL353:
 21398 0000 10B4     		push	{r4}
 21399              	.LCFI10:
 21400              		.cfi_def_cfa_offset 4
2694:../Library/STM32F10x_StdPeriph_Driver/src/stm32f10x_tim.c ****   uint16_t tmpccmr1 = 0, tmpccer = 0;
2695:../Library/STM32F10x_StdPeriph_Driver/src/stm32f10x_tim.c ****   /* Disable the Channel 1: Reset the CC1E Bit */
2696:../Library/STM32F10x_StdPeriph_Driver/src/stm32f10x_tim.c ****   TIMx->CCER &= (uint16_t)~((uint16_t)TIM_CCER_CC1E);
 21401              		.loc 1 2696 0
 21402 0002 B0F820C0 		ldrh	ip, [r0, #32]
 21403 0006 2CF0010C 		bic	ip, ip, #1
 21404 000a 4FEA0C4C 		lsl	ip, ip, #16
 21405 000e 4FEA1C4C 		lsr	ip, ip, #16
 21406 0012 A0F820C0 		strh	ip, [r0, #32]	@ movhi
2697:../Library/STM32F10x_StdPeriph_Driver/src/stm32f10x_tim.c ****   tmpccmr1 = TIMx->CCMR1;
 21407              		.loc 1 2697 0
 21408 0016 B0F818C0 		ldrh	ip, [r0, #24]
2698:../Library/STM32F10x_StdPeriph_Driver/src/stm32f10x_tim.c ****   tmpccer = TIMx->CCER;
 21409              		.loc 1 2698 0
 21410 001a 048C     		ldrh	r4, [r0, #32]
 21411              		.cfi_offset 4, -4
2699:../Library/STM32F10x_StdPeriph_Driver/src/stm32f10x_tim.c ****   /* Select the Input and set the filter */
2700:../Library/STM32F10x_StdPeriph_Driver/src/stm32f10x_tim.c ****   tmpccmr1 &= (uint16_t)(((uint16_t)~((uint16_t)TIM_CCMR1_CC1S)) & ((uint16_t)~((uint16_t)TIM_CCMR1
2701:../Library/STM32F10x_StdPeriph_Driver/src/stm32f10x_tim.c ****   tmpccmr1 |= (uint16_t)(TIM_ICSelection | (uint16_t)(TIM_ICFilter << (uint16_t)4));
 21412              		.loc 1 2701 0
 21413 001c 2CF0F30C 		bic	ip, ip, #243
 21414 0020 4FEA0C4C 		lsl	ip, ip, #16
 21415 0024 4FEA1C4C 		lsr	ip, ip, #16
 21416 0028 4CEA020C 		orr	ip, ip, r2
 21417 002c 4CEA031C 		orr	ip, ip, r3, lsl #4
 21418 0030 1FFA8CFC 		uxth	ip, ip
 21419              	.LVL354:
2702:../Library/STM32F10x_StdPeriph_Driver/src/stm32f10x_tim.c ****   /* Select the Polarity and set the CC1E Bit */
2703:../Library/STM32F10x_StdPeriph_Driver/src/stm32f10x_tim.c ****   tmpccer &= (uint16_t)~((uint16_t)(TIM_CCER_CC1P));
2704:../Library/STM32F10x_StdPeriph_Driver/src/stm32f10x_tim.c ****   tmpccer |= (uint16_t)(TIM_ICPolarity | (uint16_t)TIM_CCER_CC1E);
 21420              		.loc 1 2704 0
 21421 0034 24F00304 		bic	r4, r4, #3
 21422 0038 4FEA0444 		lsl	r4, r4, #16
 21423 003c 4FEA1444 		lsr	r4, r4, #16
 21424 0040 44F00104 		orr	r4, r4, #1
 21425 0044 44EA0104 		orr	r4, r4, r1
 21426              	.LVL355:
2705:../Library/STM32F10x_StdPeriph_Driver/src/stm32f10x_tim.c ****   /* Write to TIMx CCMR1 and CCER registers */
2706:../Library/STM32F10x_StdPeriph_Driver/src/stm32f10x_tim.c ****   TIMx->CCMR1 = tmpccmr1;
 21427              		.loc 1 2706 0
 21428 0048 A0F818C0 		strh	ip, [r0, #24]	@ movhi
2707:../Library/STM32F10x_StdPeriph_Driver/src/stm32f10x_tim.c ****   TIMx->CCER = tmpccer;
 21429              		.loc 1 2707 0
 21430 004c 0484     		strh	r4, [r0, #32]	@ movhi
2708:../Library/STM32F10x_StdPeriph_Driver/src/stm32f10x_tim.c **** }
 21431              		.loc 1 2708 0
 21432 004e 10BC     		pop	{r4}
 21433 0050 7047     		bx	lr
 21434              		.cfi_endproc
 21435              	.LFE116:
 21437 0052 00BF     		.section	.text.TI2_Config,"ax",%progbits
 21438              		.align	2
 21439              		.thumb
 21440              		.thumb_func
 21442              	TI2_Config:
 21443              	.LFB117:
2709:../Library/STM32F10x_StdPeriph_Driver/src/stm32f10x_tim.c **** 
2710:../Library/STM32F10x_StdPeriph_Driver/src/stm32f10x_tim.c **** /**
2711:../Library/STM32F10x_StdPeriph_Driver/src/stm32f10x_tim.c ****   * @brief  Configure the TI2 as Input.
2712:../Library/STM32F10x_StdPeriph_Driver/src/stm32f10x_tim.c ****   * @param  TIMx: where x can be 1, 2, 3, 4, 5, 8, 9, 12 or 15 to select the TIM peripheral.
2713:../Library/STM32F10x_StdPeriph_Driver/src/stm32f10x_tim.c ****   * @param  TIM_ICPolarity : The Input Polarity.
2714:../Library/STM32F10x_StdPeriph_Driver/src/stm32f10x_tim.c ****   *   This parameter can be one of the following values:
2715:../Library/STM32F10x_StdPeriph_Driver/src/stm32f10x_tim.c ****   *     @arg TIM_ICPolarity_Rising
2716:../Library/STM32F10x_StdPeriph_Driver/src/stm32f10x_tim.c ****   *     @arg TIM_ICPolarity_Falling
2717:../Library/STM32F10x_StdPeriph_Driver/src/stm32f10x_tim.c ****   * @param  TIM_ICSelection: specifies the input to be used.
2718:../Library/STM32F10x_StdPeriph_Driver/src/stm32f10x_tim.c ****   *   This parameter can be one of the following values:
2719:../Library/STM32F10x_StdPeriph_Driver/src/stm32f10x_tim.c ****   *     @arg TIM_ICSelection_DirectTI: TIM Input 2 is selected to be connected to IC2.
2720:../Library/STM32F10x_StdPeriph_Driver/src/stm32f10x_tim.c ****   *     @arg TIM_ICSelection_IndirectTI: TIM Input 2 is selected to be connected to IC1.
2721:../Library/STM32F10x_StdPeriph_Driver/src/stm32f10x_tim.c ****   *     @arg TIM_ICSelection_TRC: TIM Input 2 is selected to be connected to TRC.
2722:../Library/STM32F10x_StdPeriph_Driver/src/stm32f10x_tim.c ****   * @param  TIM_ICFilter: Specifies the Input Capture Filter.
2723:../Library/STM32F10x_StdPeriph_Driver/src/stm32f10x_tim.c ****   *   This parameter must be a value between 0x00 and 0x0F.
2724:../Library/STM32F10x_StdPeriph_Driver/src/stm32f10x_tim.c ****   * @retval None
2725:../Library/STM32F10x_StdPeriph_Driver/src/stm32f10x_tim.c ****   */
2726:../Library/STM32F10x_StdPeriph_Driver/src/stm32f10x_tim.c **** static void TI2_Config(TIM_TypeDef* TIMx, uint16_t TIM_ICPolarity, uint16_t TIM_ICSelection,
2727:../Library/STM32F10x_StdPeriph_Driver/src/stm32f10x_tim.c ****                        uint16_t TIM_ICFilter)
2728:../Library/STM32F10x_StdPeriph_Driver/src/stm32f10x_tim.c **** {
 21444              		.loc 1 2728 0
 21445              		.cfi_startproc
 21446              		@ args = 0, pretend = 0, frame = 0
 21447              		@ frame_needed = 0, uses_anonymous_args = 0
 21448              		@ link register save eliminated.
 21449              	.LVL356:
 21450 0000 10B4     		push	{r4}
 21451              	.LCFI11:
 21452              		.cfi_def_cfa_offset 4
2729:../Library/STM32F10x_StdPeriph_Driver/src/stm32f10x_tim.c ****   uint16_t tmpccmr1 = 0, tmpccer = 0, tmp = 0;
2730:../Library/STM32F10x_StdPeriph_Driver/src/stm32f10x_tim.c ****   /* Disable the Channel 2: Reset the CC2E Bit */
2731:../Library/STM32F10x_StdPeriph_Driver/src/stm32f10x_tim.c ****   TIMx->CCER &= (uint16_t)~((uint16_t)TIM_CCER_CC2E);
 21453              		.loc 1 2731 0
 21454 0002 B0F820C0 		ldrh	ip, [r0, #32]
 21455 0006 2CF0100C 		bic	ip, ip, #16
 21456 000a 4FEA0C4C 		lsl	ip, ip, #16
 21457 000e 4FEA1C4C 		lsr	ip, ip, #16
 21458 0012 A0F820C0 		strh	ip, [r0, #32]	@ movhi
2732:../Library/STM32F10x_StdPeriph_Driver/src/stm32f10x_tim.c ****   tmpccmr1 = TIMx->CCMR1;
 21459              		.loc 1 2732 0
 21460 0016 B0F818C0 		ldrh	ip, [r0, #24]
2733:../Library/STM32F10x_StdPeriph_Driver/src/stm32f10x_tim.c ****   tmpccer = TIMx->CCER;
 21461              		.loc 1 2733 0
 21462 001a 048C     		ldrh	r4, [r0, #32]
 21463              		.cfi_offset 4, -4
2734:../Library/STM32F10x_StdPeriph_Driver/src/stm32f10x_tim.c ****   tmp = (uint16_t)(TIM_ICPolarity << 4);
2735:../Library/STM32F10x_StdPeriph_Driver/src/stm32f10x_tim.c ****   /* Select the Input and set the filter */
2736:../Library/STM32F10x_StdPeriph_Driver/src/stm32f10x_tim.c ****   tmpccmr1 &= (uint16_t)(((uint16_t)~((uint16_t)TIM_CCMR1_CC2S)) & ((uint16_t)~((uint16_t)TIM_CCMR1
 21464              		.loc 1 2736 0
 21465 001c 2CF4407C 		bic	ip, ip, #768
 21466              	.LVL357:
 21467 0020 4FEA0C5C 		lsl	ip, ip, #20
 21468              	.LVL358:
 21469 0024 4FEA1C5C 		lsr	ip, ip, #20
 21470              	.LVL359:
2737:../Library/STM32F10x_StdPeriph_Driver/src/stm32f10x_tim.c ****   tmpccmr1 |= (uint16_t)(TIM_ICFilter << 12);
 21471              		.loc 1 2737 0
 21472 0028 4CEA022C 		orr	ip, ip, r2, lsl #8
 21473              	.LVL360:
2738:../Library/STM32F10x_StdPeriph_Driver/src/stm32f10x_tim.c ****   tmpccmr1 |= (uint16_t)(TIM_ICSelection << 8);
 21474              		.loc 1 2738 0
 21475 002c 4CEA033C 		orr	ip, ip, r3, lsl #12
 21476              	.LVL361:
 21477 0030 1FFA8CFC 		uxth	ip, ip
 21478              	.LVL362:
2739:../Library/STM32F10x_StdPeriph_Driver/src/stm32f10x_tim.c ****   /* Select the Polarity and set the CC2E Bit */
2740:../Library/STM32F10x_StdPeriph_Driver/src/stm32f10x_tim.c ****    tmpccer &= (uint16_t)~((uint16_t)(TIM_CCER_CC2P));
2741:../Library/STM32F10x_StdPeriph_Driver/src/stm32f10x_tim.c ****   tmpccer |=  (uint16_t)(tmp | (uint16_t)TIM_CCER_CC2E);
 21479              		.loc 1 2741 0
 21480 0034 24F03004 		bic	r4, r4, #48
 21481 0038 4FEA0444 		lsl	r4, r4, #16
 21482 003c 4FEA1444 		lsr	r4, r4, #16
 21483 0040 44F01004 		orr	r4, r4, #16
 21484 0044 44EA0114 		orr	r4, r4, r1, lsl #4
 21485 0048 A4B2     		uxth	r4, r4
 21486              	.LVL363:
2742:../Library/STM32F10x_StdPeriph_Driver/src/stm32f10x_tim.c ****   /* Write to TIMx CCMR1 and CCER registers */
2743:../Library/STM32F10x_StdPeriph_Driver/src/stm32f10x_tim.c ****   TIMx->CCMR1 = tmpccmr1 ;
 21487              		.loc 1 2743 0
 21488 004a A0F818C0 		strh	ip, [r0, #24]	@ movhi
2744:../Library/STM32F10x_StdPeriph_Driver/src/stm32f10x_tim.c ****   TIMx->CCER = tmpccer;
 21489              		.loc 1 2744 0
 21490 004e 0484     		strh	r4, [r0, #32]	@ movhi
2745:../Library/STM32F10x_StdPeriph_Driver/src/stm32f10x_tim.c **** }
 21491              		.loc 1 2745 0
 21492 0050 10BC     		pop	{r4}
 21493 0052 7047     		bx	lr
 21494              		.cfi_endproc
 21495              	.LFE117:
 21497              		.section	.text.TIM_TIxExternalClockConfig,"ax",%progbits
 21498              		.align	2
 21499              		.global	TIM_TIxExternalClockConfig
 21500              		.thumb
 21501              		.thumb_func
 21503              	TIM_TIxExternalClockConfig:
 21504              	.LFB50:
 21505              		.loc 1 1027 0
 21506              		.cfi_startproc
 21507              		@ args = 0, pretend = 0, frame = 0
 21508              		@ frame_needed = 0, uses_anonymous_args = 0
 21509              	.LVL364:
 21510 0000 38B5     		push	{r3, r4, r5, lr}
 21511              	.LCFI12:
 21512              		.cfi_def_cfa_offset 16
 21513              	.LVL365:
 21514 0002 0446     		mov	r4, r0
 21515              		.cfi_offset 14, -4
 21516              		.cfi_offset 5, -8
 21517              		.cfi_offset 4, -12
 21518              		.cfi_offset 3, -16
 21519 0004 0D46     		mov	r5, r1
 21520              		.loc 1 1034 0
 21521 0006 6029     		cmp	r1, #96
 21522              		.loc 1 1036 0
 21523 0008 1146     		mov	r1, r2
 21524              	.LVL366:
 21525 000a 4FF00102 		mov	r2, #1
 21526              	.LVL367:
 21527              		.loc 1 1034 0
 21528 000e 02D1     		bne	.L206
 21529              	.LVL368:
 21530              		.loc 1 1036 0
 21531 0010 FFF7FEFF 		bl	TI2_Config
 21532 0014 01E0     		b	.L207
 21533              	.LVL369:
 21534              	.L206:
 21535              		.loc 1 1040 0
 21536 0016 FFF7FEFF 		bl	TI1_Config
 21537              	.L207:
 21538              		.loc 1 1043 0
 21539 001a 2046     		mov	r0, r4
 21540 001c 2946     		mov	r1, r5
 21541 001e FFF7FEFF 		bl	TIM_SelectInputTrigger
 21542              		.loc 1 1045 0
 21543 0022 2389     		ldrh	r3, [r4, #8]
 21544 0024 9BB2     		uxth	r3, r3
 21545 0026 43F00703 		orr	r3, r3, #7
 21546 002a 2381     		strh	r3, [r4, #8]	@ movhi
 21547              		.loc 1 1046 0
 21548 002c 38BD     		pop	{r3, r4, r5, pc}
 21549              		.cfi_endproc
 21550              	.LFE50:
 21552 002e 00BF     		.section	.text.TIM_PWMIConfig,"ax",%progbits
 21553              		.align	2
 21554              		.global	TIM_PWMIConfig
 21555              		.thumb
 21556              		.thumb_func
 21558              	TIM_PWMIConfig:
 21559              	.LFB36:
 21560              		.loc 1 645 0
 21561              		.cfi_startproc
 21562              		@ args = 0, pretend = 0, frame = 0
 21563              		@ frame_needed = 0, uses_anonymous_args = 0
 21564              	.LVL370:
 21565 0000 F8B5     		push	{r3, r4, r5, r6, r7, lr}
 21566              	.LCFI13:
 21567              		.cfi_def_cfa_offset 24
 21568 0002 0546     		mov	r5, r0
 21569              		.cfi_offset 14, -4
 21570              		.cfi_offset 7, -8
 21571              		.cfi_offset 6, -12
 21572              		.cfi_offset 5, -16
 21573              		.cfi_offset 4, -20
 21574              		.cfi_offset 3, -24
 21575 0004 0C46     		mov	r4, r1
 21576              		.loc 1 651 0
 21577 0006 4988     		ldrh	r1, [r1, #2]
 21578              	.LVL371:
 21579 0008 0029     		cmp	r1, #0
 21580 000a 0CBF     		ite	eq
 21581 000c 0226     		moveq	r6, #2
 21582 000e 0026     		movne	r6, #0
 21583              	.LVL372:
 21584              		.loc 1 660 0
 21585 0010 A288     		ldrh	r2, [r4, #4]
 21586 0012 012A     		cmp	r2, #1
 21587 0014 0CBF     		ite	eq
 21588 0016 0227     		moveq	r7, #2
 21589 0018 0127     		movne	r7, #1
 21590              	.LVL373:
 21591              		.loc 1 668 0
 21592 001a 2388     		ldrh	r3, [r4, #0]
 21593 001c 8BB9     		cbnz	r3, .L214
 21594              	.LVL374:
 21595              		.loc 1 671 0
 21596 001e 2389     		ldrh	r3, [r4, #8]
 21597 0020 FFF7FEFF 		bl	TI1_Config
 21598              		.loc 1 674 0
 21599 0024 2846     		mov	r0, r5
 21600 0026 E188     		ldrh	r1, [r4, #6]
 21601 0028 FFF7FEFF 		bl	TIM_SetIC1Prescaler
 21602              		.loc 1 676 0
 21603 002c 2846     		mov	r0, r5
 21604 002e 3146     		mov	r1, r6
 21605 0030 3A46     		mov	r2, r7
 21606 0032 2389     		ldrh	r3, [r4, #8]
 21607 0034 FFF7FEFF 		bl	TI2_Config
 21608              		.loc 1 678 0
 21609 0038 2846     		mov	r0, r5
 21610 003a E188     		ldrh	r1, [r4, #6]
 21611 003c FFF7FEFF 		bl	TIM_SetIC2Prescaler
 21612 0040 F8BD     		pop	{r3, r4, r5, r6, r7, pc}
 21613              	.LVL375:
 21614              	.L214:
 21615              		.loc 1 683 0
 21616 0042 2389     		ldrh	r3, [r4, #8]
 21617 0044 FFF7FEFF 		bl	TI2_Config
 21618              		.loc 1 686 0
 21619 0048 2846     		mov	r0, r5
 21620 004a E188     		ldrh	r1, [r4, #6]
 21621 004c FFF7FEFF 		bl	TIM_SetIC2Prescaler
 21622              		.loc 1 688 0
 21623 0050 2846     		mov	r0, r5
 21624 0052 3146     		mov	r1, r6
 21625 0054 3A46     		mov	r2, r7
 21626 0056 2389     		ldrh	r3, [r4, #8]
 21627 0058 FFF7FEFF 		bl	TI1_Config
 21628              		.loc 1 690 0
 21629 005c 2846     		mov	r0, r5
 21630 005e E188     		ldrh	r1, [r4, #6]
 21631 0060 FFF7FEFF 		bl	TIM_SetIC1Prescaler
 21632 0064 F8BD     		pop	{r3, r4, r5, r6, r7, pc}
 21633              		.cfi_endproc
 21634              	.LFE36:
 21636 0066 00BF     		.section	.text.TIM_ICInit,"ax",%progbits
 21637              		.align	2
 21638              		.global	TIM_ICInit
 21639              		.thumb
 21640              		.thumb_func
 21642              	TIM_ICInit:
 21643              	.LFB35:
 21644              		.loc 1 586 0
 21645              		.cfi_startproc
 21646              		@ args = 0, pretend = 0, frame = 0
 21647              		@ frame_needed = 0, uses_anonymous_args = 0
 21648              	.LVL376:
 21649 0000 38B5     		push	{r3, r4, r5, lr}
 21650              	.LCFI14:
 21651              		.cfi_def_cfa_offset 16
 21652 0002 0446     		mov	r4, r0
 21653              		.cfi_offset 14, -4
 21654              		.cfi_offset 5, -8
 21655              		.cfi_offset 4, -12
 21656              		.cfi_offset 3, -16
 21657 0004 0D46     		mov	r5, r1
 21658              		.loc 1 594 0
 21659 0006 0B88     		ldrh	r3, [r1, #0]
 21660 0008 4BB9     		cbnz	r3, .L218
 21661              	.LVL377:
 21662              		.loc 1 598 0
 21663 000a 4988     		ldrh	r1, [r1, #2]
 21664              	.LVL378:
 21665 000c AA88     		ldrh	r2, [r5, #4]
 21666 000e 2B89     		ldrh	r3, [r5, #8]
 21667 0010 FFF7FEFF 		bl	TI1_Config
 21668              		.loc 1 602 0
 21669 0014 2046     		mov	r0, r4
 21670 0016 E988     		ldrh	r1, [r5, #6]
 21671 0018 FFF7FEFF 		bl	TIM_SetIC1Prescaler
 21672 001c 38BD     		pop	{r3, r4, r5, pc}
 21673              	.LVL379:
 21674              	.L218:
 21675              		.loc 1 604 0
 21676 001e 042B     		cmp	r3, #4
 21677 0020 09D1     		bne	.L220
 21678              		.loc 1 608 0
 21679 0022 4988     		ldrh	r1, [r1, #2]
 21680              	.LVL380:
 21681 0024 AA88     		ldrh	r2, [r5, #4]
 21682 0026 2B89     		ldrh	r3, [r5, #8]
 21683 0028 FFF7FEFF 		bl	TI2_Config
 21684              		.loc 1 612 0
 21685 002c 2046     		mov	r0, r4
 21686 002e E988     		ldrh	r1, [r5, #6]
 21687 0030 FFF7FEFF 		bl	TIM_SetIC2Prescaler
 21688 0034 38BD     		pop	{r3, r4, r5, pc}
 21689              	.LVL381:
 21690              	.L220:
 21691              		.loc 1 614 0
 21692 0036 082B     		cmp	r3, #8
 21693              		.loc 1 618 0
 21694 0038 4988     		ldrh	r1, [r1, #2]
 21695              	.LVL382:
 21696              		.loc 1 614 0
 21697 003a 21D1     		bne	.L221
 21698              		.loc 1 618 0
 21699 003c A888     		ldrh	r0, [r5, #4]
 21700 003e B5F808C0 		ldrh	ip, [r5, #8]
 21701              	.LBB6:
 21702              	.LBB7:
2746:../Library/STM32F10x_StdPeriph_Driver/src/stm32f10x_tim.c **** 
2747:../Library/STM32F10x_StdPeriph_Driver/src/stm32f10x_tim.c **** /**
2748:../Library/STM32F10x_StdPeriph_Driver/src/stm32f10x_tim.c ****   * @brief  Configure the TI3 as Input.
2749:../Library/STM32F10x_StdPeriph_Driver/src/stm32f10x_tim.c ****   * @param  TIMx: where x can be 1, 2, 3, 4, 5 or 8 to select the TIM peripheral.
2750:../Library/STM32F10x_StdPeriph_Driver/src/stm32f10x_tim.c ****   * @param  TIM_ICPolarity : The Input Polarity.
2751:../Library/STM32F10x_StdPeriph_Driver/src/stm32f10x_tim.c ****   *   This parameter can be one of the following values:
2752:../Library/STM32F10x_StdPeriph_Driver/src/stm32f10x_tim.c ****   *     @arg TIM_ICPolarity_Rising
2753:../Library/STM32F10x_StdPeriph_Driver/src/stm32f10x_tim.c ****   *     @arg TIM_ICPolarity_Falling
2754:../Library/STM32F10x_StdPeriph_Driver/src/stm32f10x_tim.c ****   * @param  TIM_ICSelection: specifies the input to be used.
2755:../Library/STM32F10x_StdPeriph_Driver/src/stm32f10x_tim.c ****   *   This parameter can be one of the following values:
2756:../Library/STM32F10x_StdPeriph_Driver/src/stm32f10x_tim.c ****   *     @arg TIM_ICSelection_DirectTI: TIM Input 3 is selected to be connected to IC3.
2757:../Library/STM32F10x_StdPeriph_Driver/src/stm32f10x_tim.c ****   *     @arg TIM_ICSelection_IndirectTI: TIM Input 3 is selected to be connected to IC4.
2758:../Library/STM32F10x_StdPeriph_Driver/src/stm32f10x_tim.c ****   *     @arg TIM_ICSelection_TRC: TIM Input 3 is selected to be connected to TRC.
2759:../Library/STM32F10x_StdPeriph_Driver/src/stm32f10x_tim.c ****   * @param  TIM_ICFilter: Specifies the Input Capture Filter.
2760:../Library/STM32F10x_StdPeriph_Driver/src/stm32f10x_tim.c ****   *   This parameter must be a value between 0x00 and 0x0F.
2761:../Library/STM32F10x_StdPeriph_Driver/src/stm32f10x_tim.c ****   * @retval None
2762:../Library/STM32F10x_StdPeriph_Driver/src/stm32f10x_tim.c ****   */
2763:../Library/STM32F10x_StdPeriph_Driver/src/stm32f10x_tim.c **** static void TI3_Config(TIM_TypeDef* TIMx, uint16_t TIM_ICPolarity, uint16_t TIM_ICSelection,
2764:../Library/STM32F10x_StdPeriph_Driver/src/stm32f10x_tim.c ****                        uint16_t TIM_ICFilter)
2765:../Library/STM32F10x_StdPeriph_Driver/src/stm32f10x_tim.c **** {
2766:../Library/STM32F10x_StdPeriph_Driver/src/stm32f10x_tim.c ****   uint16_t tmpccmr2 = 0, tmpccer = 0, tmp = 0;
2767:../Library/STM32F10x_StdPeriph_Driver/src/stm32f10x_tim.c ****   /* Disable the Channel 3: Reset the CC3E Bit */
2768:../Library/STM32F10x_StdPeriph_Driver/src/stm32f10x_tim.c ****   TIMx->CCER &= (uint16_t)~((uint16_t)TIM_CCER_CC3E);
 21703              		.loc 1 2768 0
 21704 0042 238C     		ldrh	r3, [r4, #32]
 21705 0044 23F48073 		bic	r3, r3, #256
 21706 0048 4FEA0343 		lsl	r3, r3, #16
 21707 004c 4FEA1343 		lsr	r3, r3, #16
 21708 0050 2384     		strh	r3, [r4, #32]	@ movhi
2769:../Library/STM32F10x_StdPeriph_Driver/src/stm32f10x_tim.c ****   tmpccmr2 = TIMx->CCMR2;
 21709              		.loc 1 2769 0
 21710 0052 A28B     		ldrh	r2, [r4, #28]
2770:../Library/STM32F10x_StdPeriph_Driver/src/stm32f10x_tim.c ****   tmpccer = TIMx->CCER;
 21711              		.loc 1 2770 0
 21712 0054 238C     		ldrh	r3, [r4, #32]
2771:../Library/STM32F10x_StdPeriph_Driver/src/stm32f10x_tim.c ****   tmp = (uint16_t)(TIM_ICPolarity << 8);
2772:../Library/STM32F10x_StdPeriph_Driver/src/stm32f10x_tim.c ****   /* Select the Input and set the filter */
2773:../Library/STM32F10x_StdPeriph_Driver/src/stm32f10x_tim.c ****   tmpccmr2 &= (uint16_t)(((uint16_t)~((uint16_t)TIM_CCMR2_CC3S)) & ((uint16_t)~((uint16_t)TIM_CCMR2
2774:../Library/STM32F10x_StdPeriph_Driver/src/stm32f10x_tim.c ****   tmpccmr2 |= (uint16_t)(TIM_ICSelection | (uint16_t)(TIM_ICFilter << (uint16_t)4));
 21713              		.loc 1 2774 0
 21714 0056 22F0F302 		bic	r2, r2, #243
 21715 005a 42EA0C12 		orr	r2, r2, ip, lsl #4
 21716 005e 92B2     		uxth	r2, r2
 21717 0060 42EA0002 		orr	r2, r2, r0
 21718              	.LVL383:
2775:../Library/STM32F10x_StdPeriph_Driver/src/stm32f10x_tim.c ****   /* Select the Polarity and set the CC3E Bit */
2776:../Library/STM32F10x_StdPeriph_Driver/src/stm32f10x_tim.c ****   tmpccer &= (uint16_t)~((uint16_t)(TIM_CCER_CC3P));
2777:../Library/STM32F10x_StdPeriph_Driver/src/stm32f10x_tim.c ****   tmpccer |= (uint16_t)(tmp | (uint16_t)TIM_CCER_CC3E);
 21719              		.loc 1 2777 0
 21720 0064 23F40073 		bic	r3, r3, #512
 21721 0068 43EA0123 		orr	r3, r3, r1, lsl #8
 21722 006c 9BB2     		uxth	r3, r3
 21723 006e 43F48073 		orr	r3, r3, #256
 21724              	.LVL384:
2778:../Library/STM32F10x_StdPeriph_Driver/src/stm32f10x_tim.c ****   /* Write to TIMx CCMR2 and CCER registers */
2779:../Library/STM32F10x_StdPeriph_Driver/src/stm32f10x_tim.c ****   TIMx->CCMR2 = tmpccmr2;
 21725              		.loc 1 2779 0
 21726 0072 A283     		strh	r2, [r4, #28]	@ movhi
2780:../Library/STM32F10x_StdPeriph_Driver/src/stm32f10x_tim.c ****   TIMx->CCER = tmpccer;
 21727              		.loc 1 2780 0
 21728 0074 2384     		strh	r3, [r4, #32]	@ movhi
 21729              	.LBE7:
 21730              	.LBE6:
 21731              		.loc 1 622 0
 21732 0076 2046     		mov	r0, r4
 21733 0078 E988     		ldrh	r1, [r5, #6]
 21734 007a FFF7FEFF 		bl	TIM_SetIC3Prescaler
 21735              	.LVL385:
 21736 007e 38BD     		pop	{r3, r4, r5, pc}
 21737              	.LVL386:
 21738              	.L221:
 21739              		.loc 1 628 0
 21740 0080 B5F804C0 		ldrh	ip, [r5, #4]
 21741 0084 2889     		ldrh	r0, [r5, #8]
 21742              	.LBB8:
 21743              	.LBB9:
2781:../Library/STM32F10x_StdPeriph_Driver/src/stm32f10x_tim.c **** }
2782:../Library/STM32F10x_StdPeriph_Driver/src/stm32f10x_tim.c **** 
2783:../Library/STM32F10x_StdPeriph_Driver/src/stm32f10x_tim.c **** /**
2784:../Library/STM32F10x_StdPeriph_Driver/src/stm32f10x_tim.c ****   * @brief  Configure the TI1 as Input.
2785:../Library/STM32F10x_StdPeriph_Driver/src/stm32f10x_tim.c ****   * @param  TIMx: where x can be 1, 2, 3, 4, 5 or 8 to select the TIM peripheral.
2786:../Library/STM32F10x_StdPeriph_Driver/src/stm32f10x_tim.c ****   * @param  TIM_ICPolarity : The Input Polarity.
2787:../Library/STM32F10x_StdPeriph_Driver/src/stm32f10x_tim.c ****   *   This parameter can be one of the following values:
2788:../Library/STM32F10x_StdPeriph_Driver/src/stm32f10x_tim.c ****   *     @arg TIM_ICPolarity_Rising
2789:../Library/STM32F10x_StdPeriph_Driver/src/stm32f10x_tim.c ****   *     @arg TIM_ICPolarity_Falling
2790:../Library/STM32F10x_StdPeriph_Driver/src/stm32f10x_tim.c ****   * @param  TIM_ICSelection: specifies the input to be used.
2791:../Library/STM32F10x_StdPeriph_Driver/src/stm32f10x_tim.c ****   *   This parameter can be one of the following values:
2792:../Library/STM32F10x_StdPeriph_Driver/src/stm32f10x_tim.c ****   *     @arg TIM_ICSelection_DirectTI: TIM Input 4 is selected to be connected to IC4.
2793:../Library/STM32F10x_StdPeriph_Driver/src/stm32f10x_tim.c ****   *     @arg TIM_ICSelection_IndirectTI: TIM Input 4 is selected to be connected to IC3.
2794:../Library/STM32F10x_StdPeriph_Driver/src/stm32f10x_tim.c ****   *     @arg TIM_ICSelection_TRC: TIM Input 4 is selected to be connected to TRC.
2795:../Library/STM32F10x_StdPeriph_Driver/src/stm32f10x_tim.c ****   * @param  TIM_ICFilter: Specifies the Input Capture Filter.
2796:../Library/STM32F10x_StdPeriph_Driver/src/stm32f10x_tim.c ****   *   This parameter must be a value between 0x00 and 0x0F.
2797:../Library/STM32F10x_StdPeriph_Driver/src/stm32f10x_tim.c ****   * @retval None
2798:../Library/STM32F10x_StdPeriph_Driver/src/stm32f10x_tim.c ****   */
2799:../Library/STM32F10x_StdPeriph_Driver/src/stm32f10x_tim.c **** static void TI4_Config(TIM_TypeDef* TIMx, uint16_t TIM_ICPolarity, uint16_t TIM_ICSelection,
2800:../Library/STM32F10x_StdPeriph_Driver/src/stm32f10x_tim.c ****                        uint16_t TIM_ICFilter)
2801:../Library/STM32F10x_StdPeriph_Driver/src/stm32f10x_tim.c **** {
2802:../Library/STM32F10x_StdPeriph_Driver/src/stm32f10x_tim.c ****   uint16_t tmpccmr2 = 0, tmpccer = 0, tmp = 0;
2803:../Library/STM32F10x_StdPeriph_Driver/src/stm32f10x_tim.c **** 
2804:../Library/STM32F10x_StdPeriph_Driver/src/stm32f10x_tim.c ****    /* Disable the Channel 4: Reset the CC4E Bit */
2805:../Library/STM32F10x_StdPeriph_Driver/src/stm32f10x_tim.c ****   TIMx->CCER &= (uint16_t)~((uint16_t)TIM_CCER_CC4E);
 21744              		.loc 1 2805 0
 21745 0086 228C     		ldrh	r2, [r4, #32]
 21746 0088 22F48052 		bic	r2, r2, #4096
 21747 008c 4FEA0242 		lsl	r2, r2, #16
 21748 0090 4FEA1242 		lsr	r2, r2, #16
 21749 0094 2284     		strh	r2, [r4, #32]	@ movhi
2806:../Library/STM32F10x_StdPeriph_Driver/src/stm32f10x_tim.c ****   tmpccmr2 = TIMx->CCMR2;
 21750              		.loc 1 2806 0
 21751 0096 A38B     		ldrh	r3, [r4, #28]
2807:../Library/STM32F10x_StdPeriph_Driver/src/stm32f10x_tim.c ****   tmpccer = TIMx->CCER;
 21752              		.loc 1 2807 0
 21753 0098 228C     		ldrh	r2, [r4, #32]
2808:../Library/STM32F10x_StdPeriph_Driver/src/stm32f10x_tim.c ****   tmp = (uint16_t)(TIM_ICPolarity << 12);
2809:../Library/STM32F10x_StdPeriph_Driver/src/stm32f10x_tim.c ****   /* Select the Input and set the filter */
2810:../Library/STM32F10x_StdPeriph_Driver/src/stm32f10x_tim.c ****   tmpccmr2 &= (uint16_t)((uint16_t)(~(uint16_t)TIM_CCMR2_CC4S) & ((uint16_t)~((uint16_t)TIM_CCMR2_I
 21754              		.loc 1 2810 0
 21755 009a 23F44073 		bic	r3, r3, #768
 21756              	.LVL387:
 21757 009e 4FEA0353 		lsl	r3, r3, #20
 21758              	.LVL388:
 21759 00a2 4FEA1353 		lsr	r3, r3, #20
 21760              	.LVL389:
2811:../Library/STM32F10x_StdPeriph_Driver/src/stm32f10x_tim.c ****   tmpccmr2 |= (uint16_t)(TIM_ICSelection << 8);
 21761              		.loc 1 2811 0
 21762 00a6 43EA0C23 		orr	r3, r3, ip, lsl #8
 21763              	.LVL390:
2812:../Library/STM32F10x_StdPeriph_Driver/src/stm32f10x_tim.c ****   tmpccmr2 |= (uint16_t)(TIM_ICFilter << 12);
 21764              		.loc 1 2812 0
 21765 00aa 43EA0033 		orr	r3, r3, r0, lsl #12
 21766              	.LVL391:
 21767 00ae 9BB2     		uxth	r3, r3
 21768              	.LVL392:
2813:../Library/STM32F10x_StdPeriph_Driver/src/stm32f10x_tim.c **** 
2814:../Library/STM32F10x_StdPeriph_Driver/src/stm32f10x_tim.c ****   /* Select the Polarity and set the CC4E Bit */
2815:../Library/STM32F10x_StdPeriph_Driver/src/stm32f10x_tim.c ****   tmpccer &= (uint16_t)~((uint16_t)(TIM_CCER_CC4P));
2816:../Library/STM32F10x_StdPeriph_Driver/src/stm32f10x_tim.c ****   tmpccer |= (uint16_t)(tmp | (uint16_t)TIM_CCER_CC4E);
 21769              		.loc 1 2816 0
 21770 00b0 22F40052 		bic	r2, r2, #8192
 21771 00b4 42EA0132 		orr	r2, r2, r1, lsl #12
 21772 00b8 92B2     		uxth	r2, r2
 21773 00ba 42F48052 		orr	r2, r2, #4096
 21774              	.LVL393:
2817:../Library/STM32F10x_StdPeriph_Driver/src/stm32f10x_tim.c ****   /* Write to TIMx CCMR2 and CCER registers */
2818:../Library/STM32F10x_StdPeriph_Driver/src/stm32f10x_tim.c ****   TIMx->CCMR2 = tmpccmr2;
 21775              		.loc 1 2818 0
 21776 00be A383     		strh	r3, [r4, #28]	@ movhi
2819:../Library/STM32F10x_StdPeriph_Driver/src/stm32f10x_tim.c ****   TIMx->CCER = tmpccer;
 21777              		.loc 1 2819 0
 21778 00c0 2284     		strh	r2, [r4, #32]	@ movhi
 21779              	.LBE9:
 21780              	.LBE8:
 21781              		.loc 1 632 0
 21782 00c2 2046     		mov	r0, r4
 21783 00c4 E988     		ldrh	r1, [r5, #6]
 21784 00c6 FFF7FEFF 		bl	TIM_SetIC4Prescaler
 21785              	.LVL394:
 21786 00ca 38BD     		pop	{r3, r4, r5, pc}
 21787              		.cfi_endproc
 21788              	.LFE35:
 21790              		.section	.text.TIM_DeInit,"ax",%progbits
 21791              		.align	2
 21792              		.global	TIM_DeInit
 21793              		.thumb
 21794              		.thumb_func
 21796              	TIM_DeInit:
 21797              	.LFB29:
 21798              		.loc 1 122 0
 21799              		.cfi_startproc
 21800              		@ args = 0, pretend = 0, frame = 0
 21801              		@ frame_needed = 0, uses_anonymous_args = 0
 21802              	.LVL395:
 21803 0000 08B5     		push	{r3, lr}
 21804              	.LCFI15:
 21805              		.cfi_def_cfa_offset 8
 21806              		.loc 1 126 0
 21807 0002 42F60043 		movw	r3, #:lower16:1073818624
 21808              		.cfi_offset 14, -4
 21809              		.cfi_offset 3, -8
 21810 0006 C4F20103 		movt	r3, #:upper16:1073818624
 21811 000a 9842     		cmp	r0, r3
 21812 000c 0CD1     		bne	.L224
 21813              		.loc 1 128 0
 21814 000e 4FF40060 		mov	r0, #2048
 21815              	.LVL396:
 21816 0012 4FF00101 		mov	r1, #1
 21817 0016 FFF7FEFF 		bl	RCC_APB2PeriphResetCmd
 21818              		.loc 1 129 0
 21819 001a 4FF40060 		mov	r0, #2048
 21820 001e 4FF00001 		mov	r1, #0
 21821 0022 FFF7FEFF 		bl	RCC_APB2PeriphResetCmd
 21822 0026 08BD     		pop	{r3, pc}
 21823              	.LVL397:
 21824              	.L224:
 21825              		.loc 1 131 0
 21826 0028 B0F1804F 		cmp	r0, #1073741824
 21827 002c 0BD1     		bne	.L226
 21828              		.loc 1 133 0
 21829 002e 4FF00100 		mov	r0, #1
 21830              	.LVL398:
 21831 0032 0146     		mov	r1, r0
 21832 0034 FFF7FEFF 		bl	RCC_APB1PeriphResetCmd
 21833              		.loc 1 134 0
 21834 0038 4FF00100 		mov	r0, #1
 21835 003c 4FF00001 		mov	r1, #0
 21836 0040 FFF7FEFF 		bl	RCC_APB1PeriphResetCmd
 21837 0044 08BD     		pop	{r3, pc}
 21838              	.LVL399:
 21839              	.L226:
 21840              		.loc 1 136 0
 21841 0046 40F20043 		movw	r3, #:lower16:1073742848
 21842 004a C4F20003 		movt	r3, #:upper16:1073742848
 21843 004e 9842     		cmp	r0, r3
 21844 0050 0CD1     		bne	.L227
 21845              		.loc 1 138 0
 21846 0052 4FF00200 		mov	r0, #2
 21847              	.LVL400:
 21848 0056 4FF00101 		mov	r1, #1
 21849 005a FFF7FEFF 		bl	RCC_APB1PeriphResetCmd
 21850              		.loc 1 139 0
 21851 005e 4FF00200 		mov	r0, #2
 21852 0062 4FF00001 		mov	r1, #0
 21853 0066 FFF7FEFF 		bl	RCC_APB1PeriphResetCmd
 21854 006a 08BD     		pop	{r3, pc}
 21855              	.LVL401:
 21856              	.L227:
 21857              		.loc 1 141 0
 21858 006c 40F60003 		movw	r3, #:lower16:1073743872
 21859 0070 C4F20003 		movt	r3, #:upper16:1073743872
 21860 0074 9842     		cmp	r0, r3
 21861 0076 0CD1     		bne	.L228
 21862              		.loc 1 143 0
 21863 0078 4FF00400 		mov	r0, #4
 21864              	.LVL402:
 21865 007c 4FF00101 		mov	r1, #1
 21866 0080 FFF7FEFF 		bl	RCC_APB1PeriphResetCmd
 21867              		.loc 1 144 0
 21868 0084 4FF00400 		mov	r0, #4
 21869 0088 4FF00001 		mov	r1, #0
 21870 008c FFF7FEFF 		bl	RCC_APB1PeriphResetCmd
 21871 0090 08BD     		pop	{r3, pc}
 21872              	.LVL403:
 21873              	.L228:
 21874              		.loc 1 146 0
 21875 0092 40F60043 		movw	r3, #:lower16:1073744896
 21876 0096 C4F20003 		movt	r3, #:upper16:1073744896
 21877 009a 9842     		cmp	r0, r3
 21878 009c 0CD1     		bne	.L229
 21879              		.loc 1 148 0
 21880 009e 4FF00800 		mov	r0, #8
 21881              	.LVL404:
 21882 00a2 4FF00101 		mov	r1, #1
 21883 00a6 FFF7FEFF 		bl	RCC_APB1PeriphResetCmd
 21884              		.loc 1 149 0
 21885 00aa 4FF00800 		mov	r0, #8
 21886 00ae 4FF00001 		mov	r1, #0
 21887 00b2 FFF7FEFF 		bl	RCC_APB1PeriphResetCmd
 21888 00b6 08BD     		pop	{r3, pc}
 21889              	.LVL405:
 21890              	.L229:
 21891              		.loc 1 151 0
 21892 00b8 41F20003 		movw	r3, #:lower16:1073745920
 21893 00bc C4F20003 		movt	r3, #:upper16:1073745920
 21894 00c0 9842     		cmp	r0, r3
 21895 00c2 0CD1     		bne	.L230
 21896              		.loc 1 153 0
 21897 00c4 4FF01000 		mov	r0, #16
 21898              	.LVL406:
 21899 00c8 4FF00101 		mov	r1, #1
 21900 00cc FFF7FEFF 		bl	RCC_APB1PeriphResetCmd
 21901              		.loc 1 154 0
 21902 00d0 4FF01000 		mov	r0, #16
 21903 00d4 4FF00001 		mov	r1, #0
 21904 00d8 FFF7FEFF 		bl	RCC_APB1PeriphResetCmd
 21905 00dc 08BD     		pop	{r3, pc}
 21906              	.LVL407:
 21907              	.L230:
 21908              		.loc 1 156 0
 21909 00de 41F20043 		movw	r3, #:lower16:1073746944
 21910 00e2 C4F20003 		movt	r3, #:upper16:1073746944
 21911 00e6 9842     		cmp	r0, r3
 21912 00e8 0CD1     		bne	.L231
 21913              		.loc 1 158 0
 21914 00ea 4FF02000 		mov	r0, #32
 21915              	.LVL408:
 21916 00ee 4FF00101 		mov	r1, #1
 21917 00f2 FFF7FEFF 		bl	RCC_APB1PeriphResetCmd
 21918              		.loc 1 159 0
 21919 00f6 4FF02000 		mov	r0, #32
 21920 00fa 4FF00001 		mov	r1, #0
 21921 00fe FFF7FEFF 		bl	RCC_APB1PeriphResetCmd
 21922 0102 08BD     		pop	{r3, pc}
 21923              	.LVL409:
 21924              	.L231:
 21925              		.loc 1 161 0
 21926 0104 43F20043 		movw	r3, #:lower16:1073820672
 21927 0108 C4F20103 		movt	r3, #:upper16:1073820672
 21928 010c 9842     		cmp	r0, r3
 21929 010e 0CD1     		bne	.L232
 21930              		.loc 1 163 0
 21931 0110 4FF40050 		mov	r0, #8192
 21932              	.LVL410:
 21933 0114 4FF00101 		mov	r1, #1
 21934 0118 FFF7FEFF 		bl	RCC_APB2PeriphResetCmd
 21935              		.loc 1 164 0
 21936 011c 4FF40050 		mov	r0, #8192
 21937 0120 4FF00001 		mov	r1, #0
 21938 0124 FFF7FEFF 		bl	RCC_APB2PeriphResetCmd
 21939 0128 08BD     		pop	{r3, pc}
 21940              	.LVL411:
 21941              	.L232:
 21942              		.loc 1 166 0
 21943 012a 44F60043 		movw	r3, #:lower16:1073826816
 21944 012e C4F20103 		movt	r3, #:upper16:1073826816
 21945 0132 9842     		cmp	r0, r3
 21946 0134 0CD1     		bne	.L233
 21947              		.loc 1 168 0
 21948 0136 4FF40020 		mov	r0, #524288
 21949              	.LVL412:
 21950 013a 4FF00101 		mov	r1, #1
 21951 013e FFF7FEFF 		bl	RCC_APB2PeriphResetCmd
 21952              		.loc 1 169 0
 21953 0142 4FF40020 		mov	r0, #524288
 21954 0146 4FF00001 		mov	r1, #0
 21955 014a FFF7FEFF 		bl	RCC_APB2PeriphResetCmd
 21956 014e 08BD     		pop	{r3, pc}
 21957              	.LVL413:
 21958              	.L233:
 21959              		.loc 1 171 0
 21960 0150 45F20003 		movw	r3, #:lower16:1073827840
 21961 0154 C4F20103 		movt	r3, #:upper16:1073827840
 21962 0158 9842     		cmp	r0, r3
 21963 015a 0CD1     		bne	.L234
 21964              		.loc 1 173 0
 21965 015c 4FF48010 		mov	r0, #1048576
 21966              	.LVL414:
 21967 0160 4FF00101 		mov	r1, #1
 21968 0164 FFF7FEFF 		bl	RCC_APB2PeriphResetCmd
 21969              		.loc 1 174 0
 21970 0168 4FF48010 		mov	r0, #1048576
 21971 016c 4FF00001 		mov	r1, #0
 21972 0170 FFF7FEFF 		bl	RCC_APB2PeriphResetCmd
 21973 0174 08BD     		pop	{r3, pc}
 21974              	.LVL415:
 21975              	.L234:
 21976              		.loc 1 176 0
 21977 0176 45F20043 		movw	r3, #:lower16:1073828864
 21978 017a C4F20103 		movt	r3, #:upper16:1073828864
 21979 017e 9842     		cmp	r0, r3
 21980 0180 0CD1     		bne	.L235
 21981              		.loc 1 178 0
 21982 0182 4FF40010 		mov	r0, #2097152
 21983              	.LVL416:
 21984 0186 4FF00101 		mov	r1, #1
 21985 018a FFF7FEFF 		bl	RCC_APB2PeriphResetCmd
 21986              		.loc 1 179 0
 21987 018e 4FF40010 		mov	r0, #2097152
 21988 0192 4FF00001 		mov	r1, #0
 21989 0196 FFF7FEFF 		bl	RCC_APB2PeriphResetCmd
 21990 019a 08BD     		pop	{r3, pc}
 21991              	.LVL417:
 21992              	.L235:
 21993              		.loc 1 181 0
 21994 019c 41F60003 		movw	r3, #:lower16:1073747968
 21995 01a0 C4F20003 		movt	r3, #:upper16:1073747968
 21996 01a4 9842     		cmp	r0, r3
 21997 01a6 0CD1     		bne	.L236
 21998              		.loc 1 183 0
 21999 01a8 4FF04000 		mov	r0, #64
 22000              	.LVL418:
 22001 01ac 4FF00101 		mov	r1, #1
 22002 01b0 FFF7FEFF 		bl	RCC_APB1PeriphResetCmd
 22003              		.loc 1 184 0
 22004 01b4 4FF04000 		mov	r0, #64
 22005 01b8 4FF00001 		mov	r1, #0
 22006 01bc FFF7FEFF 		bl	RCC_APB1PeriphResetCmd
 22007 01c0 08BD     		pop	{r3, pc}
 22008              	.LVL419:
 22009              	.L236:
 22010              		.loc 1 186 0
 22011 01c2 41F60043 		movw	r3, #:lower16:1073748992
 22012 01c6 C4F20003 		movt	r3, #:upper16:1073748992
 22013 01ca 9842     		cmp	r0, r3
 22014 01cc 0CD1     		bne	.L237
 22015              		.loc 1 188 0
 22016 01ce 4FF08000 		mov	r0, #128
 22017              	.LVL420:
 22018 01d2 4FF00101 		mov	r1, #1
 22019 01d6 FFF7FEFF 		bl	RCC_APB1PeriphResetCmd
 22020              		.loc 1 189 0
 22021 01da 4FF08000 		mov	r0, #128
 22022 01de 4FF00001 		mov	r1, #0
 22023 01e2 FFF7FEFF 		bl	RCC_APB1PeriphResetCmd
 22024 01e6 08BD     		pop	{r3, pc}
 22025              	.LVL421:
 22026              	.L237:
 22027              		.loc 1 191 0
 22028 01e8 42F20003 		movw	r3, #:lower16:1073750016
 22029 01ec C4F20003 		movt	r3, #:upper16:1073750016
 22030 01f0 9842     		cmp	r0, r3
 22031 01f2 0CD1     		bne	.L238
 22032              		.loc 1 193 0
 22033 01f4 4FF48070 		mov	r0, #256
 22034              	.LVL422:
 22035 01f8 4FF00101 		mov	r1, #1
 22036 01fc FFF7FEFF 		bl	RCC_APB1PeriphResetCmd
 22037              		.loc 1 194 0
 22038 0200 4FF48070 		mov	r0, #256
 22039 0204 4FF00001 		mov	r1, #0
 22040 0208 FFF7FEFF 		bl	RCC_APB1PeriphResetCmd
 22041 020c 08BD     		pop	{r3, pc}
 22042              	.LVL423:
 22043              	.L238:
 22044              		.loc 1 196 0
 22045 020e 44F20003 		movw	r3, #:lower16:1073823744
 22046 0212 C4F20103 		movt	r3, #:upper16:1073823744
 22047 0216 9842     		cmp	r0, r3
 22048 0218 0CD1     		bne	.L239
 22049              		.loc 1 198 0
 22050 021a 4FF48030 		mov	r0, #65536
 22051              	.LVL424:
 22052 021e 4FF00101 		mov	r1, #1
 22053 0222 FFF7FEFF 		bl	RCC_APB2PeriphResetCmd
 22054              		.loc 1 199 0
 22055 0226 4FF48030 		mov	r0, #65536
 22056 022a 4FF00001 		mov	r1, #0
 22057 022e FFF7FEFF 		bl	RCC_APB2PeriphResetCmd
 22058 0232 08BD     		pop	{r3, pc}
 22059              	.LVL425:
 22060              	.L239:
 22061              		.loc 1 201 0
 22062 0234 44F20043 		movw	r3, #:lower16:1073824768
 22063 0238 C4F20103 		movt	r3, #:upper16:1073824768
 22064 023c 9842     		cmp	r0, r3
 22065 023e 0CD1     		bne	.L240
 22066              		.loc 1 203 0
 22067 0240 4FF40030 		mov	r0, #131072
 22068              	.LVL426:
 22069 0244 4FF00101 		mov	r1, #1
 22070 0248 FFF7FEFF 		bl	RCC_APB2PeriphResetCmd
 22071              		.loc 1 204 0
 22072 024c 4FF40030 		mov	r0, #131072
 22073 0250 4FF00001 		mov	r1, #0
 22074 0254 FFF7FEFF 		bl	RCC_APB2PeriphResetCmd
 22075 0258 08BD     		pop	{r3, pc}
 22076              	.LVL427:
 22077              	.L240:
 22078              		.loc 1 208 0
 22079 025a 44F60003 		movw	r3, #:lower16:1073825792
 22080 025e C4F20103 		movt	r3, #:upper16:1073825792
 22081 0262 9842     		cmp	r0, r3
 22082 0264 0BD1     		bne	.L241
 22083              		.loc 1 210 0
 22084 0266 4FF48020 		mov	r0, #262144
 22085              	.LVL428:
 22086 026a 4FF00101 		mov	r1, #1
 22087 026e FFF7FEFF 		bl	RCC_APB2PeriphResetCmd
 22088              		.loc 1 211 0
 22089 0272 4FF48020 		mov	r0, #262144
 22090 0276 4FF00001 		mov	r1, #0
 22091 027a FFF7FEFF 		bl	RCC_APB2PeriphResetCmd
 22092              	.LVL429:
 22093              	.L241:
 22094 027e 08BD     		pop	{r3, pc}
 22095              		.cfi_endproc
 22096              	.LFE29:
 22098              		.text
 22099              	.Letext0:
DEFINED SYMBOLS
                            *ABS*:00000000 stm32f10x_tim.c
C:\Users\user\AppData\Local\Temp\cc7emznF.s:18242  .text.TIM_TimeBaseInit:00000000 $t
C:\Users\user\AppData\Local\Temp\cc7emznF.s:18247  .text.TIM_TimeBaseInit:00000000 TIM_TimeBaseInit
C:\Users\user\AppData\Local\Temp\cc7emznF.s:18382  .text.TIM_OC1Init:00000000 $t
C:\Users\user\AppData\Local\Temp\cc7emznF.s:18387  .text.TIM_OC1Init:00000000 TIM_OC1Init
C:\Users\user\AppData\Local\Temp\cc7emznF.s:18531  .text.TIM_OC2Init:00000000 $t
C:\Users\user\AppData\Local\Temp\cc7emznF.s:18536  .text.TIM_OC2Init:00000000 TIM_OC2Init
C:\Users\user\AppData\Local\Temp\cc7emznF.s:18671  .text.TIM_OC3Init:00000000 $t
C:\Users\user\AppData\Local\Temp\cc7emznF.s:18676  .text.TIM_OC3Init:00000000 TIM_OC3Init
C:\Users\user\AppData\Local\Temp\cc7emznF.s:18809  .text.TIM_OC4Init:00000000 $t
C:\Users\user\AppData\Local\Temp\cc7emznF.s:18814  .text.TIM_OC4Init:00000000 TIM_OC4Init
C:\Users\user\AppData\Local\Temp\cc7emznF.s:18925  .text.TIM_BDTRConfig:00000000 $t
C:\Users\user\AppData\Local\Temp\cc7emznF.s:18930  .text.TIM_BDTRConfig:00000000 TIM_BDTRConfig
C:\Users\user\AppData\Local\Temp\cc7emznF.s:18960  .text.TIM_TimeBaseStructInit:00000000 $t
C:\Users\user\AppData\Local\Temp\cc7emznF.s:18965  .text.TIM_TimeBaseStructInit:00000000 TIM_TimeBaseStructInit
C:\Users\user\AppData\Local\Temp\cc7emznF.s:18991  .text.TIM_OCStructInit:00000000 $t
C:\Users\user\AppData\Local\Temp\cc7emznF.s:18996  .text.TIM_OCStructInit:00000000 TIM_OCStructInit
C:\Users\user\AppData\Local\Temp\cc7emznF.s:19027  .text.TIM_ICStructInit:00000000 $t
C:\Users\user\AppData\Local\Temp\cc7emznF.s:19032  .text.TIM_ICStructInit:00000000 TIM_ICStructInit
C:\Users\user\AppData\Local\Temp\cc7emznF.s:19058  .text.TIM_BDTRStructInit:00000000 $t
C:\Users\user\AppData\Local\Temp\cc7emznF.s:19063  .text.TIM_BDTRStructInit:00000000 TIM_BDTRStructInit
C:\Users\user\AppData\Local\Temp\cc7emznF.s:19092  .text.TIM_Cmd:00000000 $t
C:\Users\user\AppData\Local\Temp\cc7emznF.s:19097  .text.TIM_Cmd:00000000 TIM_Cmd
C:\Users\user\AppData\Local\Temp\cc7emznF.s:19125  .text.TIM_CtrlPWMOutputs:00000000 $t
C:\Users\user\AppData\Local\Temp\cc7emznF.s:19130  .text.TIM_CtrlPWMOutputs:00000000 TIM_CtrlPWMOutputs
C:\Users\user\AppData\Local\Temp\cc7emznF.s:19158  .text.TIM_ITConfig:00000000 $t
C:\Users\user\AppData\Local\Temp\cc7emznF.s:19163  .text.TIM_ITConfig:00000000 TIM_ITConfig
C:\Users\user\AppData\Local\Temp\cc7emznF.s:19193  .text.TIM_GenerateEvent:00000000 $t
C:\Users\user\AppData\Local\Temp\cc7emznF.s:19198  .text.TIM_GenerateEvent:00000000 TIM_GenerateEvent
C:\Users\user\AppData\Local\Temp\cc7emznF.s:19214  .text.TIM_DMAConfig:00000000 $t
C:\Users\user\AppData\Local\Temp\cc7emznF.s:19219  .text.TIM_DMAConfig:00000000 TIM_DMAConfig
C:\Users\user\AppData\Local\Temp\cc7emznF.s:19237  .text.TIM_DMACmd:00000000 $t
C:\Users\user\AppData\Local\Temp\cc7emznF.s:19242  .text.TIM_DMACmd:00000000 TIM_DMACmd
C:\Users\user\AppData\Local\Temp\cc7emznF.s:19272  .text.TIM_InternalClockConfig:00000000 $t
C:\Users\user\AppData\Local\Temp\cc7emznF.s:19277  .text.TIM_InternalClockConfig:00000000 TIM_InternalClockConfig
C:\Users\user\AppData\Local\Temp\cc7emznF.s:19297  .text.TIM_ETRConfig:00000000 $t
C:\Users\user\AppData\Local\Temp\cc7emznF.s:19302  .text.TIM_ETRConfig:00000000 TIM_ETRConfig
C:\Users\user\AppData\Local\Temp\cc7emznF.s:19327  .text.TIM_ETRClockMode2Config:00000000 $t
C:\Users\user\AppData\Local\Temp\cc7emznF.s:19332  .text.TIM_ETRClockMode2Config:00000000 TIM_ETRClockMode2Config
C:\Users\user\AppData\Local\Temp\cc7emznF.s:19359  .text.TIM_ETRClockMode1Config:00000000 $t
C:\Users\user\AppData\Local\Temp\cc7emznF.s:19364  .text.TIM_ETRClockMode1Config:00000000 TIM_ETRClockMode1Config
C:\Users\user\AppData\Local\Temp\cc7emznF.s:19400  .text.TIM_PrescalerConfig:00000000 $t
C:\Users\user\AppData\Local\Temp\cc7emznF.s:19405  .text.TIM_PrescalerConfig:00000000 TIM_PrescalerConfig
C:\Users\user\AppData\Local\Temp\cc7emznF.s:19423  .text.TIM_CounterModeConfig:00000000 $t
C:\Users\user\AppData\Local\Temp\cc7emznF.s:19428  .text.TIM_CounterModeConfig:00000000 TIM_CounterModeConfig
C:\Users\user\AppData\Local\Temp\cc7emznF.s:19456  .text.TIM_SelectInputTrigger:00000000 $t
C:\Users\user\AppData\Local\Temp\cc7emznF.s:19461  .text.TIM_SelectInputTrigger:00000000 TIM_SelectInputTrigger
C:\Users\user\AppData\Local\Temp\cc7emznF.s:19489  .text.TIM_ITRxExternalClockConfig:00000000 $t
C:\Users\user\AppData\Local\Temp\cc7emznF.s:19494  .text.TIM_ITRxExternalClockConfig:00000000 TIM_ITRxExternalClockConfig
C:\Users\user\AppData\Local\Temp\cc7emznF.s:19521  .text.TIM_EncoderInterfaceConfig:00000000 $t
C:\Users\user\AppData\Local\Temp\cc7emznF.s:19526  .text.TIM_EncoderInterfaceConfig:00000000 TIM_EncoderInterfaceConfig
C:\Users\user\AppData\Local\Temp\cc7emznF.s:19590  .text.TIM_ForcedOC1Config:00000000 $t
C:\Users\user\AppData\Local\Temp\cc7emznF.s:19595  .text.TIM_ForcedOC1Config:00000000 TIM_ForcedOC1Config
C:\Users\user\AppData\Local\Temp\cc7emznF.s:19623  .text.TIM_ForcedOC2Config:00000000 $t
C:\Users\user\AppData\Local\Temp\cc7emznF.s:19628  .text.TIM_ForcedOC2Config:00000000 TIM_ForcedOC2Config
C:\Users\user\AppData\Local\Temp\cc7emznF.s:19658  .text.TIM_ForcedOC3Config:00000000 $t
C:\Users\user\AppData\Local\Temp\cc7emznF.s:19663  .text.TIM_ForcedOC3Config:00000000 TIM_ForcedOC3Config
C:\Users\user\AppData\Local\Temp\cc7emznF.s:19691  .text.TIM_ForcedOC4Config:00000000 $t
C:\Users\user\AppData\Local\Temp\cc7emznF.s:19696  .text.TIM_ForcedOC4Config:00000000 TIM_ForcedOC4Config
C:\Users\user\AppData\Local\Temp\cc7emznF.s:19726  .text.TIM_ARRPreloadConfig:00000000 $t
C:\Users\user\AppData\Local\Temp\cc7emznF.s:19731  .text.TIM_ARRPreloadConfig:00000000 TIM_ARRPreloadConfig
C:\Users\user\AppData\Local\Temp\cc7emznF.s:19759  .text.TIM_SelectCOM:00000000 $t
C:\Users\user\AppData\Local\Temp\cc7emznF.s:19764  .text.TIM_SelectCOM:00000000 TIM_SelectCOM
C:\Users\user\AppData\Local\Temp\cc7emznF.s:19792  .text.TIM_SelectCCDMA:00000000 $t
C:\Users\user\AppData\Local\Temp\cc7emznF.s:19797  .text.TIM_SelectCCDMA:00000000 TIM_SelectCCDMA
C:\Users\user\AppData\Local\Temp\cc7emznF.s:19825  .text.TIM_CCPreloadControl:00000000 $t
C:\Users\user\AppData\Local\Temp\cc7emznF.s:19830  .text.TIM_CCPreloadControl:00000000 TIM_CCPreloadControl
C:\Users\user\AppData\Local\Temp\cc7emznF.s:19858  .text.TIM_OC1PreloadConfig:00000000 $t
C:\Users\user\AppData\Local\Temp\cc7emznF.s:19863  .text.TIM_OC1PreloadConfig:00000000 TIM_OC1PreloadConfig
C:\Users\user\AppData\Local\Temp\cc7emznF.s:19891  .text.TIM_OC2PreloadConfig:00000000 $t
C:\Users\user\AppData\Local\Temp\cc7emznF.s:19896  .text.TIM_OC2PreloadConfig:00000000 TIM_OC2PreloadConfig
C:\Users\user\AppData\Local\Temp\cc7emznF.s:19926  .text.TIM_OC3PreloadConfig:00000000 $t
C:\Users\user\AppData\Local\Temp\cc7emznF.s:19931  .text.TIM_OC3PreloadConfig:00000000 TIM_OC3PreloadConfig
C:\Users\user\AppData\Local\Temp\cc7emznF.s:19959  .text.TIM_OC4PreloadConfig:00000000 $t
C:\Users\user\AppData\Local\Temp\cc7emznF.s:19964  .text.TIM_OC4PreloadConfig:00000000 TIM_OC4PreloadConfig
C:\Users\user\AppData\Local\Temp\cc7emznF.s:19994  .text.TIM_OC1FastConfig:00000000 $t
C:\Users\user\AppData\Local\Temp\cc7emznF.s:19999  .text.TIM_OC1FastConfig:00000000 TIM_OC1FastConfig
C:\Users\user\AppData\Local\Temp\cc7emznF.s:20027  .text.TIM_OC2FastConfig:00000000 $t
C:\Users\user\AppData\Local\Temp\cc7emznF.s:20032  .text.TIM_OC2FastConfig:00000000 TIM_OC2FastConfig
C:\Users\user\AppData\Local\Temp\cc7emznF.s:20062  .text.TIM_OC3FastConfig:00000000 $t
C:\Users\user\AppData\Local\Temp\cc7emznF.s:20067  .text.TIM_OC3FastConfig:00000000 TIM_OC3FastConfig
C:\Users\user\AppData\Local\Temp\cc7emznF.s:20095  .text.TIM_OC4FastConfig:00000000 $t
C:\Users\user\AppData\Local\Temp\cc7emznF.s:20100  .text.TIM_OC4FastConfig:00000000 TIM_OC4FastConfig
C:\Users\user\AppData\Local\Temp\cc7emznF.s:20130  .text.TIM_ClearOC1Ref:00000000 $t
C:\Users\user\AppData\Local\Temp\cc7emznF.s:20135  .text.TIM_ClearOC1Ref:00000000 TIM_ClearOC1Ref
C:\Users\user\AppData\Local\Temp\cc7emznF.s:20163  .text.TIM_ClearOC2Ref:00000000 $t
C:\Users\user\AppData\Local\Temp\cc7emznF.s:20168  .text.TIM_ClearOC2Ref:00000000 TIM_ClearOC2Ref
C:\Users\user\AppData\Local\Temp\cc7emznF.s:20196  .text.TIM_ClearOC3Ref:00000000 $t
C:\Users\user\AppData\Local\Temp\cc7emznF.s:20201  .text.TIM_ClearOC3Ref:00000000 TIM_ClearOC3Ref
C:\Users\user\AppData\Local\Temp\cc7emznF.s:20229  .text.TIM_ClearOC4Ref:00000000 $t
C:\Users\user\AppData\Local\Temp\cc7emznF.s:20234  .text.TIM_ClearOC4Ref:00000000 TIM_ClearOC4Ref
C:\Users\user\AppData\Local\Temp\cc7emznF.s:20262  .text.TIM_OC1PolarityConfig:00000000 $t
C:\Users\user\AppData\Local\Temp\cc7emznF.s:20267  .text.TIM_OC1PolarityConfig:00000000 TIM_OC1PolarityConfig
C:\Users\user\AppData\Local\Temp\cc7emznF.s:20295  .text.TIM_OC1NPolarityConfig:00000000 $t
C:\Users\user\AppData\Local\Temp\cc7emznF.s:20300  .text.TIM_OC1NPolarityConfig:00000000 TIM_OC1NPolarityConfig
C:\Users\user\AppData\Local\Temp\cc7emznF.s:20328  .text.TIM_OC2PolarityConfig:00000000 $t
C:\Users\user\AppData\Local\Temp\cc7emznF.s:20333  .text.TIM_OC2PolarityConfig:00000000 TIM_OC2PolarityConfig
C:\Users\user\AppData\Local\Temp\cc7emznF.s:20363  .text.TIM_OC2NPolarityConfig:00000000 $t
C:\Users\user\AppData\Local\Temp\cc7emznF.s:20368  .text.TIM_OC2NPolarityConfig:00000000 TIM_OC2NPolarityConfig
C:\Users\user\AppData\Local\Temp\cc7emznF.s:20398  .text.TIM_OC3PolarityConfig:00000000 $t
C:\Users\user\AppData\Local\Temp\cc7emznF.s:20403  .text.TIM_OC3PolarityConfig:00000000 TIM_OC3PolarityConfig
C:\Users\user\AppData\Local\Temp\cc7emznF.s:20433  .text.TIM_OC3NPolarityConfig:00000000 $t
C:\Users\user\AppData\Local\Temp\cc7emznF.s:20438  .text.TIM_OC3NPolarityConfig:00000000 TIM_OC3NPolarityConfig
C:\Users\user\AppData\Local\Temp\cc7emznF.s:20468  .text.TIM_OC4PolarityConfig:00000000 $t
C:\Users\user\AppData\Local\Temp\cc7emznF.s:20473  .text.TIM_OC4PolarityConfig:00000000 TIM_OC4PolarityConfig
C:\Users\user\AppData\Local\Temp\cc7emznF.s:20503  .text.TIM_CCxCmd:00000000 $t
C:\Users\user\AppData\Local\Temp\cc7emznF.s:20508  .text.TIM_CCxCmd:00000000 TIM_CCxCmd
C:\Users\user\AppData\Local\Temp\cc7emznF.s:20536  .text.TIM_CCxNCmd:00000000 $t
C:\Users\user\AppData\Local\Temp\cc7emznF.s:20541  .text.TIM_CCxNCmd:00000000 TIM_CCxNCmd
C:\Users\user\AppData\Local\Temp\cc7emznF.s:20569  .text.TIM_SelectOCxM:00000000 $t
C:\Users\user\AppData\Local\Temp\cc7emznF.s:20574  .text.TIM_SelectOCxM:00000000 TIM_SelectOCxM
C:\Users\user\AppData\Local\Temp\cc7emznF.s:20645  .text.TIM_UpdateDisableConfig:00000000 $t
C:\Users\user\AppData\Local\Temp\cc7emznF.s:20650  .text.TIM_UpdateDisableConfig:00000000 TIM_UpdateDisableConfig
C:\Users\user\AppData\Local\Temp\cc7emznF.s:20678  .text.TIM_UpdateRequestConfig:00000000 $t
C:\Users\user\AppData\Local\Temp\cc7emznF.s:20683  .text.TIM_UpdateRequestConfig:00000000 TIM_UpdateRequestConfig
C:\Users\user\AppData\Local\Temp\cc7emznF.s:20711  .text.TIM_SelectHallSensor:00000000 $t
C:\Users\user\AppData\Local\Temp\cc7emznF.s:20716  .text.TIM_SelectHallSensor:00000000 TIM_SelectHallSensor
C:\Users\user\AppData\Local\Temp\cc7emznF.s:20744  .text.TIM_SelectOnePulseMode:00000000 $t
C:\Users\user\AppData\Local\Temp\cc7emznF.s:20749  .text.TIM_SelectOnePulseMode:00000000 TIM_SelectOnePulseMode
C:\Users\user\AppData\Local\Temp\cc7emznF.s:20774  .text.TIM_SelectOutputTrigger:00000000 $t
C:\Users\user\AppData\Local\Temp\cc7emznF.s:20779  .text.TIM_SelectOutputTrigger:00000000 TIM_SelectOutputTrigger
C:\Users\user\AppData\Local\Temp\cc7emznF.s:20804  .text.TIM_SelectSlaveMode:00000000 $t
C:\Users\user\AppData\Local\Temp\cc7emznF.s:20809  .text.TIM_SelectSlaveMode:00000000 TIM_SelectSlaveMode
C:\Users\user\AppData\Local\Temp\cc7emznF.s:20834  .text.TIM_SelectMasterSlaveMode:00000000 $t
C:\Users\user\AppData\Local\Temp\cc7emznF.s:20839  .text.TIM_SelectMasterSlaveMode:00000000 TIM_SelectMasterSlaveMode
C:\Users\user\AppData\Local\Temp\cc7emznF.s:20864  .text.TIM_SetCounter:00000000 $t
C:\Users\user\AppData\Local\Temp\cc7emznF.s:20869  .text.TIM_SetCounter:00000000 TIM_SetCounter
C:\Users\user\AppData\Local\Temp\cc7emznF.s:20885  .text.TIM_SetAutoreload:00000000 $t
C:\Users\user\AppData\Local\Temp\cc7emznF.s:20890  .text.TIM_SetAutoreload:00000000 TIM_SetAutoreload
C:\Users\user\AppData\Local\Temp\cc7emznF.s:20906  .text.TIM_SetCompare1:00000000 $t
C:\Users\user\AppData\Local\Temp\cc7emznF.s:20911  .text.TIM_SetCompare1:00000000 TIM_SetCompare1
C:\Users\user\AppData\Local\Temp\cc7emznF.s:20927  .text.TIM_SetCompare2:00000000 $t
C:\Users\user\AppData\Local\Temp\cc7emznF.s:20932  .text.TIM_SetCompare2:00000000 TIM_SetCompare2
C:\Users\user\AppData\Local\Temp\cc7emznF.s:20948  .text.TIM_SetCompare3:00000000 $t
C:\Users\user\AppData\Local\Temp\cc7emznF.s:20953  .text.TIM_SetCompare3:00000000 TIM_SetCompare3
C:\Users\user\AppData\Local\Temp\cc7emznF.s:20969  .text.TIM_SetCompare4:00000000 $t
C:\Users\user\AppData\Local\Temp\cc7emznF.s:20974  .text.TIM_SetCompare4:00000000 TIM_SetCompare4
C:\Users\user\AppData\Local\Temp\cc7emznF.s:20990  .text.TIM_SetIC1Prescaler:00000000 $t
C:\Users\user\AppData\Local\Temp\cc7emznF.s:20995  .text.TIM_SetIC1Prescaler:00000000 TIM_SetIC1Prescaler
C:\Users\user\AppData\Local\Temp\cc7emznF.s:21020  .text.TIM_SetIC2Prescaler:00000000 $t
C:\Users\user\AppData\Local\Temp\cc7emznF.s:21025  .text.TIM_SetIC2Prescaler:00000000 TIM_SetIC2Prescaler
C:\Users\user\AppData\Local\Temp\cc7emznF.s:21051  .text.TIM_SetIC3Prescaler:00000000 $t
C:\Users\user\AppData\Local\Temp\cc7emznF.s:21056  .text.TIM_SetIC3Prescaler:00000000 TIM_SetIC3Prescaler
C:\Users\user\AppData\Local\Temp\cc7emznF.s:21081  .text.TIM_SetIC4Prescaler:00000000 $t
C:\Users\user\AppData\Local\Temp\cc7emznF.s:21086  .text.TIM_SetIC4Prescaler:00000000 TIM_SetIC4Prescaler
C:\Users\user\AppData\Local\Temp\cc7emznF.s:21112  .text.TIM_SetClockDivision:00000000 $t
C:\Users\user\AppData\Local\Temp\cc7emznF.s:21117  .text.TIM_SetClockDivision:00000000 TIM_SetClockDivision
C:\Users\user\AppData\Local\Temp\cc7emznF.s:21142  .text.TIM_GetCapture1:00000000 $t
C:\Users\user\AppData\Local\Temp\cc7emznF.s:21147  .text.TIM_GetCapture1:00000000 TIM_GetCapture1
C:\Users\user\AppData\Local\Temp\cc7emznF.s:21165  .text.TIM_GetCapture2:00000000 $t
C:\Users\user\AppData\Local\Temp\cc7emznF.s:21170  .text.TIM_GetCapture2:00000000 TIM_GetCapture2
C:\Users\user\AppData\Local\Temp\cc7emznF.s:21188  .text.TIM_GetCapture3:00000000 $t
C:\Users\user\AppData\Local\Temp\cc7emznF.s:21193  .text.TIM_GetCapture3:00000000 TIM_GetCapture3
C:\Users\user\AppData\Local\Temp\cc7emznF.s:21211  .text.TIM_GetCapture4:00000000 $t
C:\Users\user\AppData\Local\Temp\cc7emznF.s:21216  .text.TIM_GetCapture4:00000000 TIM_GetCapture4
C:\Users\user\AppData\Local\Temp\cc7emznF.s:21234  .text.TIM_GetCounter:00000000 $t
C:\Users\user\AppData\Local\Temp\cc7emznF.s:21239  .text.TIM_GetCounter:00000000 TIM_GetCounter
C:\Users\user\AppData\Local\Temp\cc7emznF.s:21257  .text.TIM_GetPrescaler:00000000 $t
C:\Users\user\AppData\Local\Temp\cc7emznF.s:21262  .text.TIM_GetPrescaler:00000000 TIM_GetPrescaler
C:\Users\user\AppData\Local\Temp\cc7emznF.s:21280  .text.TIM_GetFlagStatus:00000000 $t
C:\Users\user\AppData\Local\Temp\cc7emznF.s:21285  .text.TIM_GetFlagStatus:00000000 TIM_GetFlagStatus
C:\Users\user\AppData\Local\Temp\cc7emznF.s:21306  .text.TIM_ClearFlag:00000000 $t
C:\Users\user\AppData\Local\Temp\cc7emznF.s:21311  .text.TIM_ClearFlag:00000000 TIM_ClearFlag
C:\Users\user\AppData\Local\Temp\cc7emznF.s:21330  .text.TIM_GetITStatus:00000000 $t
C:\Users\user\AppData\Local\Temp\cc7emznF.s:21335  .text.TIM_GetITStatus:00000000 TIM_GetITStatus
C:\Users\user\AppData\Local\Temp\cc7emznF.s:21362  .text.TIM_ClearITPendingBit:00000000 $t
C:\Users\user\AppData\Local\Temp\cc7emznF.s:21367  .text.TIM_ClearITPendingBit:00000000 TIM_ClearITPendingBit
C:\Users\user\AppData\Local\Temp\cc7emznF.s:21386  .text.TI1_Config:00000000 $t
C:\Users\user\AppData\Local\Temp\cc7emznF.s:21390  .text.TI1_Config:00000000 TI1_Config
C:\Users\user\AppData\Local\Temp\cc7emznF.s:21438  .text.TI2_Config:00000000 $t
C:\Users\user\AppData\Local\Temp\cc7emznF.s:21442  .text.TI2_Config:00000000 TI2_Config
C:\Users\user\AppData\Local\Temp\cc7emznF.s:21498  .text.TIM_TIxExternalClockConfig:00000000 $t
C:\Users\user\AppData\Local\Temp\cc7emznF.s:21503  .text.TIM_TIxExternalClockConfig:00000000 TIM_TIxExternalClockConfig
C:\Users\user\AppData\Local\Temp\cc7emznF.s:21553  .text.TIM_PWMIConfig:00000000 $t
C:\Users\user\AppData\Local\Temp\cc7emznF.s:21558  .text.TIM_PWMIConfig:00000000 TIM_PWMIConfig
C:\Users\user\AppData\Local\Temp\cc7emznF.s:21637  .text.TIM_ICInit:00000000 $t
C:\Users\user\AppData\Local\Temp\cc7emznF.s:21642  .text.TIM_ICInit:00000000 TIM_ICInit
C:\Users\user\AppData\Local\Temp\cc7emznF.s:21791  .text.TIM_DeInit:00000000 $t
C:\Users\user\AppData\Local\Temp\cc7emznF.s:21796  .text.TIM_DeInit:00000000 TIM_DeInit
                     .debug_frame:00000010 $d

UNDEFINED SYMBOLS
RCC_APB2PeriphResetCmd
RCC_APB1PeriphResetCmd
