   1              		.syntax unified
   2              		.cpu cortex-m3
   3              		.fpu softvfp
   4              		.eabi_attribute 20, 1
   5              		.eabi_attribute 21, 1
   6              		.eabi_attribute 23, 3
   7              		.eabi_attribute 24, 1
   8              		.eabi_attribute 25, 1
   9              		.eabi_attribute 26, 1
  10              		.eabi_attribute 30, 1
  11              		.eabi_attribute 18, 4
  12              		.thumb
  13              		.file	"stm32f10x_flash.c"
  23              	.Ltext0:
  24              		.file 1 "../Library/STM32F10x_StdPeriph_Driver/src/stm32f10x_flash.c"
 18314              		.align	2
 18315              		.global	FLASH_SetLatency
 18316              		.thumb
 18317              		.thumb_func
 18319              	FLASH_SetLatency:
 18320              	.LFB29:
   1:../Library/STM32F10x_StdPeriph_Driver/src/stm32f10x_flash.c **** /**
   2:../Library/STM32F10x_StdPeriph_Driver/src/stm32f10x_flash.c ****   ******************************************************************************
   3:../Library/STM32F10x_StdPeriph_Driver/src/stm32f10x_flash.c ****   * @file    stm32f10x_flash.c
   4:../Library/STM32F10x_StdPeriph_Driver/src/stm32f10x_flash.c ****   * @author  MCD Application Team
   5:../Library/STM32F10x_StdPeriph_Driver/src/stm32f10x_flash.c ****   * @version V3.3.0
   6:../Library/STM32F10x_StdPeriph_Driver/src/stm32f10x_flash.c ****   * @date    04/16/2010
   7:../Library/STM32F10x_StdPeriph_Driver/src/stm32f10x_flash.c ****   * @brief   This file provides all the FLASH firmware functions.
   8:../Library/STM32F10x_StdPeriph_Driver/src/stm32f10x_flash.c ****   ******************************************************************************
   9:../Library/STM32F10x_StdPeriph_Driver/src/stm32f10x_flash.c ****   * @copy
  10:../Library/STM32F10x_StdPeriph_Driver/src/stm32f10x_flash.c ****   *
  11:../Library/STM32F10x_StdPeriph_Driver/src/stm32f10x_flash.c ****   * THE PRESENT FIRMWARE WHICH IS FOR GUIDANCE ONLY AIMS AT PROVIDING CUSTOMERS
  12:../Library/STM32F10x_StdPeriph_Driver/src/stm32f10x_flash.c ****   * WITH CODING INFORMATION REGARDING THEIR PRODUCTS IN ORDER FOR THEM TO SAVE
  13:../Library/STM32F10x_StdPeriph_Driver/src/stm32f10x_flash.c ****   * TIME. AS A RESULT, STMICROELECTRONICS SHALL NOT BE HELD LIABLE FOR ANY
  14:../Library/STM32F10x_StdPeriph_Driver/src/stm32f10x_flash.c ****   * DIRECT, INDIRECT OR CONSEQUENTIAL DAMAGES WITH RESPECT TO ANY CLAIMS ARISING
  15:../Library/STM32F10x_StdPeriph_Driver/src/stm32f10x_flash.c ****   * FROM THE CONTENT OF SUCH FIRMWARE AND/OR THE USE MADE BY CUSTOMERS OF THE
  16:../Library/STM32F10x_StdPeriph_Driver/src/stm32f10x_flash.c ****   * CODING INFORMATION CONTAINED HEREIN IN CONNECTION WITH THEIR PRODUCTS.
  17:../Library/STM32F10x_StdPeriph_Driver/src/stm32f10x_flash.c ****   *
  18:../Library/STM32F10x_StdPeriph_Driver/src/stm32f10x_flash.c ****   * <h2><center>&copy; COPYRIGHT 2010 STMicroelectronics</center></h2>
  19:../Library/STM32F10x_StdPeriph_Driver/src/stm32f10x_flash.c ****   */ 
  20:../Library/STM32F10x_StdPeriph_Driver/src/stm32f10x_flash.c **** 
  21:../Library/STM32F10x_StdPeriph_Driver/src/stm32f10x_flash.c **** /* Includes ------------------------------------------------------------------*/
  22:../Library/STM32F10x_StdPeriph_Driver/src/stm32f10x_flash.c **** #include "stm32f10x_flash.h"
  23:../Library/STM32F10x_StdPeriph_Driver/src/stm32f10x_flash.c **** 
  24:../Library/STM32F10x_StdPeriph_Driver/src/stm32f10x_flash.c **** /** @addtogroup STM32F10x_StdPeriph_Driver
  25:../Library/STM32F10x_StdPeriph_Driver/src/stm32f10x_flash.c ****   * @{
  26:../Library/STM32F10x_StdPeriph_Driver/src/stm32f10x_flash.c ****   */
  27:../Library/STM32F10x_StdPeriph_Driver/src/stm32f10x_flash.c **** 
  28:../Library/STM32F10x_StdPeriph_Driver/src/stm32f10x_flash.c **** /** @defgroup FLASH 
  29:../Library/STM32F10x_StdPeriph_Driver/src/stm32f10x_flash.c ****   * @brief FLASH driver modules
  30:../Library/STM32F10x_StdPeriph_Driver/src/stm32f10x_flash.c ****   * @{
  31:../Library/STM32F10x_StdPeriph_Driver/src/stm32f10x_flash.c ****   */ 
  32:../Library/STM32F10x_StdPeriph_Driver/src/stm32f10x_flash.c **** 
  33:../Library/STM32F10x_StdPeriph_Driver/src/stm32f10x_flash.c **** /** @defgroup FLASH_Private_TypesDefinitions
  34:../Library/STM32F10x_StdPeriph_Driver/src/stm32f10x_flash.c ****   * @{
  35:../Library/STM32F10x_StdPeriph_Driver/src/stm32f10x_flash.c ****   */
  36:../Library/STM32F10x_StdPeriph_Driver/src/stm32f10x_flash.c **** 
  37:../Library/STM32F10x_StdPeriph_Driver/src/stm32f10x_flash.c **** /**
  38:../Library/STM32F10x_StdPeriph_Driver/src/stm32f10x_flash.c ****   * @}
  39:../Library/STM32F10x_StdPeriph_Driver/src/stm32f10x_flash.c ****   */ 
  40:../Library/STM32F10x_StdPeriph_Driver/src/stm32f10x_flash.c **** 
  41:../Library/STM32F10x_StdPeriph_Driver/src/stm32f10x_flash.c **** /** @defgroup FLASH_Private_Defines
  42:../Library/STM32F10x_StdPeriph_Driver/src/stm32f10x_flash.c ****   * @{
  43:../Library/STM32F10x_StdPeriph_Driver/src/stm32f10x_flash.c ****   */ 
  44:../Library/STM32F10x_StdPeriph_Driver/src/stm32f10x_flash.c **** 
  45:../Library/STM32F10x_StdPeriph_Driver/src/stm32f10x_flash.c **** /* Flash Access Control Register bits */
  46:../Library/STM32F10x_StdPeriph_Driver/src/stm32f10x_flash.c **** #define ACR_LATENCY_Mask         ((uint32_t)0x00000038)
  47:../Library/STM32F10x_StdPeriph_Driver/src/stm32f10x_flash.c **** #define ACR_HLFCYA_Mask          ((uint32_t)0xFFFFFFF7)
  48:../Library/STM32F10x_StdPeriph_Driver/src/stm32f10x_flash.c **** #define ACR_PRFTBE_Mask          ((uint32_t)0xFFFFFFEF)
  49:../Library/STM32F10x_StdPeriph_Driver/src/stm32f10x_flash.c **** 
  50:../Library/STM32F10x_StdPeriph_Driver/src/stm32f10x_flash.c **** /* Flash Access Control Register bits */
  51:../Library/STM32F10x_StdPeriph_Driver/src/stm32f10x_flash.c **** #define ACR_PRFTBS_Mask          ((uint32_t)0x00000020) 
  52:../Library/STM32F10x_StdPeriph_Driver/src/stm32f10x_flash.c **** 
  53:../Library/STM32F10x_StdPeriph_Driver/src/stm32f10x_flash.c **** /* Flash Control Register bits */
  54:../Library/STM32F10x_StdPeriph_Driver/src/stm32f10x_flash.c **** #define CR_PG_Set                ((uint32_t)0x00000001)
  55:../Library/STM32F10x_StdPeriph_Driver/src/stm32f10x_flash.c **** #define CR_PG_Reset              ((uint32_t)0x00001FFE) 
  56:../Library/STM32F10x_StdPeriph_Driver/src/stm32f10x_flash.c **** #define CR_PER_Set               ((uint32_t)0x00000002)
  57:../Library/STM32F10x_StdPeriph_Driver/src/stm32f10x_flash.c **** #define CR_PER_Reset             ((uint32_t)0x00001FFD)
  58:../Library/STM32F10x_StdPeriph_Driver/src/stm32f10x_flash.c **** #define CR_MER_Set               ((uint32_t)0x00000004)
  59:../Library/STM32F10x_StdPeriph_Driver/src/stm32f10x_flash.c **** #define CR_MER_Reset             ((uint32_t)0x00001FFB)
  60:../Library/STM32F10x_StdPeriph_Driver/src/stm32f10x_flash.c **** #define CR_OPTPG_Set             ((uint32_t)0x00000010)
  61:../Library/STM32F10x_StdPeriph_Driver/src/stm32f10x_flash.c **** #define CR_OPTPG_Reset           ((uint32_t)0x00001FEF)
  62:../Library/STM32F10x_StdPeriph_Driver/src/stm32f10x_flash.c **** #define CR_OPTER_Set             ((uint32_t)0x00000020)
  63:../Library/STM32F10x_StdPeriph_Driver/src/stm32f10x_flash.c **** #define CR_OPTER_Reset           ((uint32_t)0x00001FDF)
  64:../Library/STM32F10x_StdPeriph_Driver/src/stm32f10x_flash.c **** #define CR_STRT_Set              ((uint32_t)0x00000040)
  65:../Library/STM32F10x_StdPeriph_Driver/src/stm32f10x_flash.c **** #define CR_LOCK_Set              ((uint32_t)0x00000080)
  66:../Library/STM32F10x_StdPeriph_Driver/src/stm32f10x_flash.c **** 
  67:../Library/STM32F10x_StdPeriph_Driver/src/stm32f10x_flash.c **** /* FLASH Mask */
  68:../Library/STM32F10x_StdPeriph_Driver/src/stm32f10x_flash.c **** #define RDPRT_Mask               ((uint32_t)0x00000002)
  69:../Library/STM32F10x_StdPeriph_Driver/src/stm32f10x_flash.c **** #define WRP0_Mask                ((uint32_t)0x000000FF)
  70:../Library/STM32F10x_StdPeriph_Driver/src/stm32f10x_flash.c **** #define WRP1_Mask                ((uint32_t)0x0000FF00)
  71:../Library/STM32F10x_StdPeriph_Driver/src/stm32f10x_flash.c **** #define WRP2_Mask                ((uint32_t)0x00FF0000)
  72:../Library/STM32F10x_StdPeriph_Driver/src/stm32f10x_flash.c **** #define WRP3_Mask                ((uint32_t)0xFF000000)
  73:../Library/STM32F10x_StdPeriph_Driver/src/stm32f10x_flash.c **** #define OB_USER_BFB2             ((uint16_t)0x0008)
  74:../Library/STM32F10x_StdPeriph_Driver/src/stm32f10x_flash.c **** 
  75:../Library/STM32F10x_StdPeriph_Driver/src/stm32f10x_flash.c **** /* FLASH Keys */
  76:../Library/STM32F10x_StdPeriph_Driver/src/stm32f10x_flash.c **** #define RDP_Key                  ((uint16_t)0x00A5)
  77:../Library/STM32F10x_StdPeriph_Driver/src/stm32f10x_flash.c **** #define FLASH_KEY1               ((uint32_t)0x45670123)
  78:../Library/STM32F10x_StdPeriph_Driver/src/stm32f10x_flash.c **** #define FLASH_KEY2               ((uint32_t)0xCDEF89AB)
  79:../Library/STM32F10x_StdPeriph_Driver/src/stm32f10x_flash.c **** 
  80:../Library/STM32F10x_StdPeriph_Driver/src/stm32f10x_flash.c **** /* FLASH BANK address */
  81:../Library/STM32F10x_StdPeriph_Driver/src/stm32f10x_flash.c **** #define FLASH_BANK1_END_ADDRESS   ((uint32_t)0x807FFFF)
  82:../Library/STM32F10x_StdPeriph_Driver/src/stm32f10x_flash.c **** 
  83:../Library/STM32F10x_StdPeriph_Driver/src/stm32f10x_flash.c **** /* Delay definition */   
  84:../Library/STM32F10x_StdPeriph_Driver/src/stm32f10x_flash.c **** #define EraseTimeout          ((uint32_t)0x000B0000)
  85:../Library/STM32F10x_StdPeriph_Driver/src/stm32f10x_flash.c **** #define ProgramTimeout        ((uint32_t)0x00002000)
  86:../Library/STM32F10x_StdPeriph_Driver/src/stm32f10x_flash.c **** /**
  87:../Library/STM32F10x_StdPeriph_Driver/src/stm32f10x_flash.c ****   * @}
  88:../Library/STM32F10x_StdPeriph_Driver/src/stm32f10x_flash.c ****   */ 
  89:../Library/STM32F10x_StdPeriph_Driver/src/stm32f10x_flash.c **** 
  90:../Library/STM32F10x_StdPeriph_Driver/src/stm32f10x_flash.c **** /** @defgroup FLASH_Private_Macros
  91:../Library/STM32F10x_StdPeriph_Driver/src/stm32f10x_flash.c ****   * @{
  92:../Library/STM32F10x_StdPeriph_Driver/src/stm32f10x_flash.c ****   */
  93:../Library/STM32F10x_StdPeriph_Driver/src/stm32f10x_flash.c **** 
  94:../Library/STM32F10x_StdPeriph_Driver/src/stm32f10x_flash.c **** /**
  95:../Library/STM32F10x_StdPeriph_Driver/src/stm32f10x_flash.c ****   * @}
  96:../Library/STM32F10x_StdPeriph_Driver/src/stm32f10x_flash.c ****   */ 
  97:../Library/STM32F10x_StdPeriph_Driver/src/stm32f10x_flash.c **** 
  98:../Library/STM32F10x_StdPeriph_Driver/src/stm32f10x_flash.c **** /** @defgroup FLASH_Private_Variables
  99:../Library/STM32F10x_StdPeriph_Driver/src/stm32f10x_flash.c ****   * @{
 100:../Library/STM32F10x_StdPeriph_Driver/src/stm32f10x_flash.c ****   */
 101:../Library/STM32F10x_StdPeriph_Driver/src/stm32f10x_flash.c **** 
 102:../Library/STM32F10x_StdPeriph_Driver/src/stm32f10x_flash.c **** /**
 103:../Library/STM32F10x_StdPeriph_Driver/src/stm32f10x_flash.c ****   * @}
 104:../Library/STM32F10x_StdPeriph_Driver/src/stm32f10x_flash.c ****   */ 
 105:../Library/STM32F10x_StdPeriph_Driver/src/stm32f10x_flash.c **** 
 106:../Library/STM32F10x_StdPeriph_Driver/src/stm32f10x_flash.c **** /** @defgroup FLASH_Private_FunctionPrototypes
 107:../Library/STM32F10x_StdPeriph_Driver/src/stm32f10x_flash.c ****   * @{
 108:../Library/STM32F10x_StdPeriph_Driver/src/stm32f10x_flash.c ****   */
 109:../Library/STM32F10x_StdPeriph_Driver/src/stm32f10x_flash.c ****   
 110:../Library/STM32F10x_StdPeriph_Driver/src/stm32f10x_flash.c **** /**
 111:../Library/STM32F10x_StdPeriph_Driver/src/stm32f10x_flash.c ****   * @}
 112:../Library/STM32F10x_StdPeriph_Driver/src/stm32f10x_flash.c ****   */
 113:../Library/STM32F10x_StdPeriph_Driver/src/stm32f10x_flash.c **** 
 114:../Library/STM32F10x_StdPeriph_Driver/src/stm32f10x_flash.c **** /** @defgroup FLASH_Private_Functions
 115:../Library/STM32F10x_StdPeriph_Driver/src/stm32f10x_flash.c ****   * @{
 116:../Library/STM32F10x_StdPeriph_Driver/src/stm32f10x_flash.c ****   */
 117:../Library/STM32F10x_StdPeriph_Driver/src/stm32f10x_flash.c **** 
 118:../Library/STM32F10x_StdPeriph_Driver/src/stm32f10x_flash.c **** /**
 119:../Library/STM32F10x_StdPeriph_Driver/src/stm32f10x_flash.c **** @code  
 120:../Library/STM32F10x_StdPeriph_Driver/src/stm32f10x_flash.c ****  
 121:../Library/STM32F10x_StdPeriph_Driver/src/stm32f10x_flash.c ****  This driver provides functions to configure and program the Flash memory of all STM32F10x devices,
 122:../Library/STM32F10x_StdPeriph_Driver/src/stm32f10x_flash.c ****  including the latest STM32F10x_XL density devices. 
 123:../Library/STM32F10x_StdPeriph_Driver/src/stm32f10x_flash.c **** 
 124:../Library/STM32F10x_StdPeriph_Driver/src/stm32f10x_flash.c ****  STM32F10x_XL devices feature up to 1 Mbyte with dual bank architecture for read-while-write (RWW) 
 125:../Library/STM32F10x_StdPeriph_Driver/src/stm32f10x_flash.c ****     - bank1: fixed size of 512 Kbytes (256 pages of 2Kbytes each)
 126:../Library/STM32F10x_StdPeriph_Driver/src/stm32f10x_flash.c ****     - bank2: up to 512 Kbytes (up to 256 pages of 2Kbytes each)
 127:../Library/STM32F10x_StdPeriph_Driver/src/stm32f10x_flash.c ****  While other STM32F10x devices features only one bank with memory up to 512 Kbytes.
 128:../Library/STM32F10x_StdPeriph_Driver/src/stm32f10x_flash.c **** 
 129:../Library/STM32F10x_StdPeriph_Driver/src/stm32f10x_flash.c ****  In version V3.3.0, some functions were updated and new ones were added to support
 130:../Library/STM32F10x_StdPeriph_Driver/src/stm32f10x_flash.c ****  STM32F10x_XL devices. Thus some functions manages all devices, while other are 
 131:../Library/STM32F10x_StdPeriph_Driver/src/stm32f10x_flash.c ****  dedicated for XL devices only.
 132:../Library/STM32F10x_StdPeriph_Driver/src/stm32f10x_flash.c ****  
 133:../Library/STM32F10x_StdPeriph_Driver/src/stm32f10x_flash.c ****  The table below presents the list of available functions depending on the used STM32F10x devices. 
 134:../Library/STM32F10x_StdPeriph_Driver/src/stm32f10x_flash.c ****       
 135:../Library/STM32F10x_StdPeriph_Driver/src/stm32f10x_flash.c ****    ***************************************************
 136:../Library/STM32F10x_StdPeriph_Driver/src/stm32f10x_flash.c ****    * Legacy functions used for all STM32F10x devices *
 137:../Library/STM32F10x_StdPeriph_Driver/src/stm32f10x_flash.c ****    ***************************************************
 138:../Library/STM32F10x_StdPeriph_Driver/src/stm32f10x_flash.c ****    +-----------------------------------------------------------------------------------------------
 139:../Library/STM32F10x_StdPeriph_Driver/src/stm32f10x_flash.c ****    |       Functions prototypes         |STM32F10x_XL|Other STM32F10x|    Comments                 
 140:../Library/STM32F10x_StdPeriph_Driver/src/stm32f10x_flash.c ****    |                                    |   devices  |  devices      |                             
 141:../Library/STM32F10x_StdPeriph_Driver/src/stm32f10x_flash.c ****    |-----------------------------------------------------------------------------------------------
 142:../Library/STM32F10x_StdPeriph_Driver/src/stm32f10x_flash.c ****    |FLASH_SetLatency                    |    Yes     |      Yes      | No change                   
 143:../Library/STM32F10x_StdPeriph_Driver/src/stm32f10x_flash.c ****    |-----------------------------------------------------------------------------------------------
 144:../Library/STM32F10x_StdPeriph_Driver/src/stm32f10x_flash.c ****    |FLASH_HalfCycleAccessCmd            |    Yes     |      Yes      | No change                   
 145:../Library/STM32F10x_StdPeriph_Driver/src/stm32f10x_flash.c ****    |-----------------------------------------------------------------------------------------------
 146:../Library/STM32F10x_StdPeriph_Driver/src/stm32f10x_flash.c ****    |FLASH_PrefetchBufferCmd             |    Yes     |      Yes      | No change                   
 147:../Library/STM32F10x_StdPeriph_Driver/src/stm32f10x_flash.c ****    |-----------------------------------------------------------------------------------------------
 148:../Library/STM32F10x_StdPeriph_Driver/src/stm32f10x_flash.c ****    |FLASH_Unlock                        |    Yes     |      Yes      | - For STM32F10X_XL devices: 
 149:../Library/STM32F10x_StdPeriph_Driver/src/stm32f10x_flash.c ****    |                                    |            |               | - For other devices: unlock 
 150:../Library/STM32F10x_StdPeriph_Driver/src/stm32f10x_flash.c ****    |                                    |            |               |   to FLASH_UnlockBank1 funct
 151:../Library/STM32F10x_StdPeriph_Driver/src/stm32f10x_flash.c ****    |-----------------------------------------------------------------------------------------------
 152:../Library/STM32F10x_StdPeriph_Driver/src/stm32f10x_flash.c ****    |FLASH_Lock                          |    Yes     |      Yes      | - For STM32F10X_XL devices: 
 153:../Library/STM32F10x_StdPeriph_Driver/src/stm32f10x_flash.c ****    |                                    |            |               | - For other devices: lock Ba
 154:../Library/STM32F10x_StdPeriph_Driver/src/stm32f10x_flash.c ****    |                                    |            |               |   to FLASH_LockBank1 functio
 155:../Library/STM32F10x_StdPeriph_Driver/src/stm32f10x_flash.c ****    |-----------------------------------------------------------------------------------------------
 156:../Library/STM32F10x_StdPeriph_Driver/src/stm32f10x_flash.c ****    |FLASH_ErasePage                     |    Yes     |      Yes      | - For STM32F10x_XL devices: 
 157:../Library/STM32F10x_StdPeriph_Driver/src/stm32f10x_flash.c ****    |                                    |            |               | - For other devices: erase a
 158:../Library/STM32F10x_StdPeriph_Driver/src/stm32f10x_flash.c ****    |-----------------------------------------------------------------------------------------------
 159:../Library/STM32F10x_StdPeriph_Driver/src/stm32f10x_flash.c ****    |FLASH_EraseAllPages                 |    Yes     |      Yes      | - For STM32F10x_XL devices: 
 160:../Library/STM32F10x_StdPeriph_Driver/src/stm32f10x_flash.c ****    |                                    |            |               | - For other devices: erase a
 161:../Library/STM32F10x_StdPeriph_Driver/src/stm32f10x_flash.c ****    |-----------------------------------------------------------------------------------------------
 162:../Library/STM32F10x_StdPeriph_Driver/src/stm32f10x_flash.c ****    |FLASH_EraseOptionBytes              |    Yes     |      Yes      | No change                   
 163:../Library/STM32F10x_StdPeriph_Driver/src/stm32f10x_flash.c ****    |-----------------------------------------------------------------------------------------------
 164:../Library/STM32F10x_StdPeriph_Driver/src/stm32f10x_flash.c ****    |FLASH_ProgramWord                   |    Yes     |      Yes      | Updated to program up to 1MB
 165:../Library/STM32F10x_StdPeriph_Driver/src/stm32f10x_flash.c ****    |-----------------------------------------------------------------------------------------------
 166:../Library/STM32F10x_StdPeriph_Driver/src/stm32f10x_flash.c ****    |FLASH_ProgramHalfWord               |    Yes     |      Yes      | Updated to program up to 1MB
 167:../Library/STM32F10x_StdPeriph_Driver/src/stm32f10x_flash.c ****    |-----------------------------------------------------------------------------------------------
 168:../Library/STM32F10x_StdPeriph_Driver/src/stm32f10x_flash.c ****    |FLASH_ProgramOptionByteData         |    Yes     |      Yes      | No change                   
 169:../Library/STM32F10x_StdPeriph_Driver/src/stm32f10x_flash.c ****    |-----------------------------------------------------------------------------------------------
 170:../Library/STM32F10x_StdPeriph_Driver/src/stm32f10x_flash.c ****    |FLASH_EnableWriteProtection         |    Yes     |      Yes      | No change                   
 171:../Library/STM32F10x_StdPeriph_Driver/src/stm32f10x_flash.c ****    |-----------------------------------------------------------------------------------------------
 172:../Library/STM32F10x_StdPeriph_Driver/src/stm32f10x_flash.c ****    |FLASH_ReadOutProtection             |    Yes     |      Yes      | No change                   
 173:../Library/STM32F10x_StdPeriph_Driver/src/stm32f10x_flash.c ****    |-----------------------------------------------------------------------------------------------
 174:../Library/STM32F10x_StdPeriph_Driver/src/stm32f10x_flash.c ****    |FLASH_UserOptionByteConfig          |    Yes     |      Yes      | No change                   
 175:../Library/STM32F10x_StdPeriph_Driver/src/stm32f10x_flash.c ****    |-----------------------------------------------------------------------------------------------
 176:../Library/STM32F10x_StdPeriph_Driver/src/stm32f10x_flash.c ****    |FLASH_GetUserOptionByte             |    Yes     |      Yes      | No change                   
 177:../Library/STM32F10x_StdPeriph_Driver/src/stm32f10x_flash.c ****    |-----------------------------------------------------------------------------------------------
 178:../Library/STM32F10x_StdPeriph_Driver/src/stm32f10x_flash.c ****    |FLASH_GetWriteProtectionOptionByte  |    Yes     |      Yes      | No change                   
 179:../Library/STM32F10x_StdPeriph_Driver/src/stm32f10x_flash.c ****    |-----------------------------------------------------------------------------------------------
 180:../Library/STM32F10x_StdPeriph_Driver/src/stm32f10x_flash.c ****    |FLASH_GetReadOutProtectionStatus    |    Yes     |      Yes      | No change                   
 181:../Library/STM32F10x_StdPeriph_Driver/src/stm32f10x_flash.c ****    |-----------------------------------------------------------------------------------------------
 182:../Library/STM32F10x_StdPeriph_Driver/src/stm32f10x_flash.c ****    |FLASH_GetPrefetchBufferStatus       |    Yes     |      Yes      | No change                   
 183:../Library/STM32F10x_StdPeriph_Driver/src/stm32f10x_flash.c ****    |-----------------------------------------------------------------------------------------------
 184:../Library/STM32F10x_StdPeriph_Driver/src/stm32f10x_flash.c ****    |FLASH_ITConfig                      |    Yes     |      Yes      | - For STM32F10x_XL devices: 
 185:../Library/STM32F10x_StdPeriph_Driver/src/stm32f10x_flash.c ****    |                                    |            |               | - For other devices: enable 
 186:../Library/STM32F10x_StdPeriph_Driver/src/stm32f10x_flash.c ****    |-----------------------------------------------------------------------------------------------
 187:../Library/STM32F10x_StdPeriph_Driver/src/stm32f10x_flash.c ****    |FLASH_GetFlagStatus                 |    Yes     |      Yes      | - For STM32F10x_XL devices: 
 188:../Library/STM32F10x_StdPeriph_Driver/src/stm32f10x_flash.c ****    |                                    |            |               | - For other devices: return 
 189:../Library/STM32F10x_StdPeriph_Driver/src/stm32f10x_flash.c ****    |-----------------------------------------------------------------------------------------------
 190:../Library/STM32F10x_StdPeriph_Driver/src/stm32f10x_flash.c ****    |FLASH_ClearFlag                     |    Yes     |      Yes      | - For STM32F10x_XL devices: 
 191:../Library/STM32F10x_StdPeriph_Driver/src/stm32f10x_flash.c ****    |                                    |            |               | - For other devices: clear B
 192:../Library/STM32F10x_StdPeriph_Driver/src/stm32f10x_flash.c ****    |-----------------------------------------------------------------------------------------------
 193:../Library/STM32F10x_StdPeriph_Driver/src/stm32f10x_flash.c ****    |FLASH_GetStatus                     |    Yes     |      Yes      | - Return the status of Bank1
 194:../Library/STM32F10x_StdPeriph_Driver/src/stm32f10x_flash.c ****    |                                    |            |               |   equivalent to FLASH_GetBan
 195:../Library/STM32F10x_StdPeriph_Driver/src/stm32f10x_flash.c ****    |-----------------------------------------------------------------------------------------------
 196:../Library/STM32F10x_StdPeriph_Driver/src/stm32f10x_flash.c ****    |FLASH_WaitForLastOperation          |    Yes     |      Yes      | - Wait for Bank1 last operat
 197:../Library/STM32F10x_StdPeriph_Driver/src/stm32f10x_flash.c ****    |                                    |            |               |   equivalent to: FLASH_WaitF
 198:../Library/STM32F10x_StdPeriph_Driver/src/stm32f10x_flash.c ****    +-----------------------------------------------------------------------------------------------
 199:../Library/STM32F10x_StdPeriph_Driver/src/stm32f10x_flash.c **** 
 200:../Library/STM32F10x_StdPeriph_Driver/src/stm32f10x_flash.c ****    ************************************************************************************************
 201:../Library/STM32F10x_StdPeriph_Driver/src/stm32f10x_flash.c ****    * New functions used for all STM32F10x devices to manage Bank1:                                 
 202:../Library/STM32F10x_StdPeriph_Driver/src/stm32f10x_flash.c ****    *   - These functions are mainly useful for STM32F10x_XL density devices, to have separate contr
 203:../Library/STM32F10x_StdPeriph_Driver/src/stm32f10x_flash.c ****    *   - For other devices, these functions are optional (covered by functions listed above)       
 204:../Library/STM32F10x_StdPeriph_Driver/src/stm32f10x_flash.c ****    ************************************************************************************************
 205:../Library/STM32F10x_StdPeriph_Driver/src/stm32f10x_flash.c ****    +-----------------------------------------------------------------------------------------------
 206:../Library/STM32F10x_StdPeriph_Driver/src/stm32f10x_flash.c ****    |       Functions prototypes         |STM32F10x_XL|Other STM32F10x|    Comments                 
 207:../Library/STM32F10x_StdPeriph_Driver/src/stm32f10x_flash.c ****    |                                    |   devices  |  devices      |                             
 208:../Library/STM32F10x_StdPeriph_Driver/src/stm32f10x_flash.c ****    |-----------------------------------------------------------------------------------------------
 209:../Library/STM32F10x_StdPeriph_Driver/src/stm32f10x_flash.c ****    | FLASH_UnlockBank1                  |    Yes     |      Yes      | - Unlock Bank1              
 210:../Library/STM32F10x_StdPeriph_Driver/src/stm32f10x_flash.c ****    |-----------------------------------------------------------------------------------------------
 211:../Library/STM32F10x_StdPeriph_Driver/src/stm32f10x_flash.c ****    |FLASH_LockBank1                     |    Yes     |      Yes      | - Lock Bank1                
 212:../Library/STM32F10x_StdPeriph_Driver/src/stm32f10x_flash.c ****    |-----------------------------------------------------------------------------------------------
 213:../Library/STM32F10x_StdPeriph_Driver/src/stm32f10x_flash.c ****    | FLASH_EraseAllBank1Pages           |    Yes     |      Yes      | - Erase all pages in Bank1  
 214:../Library/STM32F10x_StdPeriph_Driver/src/stm32f10x_flash.c ****    |-----------------------------------------------------------------------------------------------
 215:../Library/STM32F10x_StdPeriph_Driver/src/stm32f10x_flash.c ****    | FLASH_GetBank1Status               |    Yes     |      Yes      | - Return the status of Bank1
 216:../Library/STM32F10x_StdPeriph_Driver/src/stm32f10x_flash.c ****    |-----------------------------------------------------------------------------------------------
 217:../Library/STM32F10x_StdPeriph_Driver/src/stm32f10x_flash.c ****    | FLASH_WaitForLastBank1Operation    |    Yes     |      Yes      | - Wait for Bank1 last operat
 218:../Library/STM32F10x_StdPeriph_Driver/src/stm32f10x_flash.c ****    +-----------------------------------------------------------------------------------------------
 219:../Library/STM32F10x_StdPeriph_Driver/src/stm32f10x_flash.c **** 
 220:../Library/STM32F10x_StdPeriph_Driver/src/stm32f10x_flash.c ****    *****************************************************************************
 221:../Library/STM32F10x_StdPeriph_Driver/src/stm32f10x_flash.c ****    * New Functions used only with STM32F10x_XL density devices to manage Bank2 *
 222:../Library/STM32F10x_StdPeriph_Driver/src/stm32f10x_flash.c ****    *****************************************************************************
 223:../Library/STM32F10x_StdPeriph_Driver/src/stm32f10x_flash.c ****    +-----------------------------------------------------------------------------------------------
 224:../Library/STM32F10x_StdPeriph_Driver/src/stm32f10x_flash.c ****    |       Functions prototypes         |STM32F10x_XL|Other STM32F10x|    Comments                 
 225:../Library/STM32F10x_StdPeriph_Driver/src/stm32f10x_flash.c ****    |                                    |   devices  |  devices      |                             
 226:../Library/STM32F10x_StdPeriph_Driver/src/stm32f10x_flash.c ****    |-----------------------------------------------------------------------------------------------
 227:../Library/STM32F10x_StdPeriph_Driver/src/stm32f10x_flash.c ****    | FLASH_UnlockBank2                  |    Yes     |      No       | - Unlock Bank2              
 228:../Library/STM32F10x_StdPeriph_Driver/src/stm32f10x_flash.c ****    |-----------------------------------------------------------------------------------------------
 229:../Library/STM32F10x_StdPeriph_Driver/src/stm32f10x_flash.c ****    |FLASH_LockBank2                     |    Yes     |      No       | - Lock Bank2                
 230:../Library/STM32F10x_StdPeriph_Driver/src/stm32f10x_flash.c ****    |-----------------------------------------------------------------------------------------------
 231:../Library/STM32F10x_StdPeriph_Driver/src/stm32f10x_flash.c ****    | FLASH_EraseAllBank2Pages           |    Yes     |      No       | - Erase all pages in Bank2  
 232:../Library/STM32F10x_StdPeriph_Driver/src/stm32f10x_flash.c ****    |-----------------------------------------------------------------------------------------------
 233:../Library/STM32F10x_StdPeriph_Driver/src/stm32f10x_flash.c ****    | FLASH_GetBank2Status               |    Yes     |      No       | - Return the status of Bank2
 234:../Library/STM32F10x_StdPeriph_Driver/src/stm32f10x_flash.c ****    |-----------------------------------------------------------------------------------------------
 235:../Library/STM32F10x_StdPeriph_Driver/src/stm32f10x_flash.c ****    | FLASH_WaitForLastBank2Operation    |    Yes     |      No       | - Wait for Bank2 last operat
 236:../Library/STM32F10x_StdPeriph_Driver/src/stm32f10x_flash.c ****    |-----------------------------------------------------------------------------------------------
 237:../Library/STM32F10x_StdPeriph_Driver/src/stm32f10x_flash.c ****    | FLASH_BootConfig                   |    Yes     |      No       | - Configure to boot from Ban
 238:../Library/STM32F10x_StdPeriph_Driver/src/stm32f10x_flash.c ****    +-----------------------------------------------------------------------------------------------
 239:../Library/STM32F10x_StdPeriph_Driver/src/stm32f10x_flash.c **** @endcode
 240:../Library/STM32F10x_StdPeriph_Driver/src/stm32f10x_flash.c **** */
 241:../Library/STM32F10x_StdPeriph_Driver/src/stm32f10x_flash.c **** 
 242:../Library/STM32F10x_StdPeriph_Driver/src/stm32f10x_flash.c **** 
 243:../Library/STM32F10x_StdPeriph_Driver/src/stm32f10x_flash.c **** /**
 244:../Library/STM32F10x_StdPeriph_Driver/src/stm32f10x_flash.c ****   * @brief  Sets the code latency value.
 245:../Library/STM32F10x_StdPeriph_Driver/src/stm32f10x_flash.c ****   * @note   This function can be used for all STM32F10x devices.
 246:../Library/STM32F10x_StdPeriph_Driver/src/stm32f10x_flash.c ****   * @param  FLASH_Latency: specifies the FLASH Latency value.
 247:../Library/STM32F10x_StdPeriph_Driver/src/stm32f10x_flash.c ****   *   This parameter can be one of the following values:
 248:../Library/STM32F10x_StdPeriph_Driver/src/stm32f10x_flash.c ****   *     @arg FLASH_Latency_0: FLASH Zero Latency cycle
 249:../Library/STM32F10x_StdPeriph_Driver/src/stm32f10x_flash.c ****   *     @arg FLASH_Latency_1: FLASH One Latency cycle
 250:../Library/STM32F10x_StdPeriph_Driver/src/stm32f10x_flash.c ****   *     @arg FLASH_Latency_2: FLASH Two Latency cycles
 251:../Library/STM32F10x_StdPeriph_Driver/src/stm32f10x_flash.c ****   * @retval None
 252:../Library/STM32F10x_StdPeriph_Driver/src/stm32f10x_flash.c ****   */
 253:../Library/STM32F10x_StdPeriph_Driver/src/stm32f10x_flash.c **** void FLASH_SetLatency(uint32_t FLASH_Latency)
 254:../Library/STM32F10x_StdPeriph_Driver/src/stm32f10x_flash.c **** {
 18321              		.loc 1 254 0
 18322              		.cfi_startproc
 18323              		@ args = 0, pretend = 0, frame = 0
 18324              		@ frame_needed = 0, uses_anonymous_args = 0
 18325              		@ link register save eliminated.
 18326              	.LVL0:
 255:../Library/STM32F10x_StdPeriph_Driver/src/stm32f10x_flash.c ****   uint32_t tmpreg = 0;
 256:../Library/STM32F10x_StdPeriph_Driver/src/stm32f10x_flash.c ****   
 257:../Library/STM32F10x_StdPeriph_Driver/src/stm32f10x_flash.c ****   /* Check the parameters */
 258:../Library/STM32F10x_StdPeriph_Driver/src/stm32f10x_flash.c ****   assert_param(IS_FLASH_LATENCY(FLASH_Latency));
 259:../Library/STM32F10x_StdPeriph_Driver/src/stm32f10x_flash.c ****   
 260:../Library/STM32F10x_StdPeriph_Driver/src/stm32f10x_flash.c ****   /* Read the ACR register */
 261:../Library/STM32F10x_StdPeriph_Driver/src/stm32f10x_flash.c ****   tmpreg = FLASH->ACR;  
 18327              		.loc 1 261 0
 18328 0000 42F20003 		movw	r3, #:lower16:1073881088
 18329 0004 C4F20203 		movt	r3, #:upper16:1073881088
 18330 0008 1A68     		ldr	r2, [r3, #0]
 18331              	.LVL1:
 262:../Library/STM32F10x_StdPeriph_Driver/src/stm32f10x_flash.c ****   
 263:../Library/STM32F10x_StdPeriph_Driver/src/stm32f10x_flash.c ****   /* Sets the Latency value */
 264:../Library/STM32F10x_StdPeriph_Driver/src/stm32f10x_flash.c ****   tmpreg &= ACR_LATENCY_Mask;
 18332              		.loc 1 264 0
 18333 000a 02F03802 		and	r2, r2, #56
 18334              	.LVL2:
 265:../Library/STM32F10x_StdPeriph_Driver/src/stm32f10x_flash.c ****   tmpreg |= FLASH_Latency;
 18335              		.loc 1 265 0
 18336 000e 40EA0202 		orr	r2, r0, r2
 18337              	.LVL3:
 266:../Library/STM32F10x_StdPeriph_Driver/src/stm32f10x_flash.c ****   
 267:../Library/STM32F10x_StdPeriph_Driver/src/stm32f10x_flash.c ****   /* Write the ACR register */
 268:../Library/STM32F10x_StdPeriph_Driver/src/stm32f10x_flash.c ****   FLASH->ACR = tmpreg;
 18338              		.loc 1 268 0
 18339 0012 1A60     		str	r2, [r3, #0]
 269:../Library/STM32F10x_StdPeriph_Driver/src/stm32f10x_flash.c **** }
 18340              		.loc 1 269 0
 18341 0014 7047     		bx	lr
 18342              		.cfi_endproc
 18343              	.LFE29:
 18345 0016 00BF     		.section	.text.FLASH_HalfCycleAccessCmd,"ax",%progbits
 18346              		.align	2
 18347              		.global	FLASH_HalfCycleAccessCmd
 18348              		.thumb
 18349              		.thumb_func
 18351              	FLASH_HalfCycleAccessCmd:
 18352              	.LFB30:
 270:../Library/STM32F10x_StdPeriph_Driver/src/stm32f10x_flash.c **** 
 271:../Library/STM32F10x_StdPeriph_Driver/src/stm32f10x_flash.c **** /**
 272:../Library/STM32F10x_StdPeriph_Driver/src/stm32f10x_flash.c ****   * @brief  Enables or disables the Half cycle flash access.
 273:../Library/STM32F10x_StdPeriph_Driver/src/stm32f10x_flash.c ****   * @note   This function can be used for all STM32F10x devices.
 274:../Library/STM32F10x_StdPeriph_Driver/src/stm32f10x_flash.c ****   * @param  FLASH_HalfCycleAccess: specifies the FLASH Half cycle Access mode.
 275:../Library/STM32F10x_StdPeriph_Driver/src/stm32f10x_flash.c ****   *   This parameter can be one of the following values:
 276:../Library/STM32F10x_StdPeriph_Driver/src/stm32f10x_flash.c ****   *     @arg FLASH_HalfCycleAccess_Enable: FLASH Half Cycle Enable
 277:../Library/STM32F10x_StdPeriph_Driver/src/stm32f10x_flash.c ****   *     @arg FLASH_HalfCycleAccess_Disable: FLASH Half Cycle Disable
 278:../Library/STM32F10x_StdPeriph_Driver/src/stm32f10x_flash.c ****   * @retval None
 279:../Library/STM32F10x_StdPeriph_Driver/src/stm32f10x_flash.c ****   */
 280:../Library/STM32F10x_StdPeriph_Driver/src/stm32f10x_flash.c **** void FLASH_HalfCycleAccessCmd(uint32_t FLASH_HalfCycleAccess)
 281:../Library/STM32F10x_StdPeriph_Driver/src/stm32f10x_flash.c **** {
 18353              		.loc 1 281 0
 18354              		.cfi_startproc
 18355              		@ args = 0, pretend = 0, frame = 0
 18356              		@ frame_needed = 0, uses_anonymous_args = 0
 18357              		@ link register save eliminated.
 18358              	.LVL4:
 282:../Library/STM32F10x_StdPeriph_Driver/src/stm32f10x_flash.c ****   /* Check the parameters */
 283:../Library/STM32F10x_StdPeriph_Driver/src/stm32f10x_flash.c ****   assert_param(IS_FLASH_HALFCYCLEACCESS_STATE(FLASH_HalfCycleAccess));
 284:../Library/STM32F10x_StdPeriph_Driver/src/stm32f10x_flash.c ****   
 285:../Library/STM32F10x_StdPeriph_Driver/src/stm32f10x_flash.c ****   /* Enable or disable the Half cycle access */
 286:../Library/STM32F10x_StdPeriph_Driver/src/stm32f10x_flash.c ****   FLASH->ACR &= ACR_HLFCYA_Mask;
 18359              		.loc 1 286 0
 18360 0000 42F20003 		movw	r3, #:lower16:1073881088
 18361 0004 C4F20203 		movt	r3, #:upper16:1073881088
 18362 0008 1A68     		ldr	r2, [r3, #0]
 18363 000a 22F00802 		bic	r2, r2, #8
 18364 000e 1A60     		str	r2, [r3, #0]
 287:../Library/STM32F10x_StdPeriph_Driver/src/stm32f10x_flash.c ****   FLASH->ACR |= FLASH_HalfCycleAccess;
 18365              		.loc 1 287 0
 18366 0010 1A68     		ldr	r2, [r3, #0]
 18367 0012 40EA0202 		orr	r2, r0, r2
 18368 0016 1A60     		str	r2, [r3, #0]
 288:../Library/STM32F10x_StdPeriph_Driver/src/stm32f10x_flash.c **** }
 18369              		.loc 1 288 0
 18370 0018 7047     		bx	lr
 18371              		.cfi_endproc
 18372              	.LFE30:
 18374 001a 00BF     		.section	.text.FLASH_PrefetchBufferCmd,"ax",%progbits
 18375              		.align	2
 18376              		.global	FLASH_PrefetchBufferCmd
 18377              		.thumb
 18378              		.thumb_func
 18380              	FLASH_PrefetchBufferCmd:
 18381              	.LFB31:
 289:../Library/STM32F10x_StdPeriph_Driver/src/stm32f10x_flash.c **** 
 290:../Library/STM32F10x_StdPeriph_Driver/src/stm32f10x_flash.c **** /**
 291:../Library/STM32F10x_StdPeriph_Driver/src/stm32f10x_flash.c ****   * @brief  Enables or disables the Prefetch Buffer.
 292:../Library/STM32F10x_StdPeriph_Driver/src/stm32f10x_flash.c ****   * @note   This function can be used for all STM32F10x devices.
 293:../Library/STM32F10x_StdPeriph_Driver/src/stm32f10x_flash.c ****   * @param  FLASH_PrefetchBuffer: specifies the Prefetch buffer status.
 294:../Library/STM32F10x_StdPeriph_Driver/src/stm32f10x_flash.c ****   *   This parameter can be one of the following values:
 295:../Library/STM32F10x_StdPeriph_Driver/src/stm32f10x_flash.c ****   *     @arg FLASH_PrefetchBuffer_Enable: FLASH Prefetch Buffer Enable
 296:../Library/STM32F10x_StdPeriph_Driver/src/stm32f10x_flash.c ****   *     @arg FLASH_PrefetchBuffer_Disable: FLASH Prefetch Buffer Disable
 297:../Library/STM32F10x_StdPeriph_Driver/src/stm32f10x_flash.c ****   * @retval None
 298:../Library/STM32F10x_StdPeriph_Driver/src/stm32f10x_flash.c ****   */
 299:../Library/STM32F10x_StdPeriph_Driver/src/stm32f10x_flash.c **** void FLASH_PrefetchBufferCmd(uint32_t FLASH_PrefetchBuffer)
 300:../Library/STM32F10x_StdPeriph_Driver/src/stm32f10x_flash.c **** {
 18382              		.loc 1 300 0
 18383              		.cfi_startproc
 18384              		@ args = 0, pretend = 0, frame = 0
 18385              		@ frame_needed = 0, uses_anonymous_args = 0
 18386              		@ link register save eliminated.
 18387              	.LVL5:
 301:../Library/STM32F10x_StdPeriph_Driver/src/stm32f10x_flash.c ****   /* Check the parameters */
 302:../Library/STM32F10x_StdPeriph_Driver/src/stm32f10x_flash.c ****   assert_param(IS_FLASH_PREFETCHBUFFER_STATE(FLASH_PrefetchBuffer));
 303:../Library/STM32F10x_StdPeriph_Driver/src/stm32f10x_flash.c ****   
 304:../Library/STM32F10x_StdPeriph_Driver/src/stm32f10x_flash.c ****   /* Enable or disable the Prefetch Buffer */
 305:../Library/STM32F10x_StdPeriph_Driver/src/stm32f10x_flash.c ****   FLASH->ACR &= ACR_PRFTBE_Mask;
 18388              		.loc 1 305 0
 18389 0000 42F20003 		movw	r3, #:lower16:1073881088
 18390 0004 C4F20203 		movt	r3, #:upper16:1073881088
 18391 0008 1A68     		ldr	r2, [r3, #0]
 18392 000a 22F01002 		bic	r2, r2, #16
 18393 000e 1A60     		str	r2, [r3, #0]
 306:../Library/STM32F10x_StdPeriph_Driver/src/stm32f10x_flash.c ****   FLASH->ACR |= FLASH_PrefetchBuffer;
 18394              		.loc 1 306 0
 18395 0010 1A68     		ldr	r2, [r3, #0]
 18396 0012 40EA0202 		orr	r2, r0, r2
 18397 0016 1A60     		str	r2, [r3, #0]
 307:../Library/STM32F10x_StdPeriph_Driver/src/stm32f10x_flash.c **** }
 18398              		.loc 1 307 0
 18399 0018 7047     		bx	lr
 18400              		.cfi_endproc
 18401              	.LFE31:
 18403 001a 00BF     		.section	.text.FLASH_Unlock,"ax",%progbits
 18404              		.align	2
 18405              		.global	FLASH_Unlock
 18406              		.thumb
 18407              		.thumb_func
 18409              	FLASH_Unlock:
 18410              	.LFB32:
 308:../Library/STM32F10x_StdPeriph_Driver/src/stm32f10x_flash.c **** 
 309:../Library/STM32F10x_StdPeriph_Driver/src/stm32f10x_flash.c **** /**
 310:../Library/STM32F10x_StdPeriph_Driver/src/stm32f10x_flash.c ****   * @brief  Unlocks the FLASH Program Erase Controller.
 311:../Library/STM32F10x_StdPeriph_Driver/src/stm32f10x_flash.c ****   * @note   This function can be used for all STM32F10x devices.
 312:../Library/STM32F10x_StdPeriph_Driver/src/stm32f10x_flash.c ****   *         - For STM32F10X_XL devices this function unlocks Bank1 and Bank2.
 313:../Library/STM32F10x_StdPeriph_Driver/src/stm32f10x_flash.c ****   *         - For all other devices it unlocks Bank1 and it is equivalent 
 314:../Library/STM32F10x_StdPeriph_Driver/src/stm32f10x_flash.c ****   *           to FLASH_UnlockBank1 function.. 
 315:../Library/STM32F10x_StdPeriph_Driver/src/stm32f10x_flash.c ****   * @param  None
 316:../Library/STM32F10x_StdPeriph_Driver/src/stm32f10x_flash.c ****   * @retval None
 317:../Library/STM32F10x_StdPeriph_Driver/src/stm32f10x_flash.c ****   */
 318:../Library/STM32F10x_StdPeriph_Driver/src/stm32f10x_flash.c **** void FLASH_Unlock(void)
 319:../Library/STM32F10x_StdPeriph_Driver/src/stm32f10x_flash.c **** {
 18411              		.loc 1 319 0
 18412              		.cfi_startproc
 18413              		@ args = 0, pretend = 0, frame = 0
 18414              		@ frame_needed = 0, uses_anonymous_args = 0
 18415              		@ link register save eliminated.
 320:../Library/STM32F10x_StdPeriph_Driver/src/stm32f10x_flash.c ****   /* Authorize the FPEC of Bank1 Access */
 321:../Library/STM32F10x_StdPeriph_Driver/src/stm32f10x_flash.c ****   FLASH->KEYR = FLASH_KEY1;
 18416              		.loc 1 321 0
 18417 0000 42F20003 		movw	r3, #:lower16:1073881088
 18418 0004 C4F20203 		movt	r3, #:upper16:1073881088
 18419 0008 40F22312 		movw	r2, #:lower16:1164378403
 18420 000c C4F26752 		movt	r2, #:upper16:1164378403
 18421 0010 5A60     		str	r2, [r3, #4]
 322:../Library/STM32F10x_StdPeriph_Driver/src/stm32f10x_flash.c ****   FLASH->KEYR = FLASH_KEY2;
 18422              		.loc 1 322 0
 18423 0012 48F6AB12 		movw	r2, #:lower16:-839939669
 18424 0016 CCF6EF52 		movt	r2, #:upper16:-839939669
 18425 001a 5A60     		str	r2, [r3, #4]
 323:../Library/STM32F10x_StdPeriph_Driver/src/stm32f10x_flash.c **** 
 324:../Library/STM32F10x_StdPeriph_Driver/src/stm32f10x_flash.c **** #ifdef STM32F10X_XL
 325:../Library/STM32F10x_StdPeriph_Driver/src/stm32f10x_flash.c ****   /* Authorize the FPEC of Bank2 Access */
 326:../Library/STM32F10x_StdPeriph_Driver/src/stm32f10x_flash.c ****   FLASH->KEYR2 = FLASH_KEY1;
 327:../Library/STM32F10x_StdPeriph_Driver/src/stm32f10x_flash.c ****   FLASH->KEYR2 = FLASH_KEY2;
 328:../Library/STM32F10x_StdPeriph_Driver/src/stm32f10x_flash.c **** #endif /* STM32F10X_XL */
 329:../Library/STM32F10x_StdPeriph_Driver/src/stm32f10x_flash.c **** }
 18426              		.loc 1 329 0
 18427 001c 7047     		bx	lr
 18428              		.cfi_endproc
 18429              	.LFE32:
 18431 001e 00BF     		.section	.text.FLASH_UnlockBank1,"ax",%progbits
 18432              		.align	2
 18433              		.global	FLASH_UnlockBank1
 18434              		.thumb
 18435              		.thumb_func
 18437              	FLASH_UnlockBank1:
 18438              	.LFB33:
 330:../Library/STM32F10x_StdPeriph_Driver/src/stm32f10x_flash.c **** /**
 331:../Library/STM32F10x_StdPeriph_Driver/src/stm32f10x_flash.c ****   * @brief  Unlocks the FLASH Bank1 Program Erase Controller.
 332:../Library/STM32F10x_StdPeriph_Driver/src/stm32f10x_flash.c ****   * @note   This function can be used for all STM32F10x devices.
 333:../Library/STM32F10x_StdPeriph_Driver/src/stm32f10x_flash.c ****   *         - For STM32F10X_XL devices this function unlocks Bank1.
 334:../Library/STM32F10x_StdPeriph_Driver/src/stm32f10x_flash.c ****   *         - For all other devices it unlocks Bank1 and it is 
 335:../Library/STM32F10x_StdPeriph_Driver/src/stm32f10x_flash.c ****   *           equivalent to FLASH_Unlock function.
 336:../Library/STM32F10x_StdPeriph_Driver/src/stm32f10x_flash.c ****   * @param  None
 337:../Library/STM32F10x_StdPeriph_Driver/src/stm32f10x_flash.c ****   * @retval None
 338:../Library/STM32F10x_StdPeriph_Driver/src/stm32f10x_flash.c ****   */
 339:../Library/STM32F10x_StdPeriph_Driver/src/stm32f10x_flash.c **** void FLASH_UnlockBank1(void)
 340:../Library/STM32F10x_StdPeriph_Driver/src/stm32f10x_flash.c **** {
 18439              		.loc 1 340 0
 18440              		.cfi_startproc
 18441              		@ args = 0, pretend = 0, frame = 0
 18442              		@ frame_needed = 0, uses_anonymous_args = 0
 18443              		@ link register save eliminated.
 341:../Library/STM32F10x_StdPeriph_Driver/src/stm32f10x_flash.c ****   /* Authorize the FPEC of Bank1 Access */
 342:../Library/STM32F10x_StdPeriph_Driver/src/stm32f10x_flash.c ****   FLASH->KEYR = FLASH_KEY1;
 18444              		.loc 1 342 0
 18445 0000 42F20003 		movw	r3, #:lower16:1073881088
 18446 0004 C4F20203 		movt	r3, #:upper16:1073881088
 18447 0008 40F22312 		movw	r2, #:lower16:1164378403
 18448 000c C4F26752 		movt	r2, #:upper16:1164378403
 18449 0010 5A60     		str	r2, [r3, #4]
 343:../Library/STM32F10x_StdPeriph_Driver/src/stm32f10x_flash.c ****   FLASH->KEYR = FLASH_KEY2;
 18450              		.loc 1 343 0
 18451 0012 48F6AB12 		movw	r2, #:lower16:-839939669
 18452 0016 CCF6EF52 		movt	r2, #:upper16:-839939669
 18453 001a 5A60     		str	r2, [r3, #4]
 344:../Library/STM32F10x_StdPeriph_Driver/src/stm32f10x_flash.c **** }
 18454              		.loc 1 344 0
 18455 001c 7047     		bx	lr
 18456              		.cfi_endproc
 18457              	.LFE33:
 18459 001e 00BF     		.section	.text.FLASH_Lock,"ax",%progbits
 18460              		.align	2
 18461              		.global	FLASH_Lock
 18462              		.thumb
 18463              		.thumb_func
 18465              	FLASH_Lock:
 18466              	.LFB34:
 345:../Library/STM32F10x_StdPeriph_Driver/src/stm32f10x_flash.c **** 
 346:../Library/STM32F10x_StdPeriph_Driver/src/stm32f10x_flash.c **** #ifdef STM32F10X_XL
 347:../Library/STM32F10x_StdPeriph_Driver/src/stm32f10x_flash.c **** /**
 348:../Library/STM32F10x_StdPeriph_Driver/src/stm32f10x_flash.c ****   * @brief  Unlocks the FLASH Bank2 Program Erase Controller.
 349:../Library/STM32F10x_StdPeriph_Driver/src/stm32f10x_flash.c ****   * @note   This function can be used only for STM32F10X_XL density devices.
 350:../Library/STM32F10x_StdPeriph_Driver/src/stm32f10x_flash.c ****   * @param  None
 351:../Library/STM32F10x_StdPeriph_Driver/src/stm32f10x_flash.c ****   * @retval None
 352:../Library/STM32F10x_StdPeriph_Driver/src/stm32f10x_flash.c ****   */
 353:../Library/STM32F10x_StdPeriph_Driver/src/stm32f10x_flash.c **** void FLASH_UnlockBank2(void)
 354:../Library/STM32F10x_StdPeriph_Driver/src/stm32f10x_flash.c **** {
 355:../Library/STM32F10x_StdPeriph_Driver/src/stm32f10x_flash.c ****   /* Authorize the FPEC of Bank2 Access */
 356:../Library/STM32F10x_StdPeriph_Driver/src/stm32f10x_flash.c ****   FLASH->KEYR2 = FLASH_KEY1;
 357:../Library/STM32F10x_StdPeriph_Driver/src/stm32f10x_flash.c ****   FLASH->KEYR2 = FLASH_KEY2;
 358:../Library/STM32F10x_StdPeriph_Driver/src/stm32f10x_flash.c **** 
 359:../Library/STM32F10x_StdPeriph_Driver/src/stm32f10x_flash.c **** }
 360:../Library/STM32F10x_StdPeriph_Driver/src/stm32f10x_flash.c **** #endif /* STM32F10X_XL */
 361:../Library/STM32F10x_StdPeriph_Driver/src/stm32f10x_flash.c **** 
 362:../Library/STM32F10x_StdPeriph_Driver/src/stm32f10x_flash.c **** /**
 363:../Library/STM32F10x_StdPeriph_Driver/src/stm32f10x_flash.c ****   * @brief  Locks the FLASH Program Erase Controller.
 364:../Library/STM32F10x_StdPeriph_Driver/src/stm32f10x_flash.c ****   * @note   This function can be used for all STM32F10x devices.
 365:../Library/STM32F10x_StdPeriph_Driver/src/stm32f10x_flash.c ****   *         - For STM32F10X_XL devices this function Locks Bank1 and Bank2.
 366:../Library/STM32F10x_StdPeriph_Driver/src/stm32f10x_flash.c ****   *         - For all other devices it Locks Bank1 and it is equivalent 
 367:../Library/STM32F10x_StdPeriph_Driver/src/stm32f10x_flash.c ****   *           to FLASH_LockBank1 function.
 368:../Library/STM32F10x_StdPeriph_Driver/src/stm32f10x_flash.c ****   * @param  None
 369:../Library/STM32F10x_StdPeriph_Driver/src/stm32f10x_flash.c ****   * @retval None
 370:../Library/STM32F10x_StdPeriph_Driver/src/stm32f10x_flash.c ****   */
 371:../Library/STM32F10x_StdPeriph_Driver/src/stm32f10x_flash.c **** void FLASH_Lock(void)
 372:../Library/STM32F10x_StdPeriph_Driver/src/stm32f10x_flash.c **** {
 18467              		.loc 1 372 0
 18468              		.cfi_startproc
 18469              		@ args = 0, pretend = 0, frame = 0
 18470              		@ frame_needed = 0, uses_anonymous_args = 0
 18471              		@ link register save eliminated.
 373:../Library/STM32F10x_StdPeriph_Driver/src/stm32f10x_flash.c ****   /* Set the Lock Bit to lock the FPEC and the CR of  Bank1 */
 374:../Library/STM32F10x_StdPeriph_Driver/src/stm32f10x_flash.c ****   FLASH->CR |= CR_LOCK_Set;
 18472              		.loc 1 374 0
 18473 0000 42F20003 		movw	r3, #:lower16:1073881088
 18474 0004 C4F20203 		movt	r3, #:upper16:1073881088
 18475 0008 1A69     		ldr	r2, [r3, #16]
 18476 000a 42F08002 		orr	r2, r2, #128
 18477 000e 1A61     		str	r2, [r3, #16]
 375:../Library/STM32F10x_StdPeriph_Driver/src/stm32f10x_flash.c **** 
 376:../Library/STM32F10x_StdPeriph_Driver/src/stm32f10x_flash.c **** #ifdef STM32F10X_XL
 377:../Library/STM32F10x_StdPeriph_Driver/src/stm32f10x_flash.c ****   /* Set the Lock Bit to lock the FPEC and the CR of  Bank2 */
 378:../Library/STM32F10x_StdPeriph_Driver/src/stm32f10x_flash.c ****   FLASH->CR2 |= CR_LOCK_Set;
 379:../Library/STM32F10x_StdPeriph_Driver/src/stm32f10x_flash.c **** #endif /* STM32F10X_XL */
 380:../Library/STM32F10x_StdPeriph_Driver/src/stm32f10x_flash.c **** }
 18478              		.loc 1 380 0
 18479 0010 7047     		bx	lr
 18480              		.cfi_endproc
 18481              	.LFE34:
 18483              		.section	.text.FLASH_LockBank1,"ax",%progbits
 18484              		.align	2
 18485              		.global	FLASH_LockBank1
 18486              		.thumb
 18487              		.thumb_func
 18489              	FLASH_LockBank1:
 18490              	.LFB35:
 381:../Library/STM32F10x_StdPeriph_Driver/src/stm32f10x_flash.c **** 
 382:../Library/STM32F10x_StdPeriph_Driver/src/stm32f10x_flash.c **** /**
 383:../Library/STM32F10x_StdPeriph_Driver/src/stm32f10x_flash.c ****   * @brief  Locks the FLASH Bank1 Program Erase Controller.
 384:../Library/STM32F10x_StdPeriph_Driver/src/stm32f10x_flash.c ****   * @note   this function can be used for all STM32F10x devices.
 385:../Library/STM32F10x_StdPeriph_Driver/src/stm32f10x_flash.c ****   *         - For STM32F10X_XL devices this function Locks Bank1.
 386:../Library/STM32F10x_StdPeriph_Driver/src/stm32f10x_flash.c ****   *         - For all other devices it Locks Bank1 and it is equivalent 
 387:../Library/STM32F10x_StdPeriph_Driver/src/stm32f10x_flash.c ****   *           to FLASH_Lock function.
 388:../Library/STM32F10x_StdPeriph_Driver/src/stm32f10x_flash.c ****   * @param  None
 389:../Library/STM32F10x_StdPeriph_Driver/src/stm32f10x_flash.c ****   * @retval None
 390:../Library/STM32F10x_StdPeriph_Driver/src/stm32f10x_flash.c ****   */
 391:../Library/STM32F10x_StdPeriph_Driver/src/stm32f10x_flash.c **** void FLASH_LockBank1(void)
 392:../Library/STM32F10x_StdPeriph_Driver/src/stm32f10x_flash.c **** {
 18491              		.loc 1 392 0
 18492              		.cfi_startproc
 18493              		@ args = 0, pretend = 0, frame = 0
 18494              		@ frame_needed = 0, uses_anonymous_args = 0
 18495              		@ link register save eliminated.
 393:../Library/STM32F10x_StdPeriph_Driver/src/stm32f10x_flash.c ****   /* Set the Lock Bit to lock the FPEC and the CR of  Bank1 */
 394:../Library/STM32F10x_StdPeriph_Driver/src/stm32f10x_flash.c ****   FLASH->CR |= CR_LOCK_Set;
 18496              		.loc 1 394 0
 18497 0000 42F20003 		movw	r3, #:lower16:1073881088
 18498 0004 C4F20203 		movt	r3, #:upper16:1073881088
 18499 0008 1A69     		ldr	r2, [r3, #16]
 18500 000a 42F08002 		orr	r2, r2, #128
 18501 000e 1A61     		str	r2, [r3, #16]
 395:../Library/STM32F10x_StdPeriph_Driver/src/stm32f10x_flash.c **** }
 18502              		.loc 1 395 0
 18503 0010 7047     		bx	lr
 18504              		.cfi_endproc
 18505              	.LFE35:
 18507              		.section	.text.FLASH_GetUserOptionByte,"ax",%progbits
 18508              		.align	2
 18509              		.global	FLASH_GetUserOptionByte
 18510              		.thumb
 18511              		.thumb_func
 18513              	FLASH_GetUserOptionByte:
 18514              	.LFB46:
 396:../Library/STM32F10x_StdPeriph_Driver/src/stm32f10x_flash.c **** 
 397:../Library/STM32F10x_StdPeriph_Driver/src/stm32f10x_flash.c **** #ifdef STM32F10X_XL
 398:../Library/STM32F10x_StdPeriph_Driver/src/stm32f10x_flash.c **** /**
 399:../Library/STM32F10x_StdPeriph_Driver/src/stm32f10x_flash.c ****   * @brief  Locks the FLASH Bank2 Program Erase Controller.
 400:../Library/STM32F10x_StdPeriph_Driver/src/stm32f10x_flash.c ****   * @note   This function can be used only for STM32F10X_XL density devices.
 401:../Library/STM32F10x_StdPeriph_Driver/src/stm32f10x_flash.c ****   * @param  None
 402:../Library/STM32F10x_StdPeriph_Driver/src/stm32f10x_flash.c ****   * @retval None
 403:../Library/STM32F10x_StdPeriph_Driver/src/stm32f10x_flash.c ****   */
 404:../Library/STM32F10x_StdPeriph_Driver/src/stm32f10x_flash.c **** void FLASH_LockBank2(void)
 405:../Library/STM32F10x_StdPeriph_Driver/src/stm32f10x_flash.c **** {
 406:../Library/STM32F10x_StdPeriph_Driver/src/stm32f10x_flash.c ****   /* Set the Lock Bit to lock the FPEC and the CR of  Bank2 */
 407:../Library/STM32F10x_StdPeriph_Driver/src/stm32f10x_flash.c ****   FLASH->CR2 |= CR_LOCK_Set;
 408:../Library/STM32F10x_StdPeriph_Driver/src/stm32f10x_flash.c **** }
 409:../Library/STM32F10x_StdPeriph_Driver/src/stm32f10x_flash.c **** #endif /* STM32F10X_XL */
 410:../Library/STM32F10x_StdPeriph_Driver/src/stm32f10x_flash.c **** 
 411:../Library/STM32F10x_StdPeriph_Driver/src/stm32f10x_flash.c **** /**
 412:../Library/STM32F10x_StdPeriph_Driver/src/stm32f10x_flash.c ****   * @brief  Erases a specified FLASH page.
 413:../Library/STM32F10x_StdPeriph_Driver/src/stm32f10x_flash.c ****   * @note   This function can be used for all STM32F10x devices.
 414:../Library/STM32F10x_StdPeriph_Driver/src/stm32f10x_flash.c ****   * @param  Page_Address: The page address to be erased.
 415:../Library/STM32F10x_StdPeriph_Driver/src/stm32f10x_flash.c ****   * @retval FLASH Status: The returned value can be: FLASH_BUSY, FLASH_ERROR_PG,
 416:../Library/STM32F10x_StdPeriph_Driver/src/stm32f10x_flash.c ****   *   FLASH_ERROR_WRP, FLASH_COMPLETE or FLASH_TIMEOUT.
 417:../Library/STM32F10x_StdPeriph_Driver/src/stm32f10x_flash.c ****   */
 418:../Library/STM32F10x_StdPeriph_Driver/src/stm32f10x_flash.c **** FLASH_Status FLASH_ErasePage(uint32_t Page_Address)
 419:../Library/STM32F10x_StdPeriph_Driver/src/stm32f10x_flash.c **** {
 420:../Library/STM32F10x_StdPeriph_Driver/src/stm32f10x_flash.c ****   FLASH_Status status = FLASH_COMPLETE;
 421:../Library/STM32F10x_StdPeriph_Driver/src/stm32f10x_flash.c ****   /* Check the parameters */
 422:../Library/STM32F10x_StdPeriph_Driver/src/stm32f10x_flash.c ****   assert_param(IS_FLASH_ADDRESS(Page_Address));
 423:../Library/STM32F10x_StdPeriph_Driver/src/stm32f10x_flash.c **** 
 424:../Library/STM32F10x_StdPeriph_Driver/src/stm32f10x_flash.c **** #ifdef STM32F10X_XL
 425:../Library/STM32F10x_StdPeriph_Driver/src/stm32f10x_flash.c ****   if(Page_Address < FLASH_BANK1_END_ADDRESS)  
 426:../Library/STM32F10x_StdPeriph_Driver/src/stm32f10x_flash.c ****   {
 427:../Library/STM32F10x_StdPeriph_Driver/src/stm32f10x_flash.c ****     /* Wait for last operation to be completed */
 428:../Library/STM32F10x_StdPeriph_Driver/src/stm32f10x_flash.c ****     status = FLASH_WaitForLastBank1Operation(EraseTimeout);
 429:../Library/STM32F10x_StdPeriph_Driver/src/stm32f10x_flash.c ****     if(status == FLASH_COMPLETE)
 430:../Library/STM32F10x_StdPeriph_Driver/src/stm32f10x_flash.c ****     { 
 431:../Library/STM32F10x_StdPeriph_Driver/src/stm32f10x_flash.c ****       /* if the previous operation is completed, proceed to erase the page */
 432:../Library/STM32F10x_StdPeriph_Driver/src/stm32f10x_flash.c ****       FLASH->CR|= CR_PER_Set;
 433:../Library/STM32F10x_StdPeriph_Driver/src/stm32f10x_flash.c ****       FLASH->AR = Page_Address; 
 434:../Library/STM32F10x_StdPeriph_Driver/src/stm32f10x_flash.c ****       FLASH->CR|= CR_STRT_Set;
 435:../Library/STM32F10x_StdPeriph_Driver/src/stm32f10x_flash.c ****     
 436:../Library/STM32F10x_StdPeriph_Driver/src/stm32f10x_flash.c ****       /* Wait for last operation to be completed */
 437:../Library/STM32F10x_StdPeriph_Driver/src/stm32f10x_flash.c ****       status = FLASH_WaitForLastBank1Operation(EraseTimeout);
 438:../Library/STM32F10x_StdPeriph_Driver/src/stm32f10x_flash.c ****       if(status != FLASH_TIMEOUT)
 439:../Library/STM32F10x_StdPeriph_Driver/src/stm32f10x_flash.c ****       {
 440:../Library/STM32F10x_StdPeriph_Driver/src/stm32f10x_flash.c ****         /* if the erase operation is completed, disable the PER Bit */
 441:../Library/STM32F10x_StdPeriph_Driver/src/stm32f10x_flash.c ****         FLASH->CR &= CR_PER_Reset;
 442:../Library/STM32F10x_StdPeriph_Driver/src/stm32f10x_flash.c ****       }
 443:../Library/STM32F10x_StdPeriph_Driver/src/stm32f10x_flash.c ****     }
 444:../Library/STM32F10x_StdPeriph_Driver/src/stm32f10x_flash.c ****   }
 445:../Library/STM32F10x_StdPeriph_Driver/src/stm32f10x_flash.c ****   else
 446:../Library/STM32F10x_StdPeriph_Driver/src/stm32f10x_flash.c ****   {
 447:../Library/STM32F10x_StdPeriph_Driver/src/stm32f10x_flash.c ****     /* Wait for last operation to be completed */
 448:../Library/STM32F10x_StdPeriph_Driver/src/stm32f10x_flash.c ****     status = FLASH_WaitForLastBank2Operation(EraseTimeout);
 449:../Library/STM32F10x_StdPeriph_Driver/src/stm32f10x_flash.c ****     if(status == FLASH_COMPLETE)
 450:../Library/STM32F10x_StdPeriph_Driver/src/stm32f10x_flash.c ****     { 
 451:../Library/STM32F10x_StdPeriph_Driver/src/stm32f10x_flash.c ****       /* if the previous operation is completed, proceed to erase the page */
 452:../Library/STM32F10x_StdPeriph_Driver/src/stm32f10x_flash.c ****       FLASH->CR2|= CR_PER_Set;
 453:../Library/STM32F10x_StdPeriph_Driver/src/stm32f10x_flash.c ****       FLASH->AR2 = Page_Address; 
 454:../Library/STM32F10x_StdPeriph_Driver/src/stm32f10x_flash.c ****       FLASH->CR2|= CR_STRT_Set;
 455:../Library/STM32F10x_StdPeriph_Driver/src/stm32f10x_flash.c ****     
 456:../Library/STM32F10x_StdPeriph_Driver/src/stm32f10x_flash.c ****       /* Wait for last operation to be completed */
 457:../Library/STM32F10x_StdPeriph_Driver/src/stm32f10x_flash.c ****       status = FLASH_WaitForLastBank2Operation(EraseTimeout);
 458:../Library/STM32F10x_StdPeriph_Driver/src/stm32f10x_flash.c ****       if(status != FLASH_TIMEOUT)
 459:../Library/STM32F10x_StdPeriph_Driver/src/stm32f10x_flash.c ****       {
 460:../Library/STM32F10x_StdPeriph_Driver/src/stm32f10x_flash.c ****         /* if the erase operation is completed, disable the PER Bit */
 461:../Library/STM32F10x_StdPeriph_Driver/src/stm32f10x_flash.c ****         FLASH->CR2 &= CR_PER_Reset;
 462:../Library/STM32F10x_StdPeriph_Driver/src/stm32f10x_flash.c ****       }
 463:../Library/STM32F10x_StdPeriph_Driver/src/stm32f10x_flash.c ****     }
 464:../Library/STM32F10x_StdPeriph_Driver/src/stm32f10x_flash.c ****   }
 465:../Library/STM32F10x_StdPeriph_Driver/src/stm32f10x_flash.c **** #else
 466:../Library/STM32F10x_StdPeriph_Driver/src/stm32f10x_flash.c ****   /* Wait for last operation to be completed */
 467:../Library/STM32F10x_StdPeriph_Driver/src/stm32f10x_flash.c ****   status = FLASH_WaitForLastOperation(EraseTimeout);
 468:../Library/STM32F10x_StdPeriph_Driver/src/stm32f10x_flash.c ****   
 469:../Library/STM32F10x_StdPeriph_Driver/src/stm32f10x_flash.c ****   if(status == FLASH_COMPLETE)
 470:../Library/STM32F10x_StdPeriph_Driver/src/stm32f10x_flash.c ****   { 
 471:../Library/STM32F10x_StdPeriph_Driver/src/stm32f10x_flash.c ****     /* if the previous operation is completed, proceed to erase the page */
 472:../Library/STM32F10x_StdPeriph_Driver/src/stm32f10x_flash.c ****     FLASH->CR|= CR_PER_Set;
 473:../Library/STM32F10x_StdPeriph_Driver/src/stm32f10x_flash.c ****     FLASH->AR = Page_Address; 
 474:../Library/STM32F10x_StdPeriph_Driver/src/stm32f10x_flash.c ****     FLASH->CR|= CR_STRT_Set;
 475:../Library/STM32F10x_StdPeriph_Driver/src/stm32f10x_flash.c ****     
 476:../Library/STM32F10x_StdPeriph_Driver/src/stm32f10x_flash.c ****     /* Wait for last operation to be completed */
 477:../Library/STM32F10x_StdPeriph_Driver/src/stm32f10x_flash.c ****     status = FLASH_WaitForLastOperation(EraseTimeout);
 478:../Library/STM32F10x_StdPeriph_Driver/src/stm32f10x_flash.c ****     if(status != FLASH_TIMEOUT)
 479:../Library/STM32F10x_StdPeriph_Driver/src/stm32f10x_flash.c ****     {
 480:../Library/STM32F10x_StdPeriph_Driver/src/stm32f10x_flash.c ****       /* if the erase operation is completed, disable the PER Bit */
 481:../Library/STM32F10x_StdPeriph_Driver/src/stm32f10x_flash.c ****       FLASH->CR &= CR_PER_Reset;
 482:../Library/STM32F10x_StdPeriph_Driver/src/stm32f10x_flash.c ****     }
 483:../Library/STM32F10x_StdPeriph_Driver/src/stm32f10x_flash.c ****   }
 484:../Library/STM32F10x_StdPeriph_Driver/src/stm32f10x_flash.c **** #endif /* STM32F10X_XL */
 485:../Library/STM32F10x_StdPeriph_Driver/src/stm32f10x_flash.c **** 
 486:../Library/STM32F10x_StdPeriph_Driver/src/stm32f10x_flash.c ****   /* Return the Erase Status */
 487:../Library/STM32F10x_StdPeriph_Driver/src/stm32f10x_flash.c ****   return status;
 488:../Library/STM32F10x_StdPeriph_Driver/src/stm32f10x_flash.c **** }
 489:../Library/STM32F10x_StdPeriph_Driver/src/stm32f10x_flash.c **** 
 490:../Library/STM32F10x_StdPeriph_Driver/src/stm32f10x_flash.c **** /**
 491:../Library/STM32F10x_StdPeriph_Driver/src/stm32f10x_flash.c ****   * @brief  Erases all FLASH pages.
 492:../Library/STM32F10x_StdPeriph_Driver/src/stm32f10x_flash.c ****   * @note   This function can be used for all STM32F10x devices.
 493:../Library/STM32F10x_StdPeriph_Driver/src/stm32f10x_flash.c ****   * @param  None
 494:../Library/STM32F10x_StdPeriph_Driver/src/stm32f10x_flash.c ****   * @retval FLASH Status: The returned value can be: FLASH_ERROR_PG,
 495:../Library/STM32F10x_StdPeriph_Driver/src/stm32f10x_flash.c ****   *   FLASH_ERROR_WRP, FLASH_COMPLETE or FLASH_TIMEOUT.
 496:../Library/STM32F10x_StdPeriph_Driver/src/stm32f10x_flash.c ****   */
 497:../Library/STM32F10x_StdPeriph_Driver/src/stm32f10x_flash.c **** FLASH_Status FLASH_EraseAllPages(void)
 498:../Library/STM32F10x_StdPeriph_Driver/src/stm32f10x_flash.c **** {
 499:../Library/STM32F10x_StdPeriph_Driver/src/stm32f10x_flash.c ****   FLASH_Status status = FLASH_COMPLETE;
 500:../Library/STM32F10x_StdPeriph_Driver/src/stm32f10x_flash.c **** 
 501:../Library/STM32F10x_StdPeriph_Driver/src/stm32f10x_flash.c **** #ifdef STM32F10X_XL
 502:../Library/STM32F10x_StdPeriph_Driver/src/stm32f10x_flash.c ****   /* Wait for last operation to be completed */
 503:../Library/STM32F10x_StdPeriph_Driver/src/stm32f10x_flash.c ****   status = FLASH_WaitForLastBank1Operation(EraseTimeout);
 504:../Library/STM32F10x_StdPeriph_Driver/src/stm32f10x_flash.c ****   
 505:../Library/STM32F10x_StdPeriph_Driver/src/stm32f10x_flash.c ****   if(status == FLASH_COMPLETE)
 506:../Library/STM32F10x_StdPeriph_Driver/src/stm32f10x_flash.c ****   {
 507:../Library/STM32F10x_StdPeriph_Driver/src/stm32f10x_flash.c ****     /* if the previous operation is completed, proceed to erase all pages */
 508:../Library/STM32F10x_StdPeriph_Driver/src/stm32f10x_flash.c ****      FLASH->CR |= CR_MER_Set;
 509:../Library/STM32F10x_StdPeriph_Driver/src/stm32f10x_flash.c ****      FLASH->CR |= CR_STRT_Set;
 510:../Library/STM32F10x_StdPeriph_Driver/src/stm32f10x_flash.c ****     
 511:../Library/STM32F10x_StdPeriph_Driver/src/stm32f10x_flash.c ****     /* Wait for last operation to be completed */
 512:../Library/STM32F10x_StdPeriph_Driver/src/stm32f10x_flash.c ****     status = FLASH_WaitForLastBank1Operation(EraseTimeout);
 513:../Library/STM32F10x_StdPeriph_Driver/src/stm32f10x_flash.c ****     if(status != FLASH_TIMEOUT)
 514:../Library/STM32F10x_StdPeriph_Driver/src/stm32f10x_flash.c ****     {
 515:../Library/STM32F10x_StdPeriph_Driver/src/stm32f10x_flash.c ****       /* if the erase operation is completed, disable the MER Bit */
 516:../Library/STM32F10x_StdPeriph_Driver/src/stm32f10x_flash.c ****       FLASH->CR &= CR_MER_Reset;
 517:../Library/STM32F10x_StdPeriph_Driver/src/stm32f10x_flash.c ****     }
 518:../Library/STM32F10x_StdPeriph_Driver/src/stm32f10x_flash.c ****   }    
 519:../Library/STM32F10x_StdPeriph_Driver/src/stm32f10x_flash.c ****   if(status == FLASH_COMPLETE)
 520:../Library/STM32F10x_StdPeriph_Driver/src/stm32f10x_flash.c ****   {
 521:../Library/STM32F10x_StdPeriph_Driver/src/stm32f10x_flash.c ****     /* if the previous operation is completed, proceed to erase all pages */
 522:../Library/STM32F10x_StdPeriph_Driver/src/stm32f10x_flash.c ****      FLASH->CR2 |= CR_MER_Set;
 523:../Library/STM32F10x_StdPeriph_Driver/src/stm32f10x_flash.c ****      FLASH->CR2 |= CR_STRT_Set;
 524:../Library/STM32F10x_StdPeriph_Driver/src/stm32f10x_flash.c ****     
 525:../Library/STM32F10x_StdPeriph_Driver/src/stm32f10x_flash.c ****     /* Wait for last operation to be completed */
 526:../Library/STM32F10x_StdPeriph_Driver/src/stm32f10x_flash.c ****     status = FLASH_WaitForLastBank2Operation(EraseTimeout);
 527:../Library/STM32F10x_StdPeriph_Driver/src/stm32f10x_flash.c ****     if(status != FLASH_TIMEOUT)
 528:../Library/STM32F10x_StdPeriph_Driver/src/stm32f10x_flash.c ****     {
 529:../Library/STM32F10x_StdPeriph_Driver/src/stm32f10x_flash.c ****       /* if the erase operation is completed, disable the MER Bit */
 530:../Library/STM32F10x_StdPeriph_Driver/src/stm32f10x_flash.c ****       FLASH->CR2 &= CR_MER_Reset;
 531:../Library/STM32F10x_StdPeriph_Driver/src/stm32f10x_flash.c ****     }
 532:../Library/STM32F10x_StdPeriph_Driver/src/stm32f10x_flash.c ****   }
 533:../Library/STM32F10x_StdPeriph_Driver/src/stm32f10x_flash.c **** #else
 534:../Library/STM32F10x_StdPeriph_Driver/src/stm32f10x_flash.c ****   /* Wait for last operation to be completed */
 535:../Library/STM32F10x_StdPeriph_Driver/src/stm32f10x_flash.c ****   status = FLASH_WaitForLastOperation(EraseTimeout);
 536:../Library/STM32F10x_StdPeriph_Driver/src/stm32f10x_flash.c ****   if(status == FLASH_COMPLETE)
 537:../Library/STM32F10x_StdPeriph_Driver/src/stm32f10x_flash.c ****   {
 538:../Library/STM32F10x_StdPeriph_Driver/src/stm32f10x_flash.c ****     /* if the previous operation is completed, proceed to erase all pages */
 539:../Library/STM32F10x_StdPeriph_Driver/src/stm32f10x_flash.c ****      FLASH->CR |= CR_MER_Set;
 540:../Library/STM32F10x_StdPeriph_Driver/src/stm32f10x_flash.c ****      FLASH->CR |= CR_STRT_Set;
 541:../Library/STM32F10x_StdPeriph_Driver/src/stm32f10x_flash.c ****     
 542:../Library/STM32F10x_StdPeriph_Driver/src/stm32f10x_flash.c ****     /* Wait for last operation to be completed */
 543:../Library/STM32F10x_StdPeriph_Driver/src/stm32f10x_flash.c ****     status = FLASH_WaitForLastOperation(EraseTimeout);
 544:../Library/STM32F10x_StdPeriph_Driver/src/stm32f10x_flash.c ****     if(status != FLASH_TIMEOUT)
 545:../Library/STM32F10x_StdPeriph_Driver/src/stm32f10x_flash.c ****     {
 546:../Library/STM32F10x_StdPeriph_Driver/src/stm32f10x_flash.c ****       /* if the erase operation is completed, disable the MER Bit */
 547:../Library/STM32F10x_StdPeriph_Driver/src/stm32f10x_flash.c ****       FLASH->CR &= CR_MER_Reset;
 548:../Library/STM32F10x_StdPeriph_Driver/src/stm32f10x_flash.c ****     }
 549:../Library/STM32F10x_StdPeriph_Driver/src/stm32f10x_flash.c ****   }
 550:../Library/STM32F10x_StdPeriph_Driver/src/stm32f10x_flash.c **** #endif /* STM32F10X_XL */
 551:../Library/STM32F10x_StdPeriph_Driver/src/stm32f10x_flash.c **** 
 552:../Library/STM32F10x_StdPeriph_Driver/src/stm32f10x_flash.c ****   /* Return the Erase Status */
 553:../Library/STM32F10x_StdPeriph_Driver/src/stm32f10x_flash.c ****   return status;
 554:../Library/STM32F10x_StdPeriph_Driver/src/stm32f10x_flash.c **** }
 555:../Library/STM32F10x_StdPeriph_Driver/src/stm32f10x_flash.c **** 
 556:../Library/STM32F10x_StdPeriph_Driver/src/stm32f10x_flash.c **** /**
 557:../Library/STM32F10x_StdPeriph_Driver/src/stm32f10x_flash.c ****   * @brief  Erases all Bank1 FLASH pages.
 558:../Library/STM32F10x_StdPeriph_Driver/src/stm32f10x_flash.c ****   * @note   This function can be used for all STM32F10x devices.
 559:../Library/STM32F10x_StdPeriph_Driver/src/stm32f10x_flash.c ****   *         - For STM32F10X_XL devices this function erases all Bank1 pages.
 560:../Library/STM32F10x_StdPeriph_Driver/src/stm32f10x_flash.c ****   *         - For all other devices it erases all Bank1 pages and it is equivalent 
 561:../Library/STM32F10x_StdPeriph_Driver/src/stm32f10x_flash.c ****   *           to FLASH_EraseAllPages function.
 562:../Library/STM32F10x_StdPeriph_Driver/src/stm32f10x_flash.c ****   * @param  None
 563:../Library/STM32F10x_StdPeriph_Driver/src/stm32f10x_flash.c ****   * @retval FLASH Status: The returned value can be: FLASH_ERROR_PG,
 564:../Library/STM32F10x_StdPeriph_Driver/src/stm32f10x_flash.c ****   *   FLASH_ERROR_WRP, FLASH_COMPLETE or FLASH_TIMEOUT.
 565:../Library/STM32F10x_StdPeriph_Driver/src/stm32f10x_flash.c ****   */
 566:../Library/STM32F10x_StdPeriph_Driver/src/stm32f10x_flash.c **** FLASH_Status FLASH_EraseAllBank1Pages(void)
 567:../Library/STM32F10x_StdPeriph_Driver/src/stm32f10x_flash.c **** {
 568:../Library/STM32F10x_StdPeriph_Driver/src/stm32f10x_flash.c ****   FLASH_Status status = FLASH_COMPLETE;
 569:../Library/STM32F10x_StdPeriph_Driver/src/stm32f10x_flash.c ****   /* Wait for last operation to be completed */
 570:../Library/STM32F10x_StdPeriph_Driver/src/stm32f10x_flash.c ****   status = FLASH_WaitForLastBank1Operation(EraseTimeout);
 571:../Library/STM32F10x_StdPeriph_Driver/src/stm32f10x_flash.c ****   
 572:../Library/STM32F10x_StdPeriph_Driver/src/stm32f10x_flash.c ****   if(status == FLASH_COMPLETE)
 573:../Library/STM32F10x_StdPeriph_Driver/src/stm32f10x_flash.c ****   {
 574:../Library/STM32F10x_StdPeriph_Driver/src/stm32f10x_flash.c ****     /* if the previous operation is completed, proceed to erase all pages */
 575:../Library/STM32F10x_StdPeriph_Driver/src/stm32f10x_flash.c ****      FLASH->CR |= CR_MER_Set;
 576:../Library/STM32F10x_StdPeriph_Driver/src/stm32f10x_flash.c ****      FLASH->CR |= CR_STRT_Set;
 577:../Library/STM32F10x_StdPeriph_Driver/src/stm32f10x_flash.c ****     
 578:../Library/STM32F10x_StdPeriph_Driver/src/stm32f10x_flash.c ****     /* Wait for last operation to be completed */
 579:../Library/STM32F10x_StdPeriph_Driver/src/stm32f10x_flash.c ****     status = FLASH_WaitForLastBank1Operation(EraseTimeout);
 580:../Library/STM32F10x_StdPeriph_Driver/src/stm32f10x_flash.c ****     if(status != FLASH_TIMEOUT)
 581:../Library/STM32F10x_StdPeriph_Driver/src/stm32f10x_flash.c ****     {
 582:../Library/STM32F10x_StdPeriph_Driver/src/stm32f10x_flash.c ****       /* if the erase operation is completed, disable the MER Bit */
 583:../Library/STM32F10x_StdPeriph_Driver/src/stm32f10x_flash.c ****       FLASH->CR &= CR_MER_Reset;
 584:../Library/STM32F10x_StdPeriph_Driver/src/stm32f10x_flash.c ****     }
 585:../Library/STM32F10x_StdPeriph_Driver/src/stm32f10x_flash.c ****   }    
 586:../Library/STM32F10x_StdPeriph_Driver/src/stm32f10x_flash.c ****   /* Return the Erase Status */
 587:../Library/STM32F10x_StdPeriph_Driver/src/stm32f10x_flash.c ****   return status;
 588:../Library/STM32F10x_StdPeriph_Driver/src/stm32f10x_flash.c **** }
 589:../Library/STM32F10x_StdPeriph_Driver/src/stm32f10x_flash.c **** 
 590:../Library/STM32F10x_StdPeriph_Driver/src/stm32f10x_flash.c **** #ifdef STM32F10X_XL
 591:../Library/STM32F10x_StdPeriph_Driver/src/stm32f10x_flash.c **** /**
 592:../Library/STM32F10x_StdPeriph_Driver/src/stm32f10x_flash.c ****   * @brief  Erases all Bank2 FLASH pages.
 593:../Library/STM32F10x_StdPeriph_Driver/src/stm32f10x_flash.c ****   * @note   This function can be used only for STM32F10x_XL density devices.
 594:../Library/STM32F10x_StdPeriph_Driver/src/stm32f10x_flash.c ****   * @param  None
 595:../Library/STM32F10x_StdPeriph_Driver/src/stm32f10x_flash.c ****   * @retval FLASH Status: The returned value can be: FLASH_ERROR_PG,
 596:../Library/STM32F10x_StdPeriph_Driver/src/stm32f10x_flash.c ****   *   FLASH_ERROR_WRP, FLASH_COMPLETE or FLASH_TIMEOUT.
 597:../Library/STM32F10x_StdPeriph_Driver/src/stm32f10x_flash.c ****   */
 598:../Library/STM32F10x_StdPeriph_Driver/src/stm32f10x_flash.c **** FLASH_Status FLASH_EraseAllBank2Pages(void)
 599:../Library/STM32F10x_StdPeriph_Driver/src/stm32f10x_flash.c **** {
 600:../Library/STM32F10x_StdPeriph_Driver/src/stm32f10x_flash.c ****   FLASH_Status status = FLASH_COMPLETE;
 601:../Library/STM32F10x_StdPeriph_Driver/src/stm32f10x_flash.c ****   /* Wait for last operation to be completed */
 602:../Library/STM32F10x_StdPeriph_Driver/src/stm32f10x_flash.c ****   status = FLASH_WaitForLastBank2Operation(EraseTimeout);
 603:../Library/STM32F10x_StdPeriph_Driver/src/stm32f10x_flash.c ****   
 604:../Library/STM32F10x_StdPeriph_Driver/src/stm32f10x_flash.c ****   if(status == FLASH_COMPLETE)
 605:../Library/STM32F10x_StdPeriph_Driver/src/stm32f10x_flash.c ****   {
 606:../Library/STM32F10x_StdPeriph_Driver/src/stm32f10x_flash.c ****     /* if the previous operation is completed, proceed to erase all pages */
 607:../Library/STM32F10x_StdPeriph_Driver/src/stm32f10x_flash.c ****      FLASH->CR2 |= CR_MER_Set;
 608:../Library/STM32F10x_StdPeriph_Driver/src/stm32f10x_flash.c ****      FLASH->CR2 |= CR_STRT_Set;
 609:../Library/STM32F10x_StdPeriph_Driver/src/stm32f10x_flash.c ****     
 610:../Library/STM32F10x_StdPeriph_Driver/src/stm32f10x_flash.c ****     /* Wait for last operation to be completed */
 611:../Library/STM32F10x_StdPeriph_Driver/src/stm32f10x_flash.c ****     status = FLASH_WaitForLastBank2Operation(EraseTimeout);
 612:../Library/STM32F10x_StdPeriph_Driver/src/stm32f10x_flash.c ****     if(status != FLASH_TIMEOUT)
 613:../Library/STM32F10x_StdPeriph_Driver/src/stm32f10x_flash.c ****     {
 614:../Library/STM32F10x_StdPeriph_Driver/src/stm32f10x_flash.c ****       /* if the erase operation is completed, disable the MER Bit */
 615:../Library/STM32F10x_StdPeriph_Driver/src/stm32f10x_flash.c ****       FLASH->CR2 &= CR_MER_Reset;
 616:../Library/STM32F10x_StdPeriph_Driver/src/stm32f10x_flash.c ****     }
 617:../Library/STM32F10x_StdPeriph_Driver/src/stm32f10x_flash.c ****   }    
 618:../Library/STM32F10x_StdPeriph_Driver/src/stm32f10x_flash.c ****   /* Return the Erase Status */
 619:../Library/STM32F10x_StdPeriph_Driver/src/stm32f10x_flash.c ****   return status;
 620:../Library/STM32F10x_StdPeriph_Driver/src/stm32f10x_flash.c **** }
 621:../Library/STM32F10x_StdPeriph_Driver/src/stm32f10x_flash.c **** #endif /* STM32F10X_XL */
 622:../Library/STM32F10x_StdPeriph_Driver/src/stm32f10x_flash.c **** 
 623:../Library/STM32F10x_StdPeriph_Driver/src/stm32f10x_flash.c **** /**
 624:../Library/STM32F10x_StdPeriph_Driver/src/stm32f10x_flash.c ****   * @brief  Erases the FLASH option bytes.
 625:../Library/STM32F10x_StdPeriph_Driver/src/stm32f10x_flash.c ****   * @note   This functions erases all option bytes except the Read protection (RDP). 
 626:../Library/STM32F10x_StdPeriph_Driver/src/stm32f10x_flash.c ****   * @note   This function can be used for all STM32F10x devices.
 627:../Library/STM32F10x_StdPeriph_Driver/src/stm32f10x_flash.c ****   * @param  None
 628:../Library/STM32F10x_StdPeriph_Driver/src/stm32f10x_flash.c ****   * @retval FLASH Status: The returned value can be: FLASH_ERROR_PG,
 629:../Library/STM32F10x_StdPeriph_Driver/src/stm32f10x_flash.c ****   *   FLASH_ERROR_WRP, FLASH_COMPLETE or FLASH_TIMEOUT.
 630:../Library/STM32F10x_StdPeriph_Driver/src/stm32f10x_flash.c ****   */
 631:../Library/STM32F10x_StdPeriph_Driver/src/stm32f10x_flash.c **** FLASH_Status FLASH_EraseOptionBytes(void)
 632:../Library/STM32F10x_StdPeriph_Driver/src/stm32f10x_flash.c **** {
 633:../Library/STM32F10x_StdPeriph_Driver/src/stm32f10x_flash.c ****   uint16_t rdptmp = RDP_Key;
 634:../Library/STM32F10x_StdPeriph_Driver/src/stm32f10x_flash.c **** 
 635:../Library/STM32F10x_StdPeriph_Driver/src/stm32f10x_flash.c ****   FLASH_Status status = FLASH_COMPLETE;
 636:../Library/STM32F10x_StdPeriph_Driver/src/stm32f10x_flash.c **** 
 637:../Library/STM32F10x_StdPeriph_Driver/src/stm32f10x_flash.c ****   /* Get the actual read protection Option Byte value */ 
 638:../Library/STM32F10x_StdPeriph_Driver/src/stm32f10x_flash.c ****   if(FLASH_GetReadOutProtectionStatus() != RESET)
 639:../Library/STM32F10x_StdPeriph_Driver/src/stm32f10x_flash.c ****   {
 640:../Library/STM32F10x_StdPeriph_Driver/src/stm32f10x_flash.c ****     rdptmp = 0x00;  
 641:../Library/STM32F10x_StdPeriph_Driver/src/stm32f10x_flash.c ****   }
 642:../Library/STM32F10x_StdPeriph_Driver/src/stm32f10x_flash.c **** 
 643:../Library/STM32F10x_StdPeriph_Driver/src/stm32f10x_flash.c ****   /* Wait for last operation to be completed */
 644:../Library/STM32F10x_StdPeriph_Driver/src/stm32f10x_flash.c ****   status = FLASH_WaitForLastOperation(EraseTimeout);
 645:../Library/STM32F10x_StdPeriph_Driver/src/stm32f10x_flash.c ****   if(status == FLASH_COMPLETE)
 646:../Library/STM32F10x_StdPeriph_Driver/src/stm32f10x_flash.c ****   {
 647:../Library/STM32F10x_StdPeriph_Driver/src/stm32f10x_flash.c ****     /* Authorize the small information block programming */
 648:../Library/STM32F10x_StdPeriph_Driver/src/stm32f10x_flash.c ****     FLASH->OPTKEYR = FLASH_KEY1;
 649:../Library/STM32F10x_StdPeriph_Driver/src/stm32f10x_flash.c ****     FLASH->OPTKEYR = FLASH_KEY2;
 650:../Library/STM32F10x_StdPeriph_Driver/src/stm32f10x_flash.c ****     
 651:../Library/STM32F10x_StdPeriph_Driver/src/stm32f10x_flash.c ****     /* if the previous operation is completed, proceed to erase the option bytes */
 652:../Library/STM32F10x_StdPeriph_Driver/src/stm32f10x_flash.c ****     FLASH->CR |= CR_OPTER_Set;
 653:../Library/STM32F10x_StdPeriph_Driver/src/stm32f10x_flash.c ****     FLASH->CR |= CR_STRT_Set;
 654:../Library/STM32F10x_StdPeriph_Driver/src/stm32f10x_flash.c ****     /* Wait for last operation to be completed */
 655:../Library/STM32F10x_StdPeriph_Driver/src/stm32f10x_flash.c ****     status = FLASH_WaitForLastOperation(EraseTimeout);
 656:../Library/STM32F10x_StdPeriph_Driver/src/stm32f10x_flash.c ****     
 657:../Library/STM32F10x_StdPeriph_Driver/src/stm32f10x_flash.c ****     if(status == FLASH_COMPLETE)
 658:../Library/STM32F10x_StdPeriph_Driver/src/stm32f10x_flash.c ****     {
 659:../Library/STM32F10x_StdPeriph_Driver/src/stm32f10x_flash.c ****       /* if the erase operation is completed, disable the OPTER Bit */
 660:../Library/STM32F10x_StdPeriph_Driver/src/stm32f10x_flash.c ****       FLASH->CR &= CR_OPTER_Reset;
 661:../Library/STM32F10x_StdPeriph_Driver/src/stm32f10x_flash.c ****        
 662:../Library/STM32F10x_StdPeriph_Driver/src/stm32f10x_flash.c ****       /* Enable the Option Bytes Programming operation */
 663:../Library/STM32F10x_StdPeriph_Driver/src/stm32f10x_flash.c ****       FLASH->CR |= CR_OPTPG_Set;
 664:../Library/STM32F10x_StdPeriph_Driver/src/stm32f10x_flash.c ****       /* Restore the last read protection Option Byte value */
 665:../Library/STM32F10x_StdPeriph_Driver/src/stm32f10x_flash.c ****       OB->RDP = (uint16_t)rdptmp; 
 666:../Library/STM32F10x_StdPeriph_Driver/src/stm32f10x_flash.c ****       /* Wait for last operation to be completed */
 667:../Library/STM32F10x_StdPeriph_Driver/src/stm32f10x_flash.c ****       status = FLASH_WaitForLastOperation(ProgramTimeout);
 668:../Library/STM32F10x_StdPeriph_Driver/src/stm32f10x_flash.c ****  
 669:../Library/STM32F10x_StdPeriph_Driver/src/stm32f10x_flash.c ****       if(status != FLASH_TIMEOUT)
 670:../Library/STM32F10x_StdPeriph_Driver/src/stm32f10x_flash.c ****       {
 671:../Library/STM32F10x_StdPeriph_Driver/src/stm32f10x_flash.c ****         /* if the program operation is completed, disable the OPTPG Bit */
 672:../Library/STM32F10x_StdPeriph_Driver/src/stm32f10x_flash.c ****         FLASH->CR &= CR_OPTPG_Reset;
 673:../Library/STM32F10x_StdPeriph_Driver/src/stm32f10x_flash.c ****       }
 674:../Library/STM32F10x_StdPeriph_Driver/src/stm32f10x_flash.c ****     }
 675:../Library/STM32F10x_StdPeriph_Driver/src/stm32f10x_flash.c ****     else
 676:../Library/STM32F10x_StdPeriph_Driver/src/stm32f10x_flash.c ****     {
 677:../Library/STM32F10x_StdPeriph_Driver/src/stm32f10x_flash.c ****       if (status != FLASH_TIMEOUT)
 678:../Library/STM32F10x_StdPeriph_Driver/src/stm32f10x_flash.c ****       {
 679:../Library/STM32F10x_StdPeriph_Driver/src/stm32f10x_flash.c ****         /* Disable the OPTPG Bit */
 680:../Library/STM32F10x_StdPeriph_Driver/src/stm32f10x_flash.c ****         FLASH->CR &= CR_OPTPG_Reset;
 681:../Library/STM32F10x_StdPeriph_Driver/src/stm32f10x_flash.c ****       }
 682:../Library/STM32F10x_StdPeriph_Driver/src/stm32f10x_flash.c ****     }  
 683:../Library/STM32F10x_StdPeriph_Driver/src/stm32f10x_flash.c ****   }
 684:../Library/STM32F10x_StdPeriph_Driver/src/stm32f10x_flash.c ****   /* Return the erase status */
 685:../Library/STM32F10x_StdPeriph_Driver/src/stm32f10x_flash.c ****   return status;
 686:../Library/STM32F10x_StdPeriph_Driver/src/stm32f10x_flash.c **** }
 687:../Library/STM32F10x_StdPeriph_Driver/src/stm32f10x_flash.c **** 
 688:../Library/STM32F10x_StdPeriph_Driver/src/stm32f10x_flash.c **** /**
 689:../Library/STM32F10x_StdPeriph_Driver/src/stm32f10x_flash.c ****   * @brief  Programs a word at a specified address.
 690:../Library/STM32F10x_StdPeriph_Driver/src/stm32f10x_flash.c ****   * @note   This function can be used for all STM32F10x devices.
 691:../Library/STM32F10x_StdPeriph_Driver/src/stm32f10x_flash.c ****   * @param  Address: specifies the address to be programmed.
 692:../Library/STM32F10x_StdPeriph_Driver/src/stm32f10x_flash.c ****   * @param  Data: specifies the data to be programmed.
 693:../Library/STM32F10x_StdPeriph_Driver/src/stm32f10x_flash.c ****   * @retval FLASH Status: The returned value can be: FLASH_ERROR_PG,
 694:../Library/STM32F10x_StdPeriph_Driver/src/stm32f10x_flash.c ****   *   FLASH_ERROR_WRP, FLASH_COMPLETE or FLASH_TIMEOUT. 
 695:../Library/STM32F10x_StdPeriph_Driver/src/stm32f10x_flash.c ****   */
 696:../Library/STM32F10x_StdPeriph_Driver/src/stm32f10x_flash.c **** FLASH_Status FLASH_ProgramWord(uint32_t Address, uint32_t Data)
 697:../Library/STM32F10x_StdPeriph_Driver/src/stm32f10x_flash.c **** {
 698:../Library/STM32F10x_StdPeriph_Driver/src/stm32f10x_flash.c ****   FLASH_Status status = FLASH_COMPLETE;
 699:../Library/STM32F10x_StdPeriph_Driver/src/stm32f10x_flash.c ****   __IO uint32_t tmp = 0;
 700:../Library/STM32F10x_StdPeriph_Driver/src/stm32f10x_flash.c **** 
 701:../Library/STM32F10x_StdPeriph_Driver/src/stm32f10x_flash.c ****   /* Check the parameters */
 702:../Library/STM32F10x_StdPeriph_Driver/src/stm32f10x_flash.c ****   assert_param(IS_FLASH_ADDRESS(Address));
 703:../Library/STM32F10x_StdPeriph_Driver/src/stm32f10x_flash.c **** 
 704:../Library/STM32F10x_StdPeriph_Driver/src/stm32f10x_flash.c **** #ifdef STM32F10X_XL
 705:../Library/STM32F10x_StdPeriph_Driver/src/stm32f10x_flash.c ****   if(Address < FLASH_BANK1_END_ADDRESS - 2)
 706:../Library/STM32F10x_StdPeriph_Driver/src/stm32f10x_flash.c ****   { 
 707:../Library/STM32F10x_StdPeriph_Driver/src/stm32f10x_flash.c ****     /* Wait for last operation to be completed */
 708:../Library/STM32F10x_StdPeriph_Driver/src/stm32f10x_flash.c ****     status = FLASH_WaitForLastBank1Operation(ProgramTimeout); 
 709:../Library/STM32F10x_StdPeriph_Driver/src/stm32f10x_flash.c ****     if(status == FLASH_COMPLETE)
 710:../Library/STM32F10x_StdPeriph_Driver/src/stm32f10x_flash.c ****     {
 711:../Library/STM32F10x_StdPeriph_Driver/src/stm32f10x_flash.c ****       /* if the previous operation is completed, proceed to program the new first 
 712:../Library/STM32F10x_StdPeriph_Driver/src/stm32f10x_flash.c ****         half word */
 713:../Library/STM32F10x_StdPeriph_Driver/src/stm32f10x_flash.c ****       FLASH->CR |= CR_PG_Set;
 714:../Library/STM32F10x_StdPeriph_Driver/src/stm32f10x_flash.c ****   
 715:../Library/STM32F10x_StdPeriph_Driver/src/stm32f10x_flash.c ****       *(__IO uint16_t*)Address = (uint16_t)Data;
 716:../Library/STM32F10x_StdPeriph_Driver/src/stm32f10x_flash.c ****       /* Wait for last operation to be completed */
 717:../Library/STM32F10x_StdPeriph_Driver/src/stm32f10x_flash.c ****       status = FLASH_WaitForLastOperation(ProgramTimeout);
 718:../Library/STM32F10x_StdPeriph_Driver/src/stm32f10x_flash.c ****  
 719:../Library/STM32F10x_StdPeriph_Driver/src/stm32f10x_flash.c ****       if(status == FLASH_COMPLETE)
 720:../Library/STM32F10x_StdPeriph_Driver/src/stm32f10x_flash.c ****       {
 721:../Library/STM32F10x_StdPeriph_Driver/src/stm32f10x_flash.c ****         /* if the previous operation is completed, proceed to program the new second 
 722:../Library/STM32F10x_StdPeriph_Driver/src/stm32f10x_flash.c ****         half word */
 723:../Library/STM32F10x_StdPeriph_Driver/src/stm32f10x_flash.c ****         tmp = Address + 2;
 724:../Library/STM32F10x_StdPeriph_Driver/src/stm32f10x_flash.c **** 
 725:../Library/STM32F10x_StdPeriph_Driver/src/stm32f10x_flash.c ****         *(__IO uint16_t*) tmp = Data >> 16;
 726:../Library/STM32F10x_StdPeriph_Driver/src/stm32f10x_flash.c ****     
 727:../Library/STM32F10x_StdPeriph_Driver/src/stm32f10x_flash.c ****         /* Wait for last operation to be completed */
 728:../Library/STM32F10x_StdPeriph_Driver/src/stm32f10x_flash.c ****         status = FLASH_WaitForLastOperation(ProgramTimeout);
 729:../Library/STM32F10x_StdPeriph_Driver/src/stm32f10x_flash.c ****         
 730:../Library/STM32F10x_StdPeriph_Driver/src/stm32f10x_flash.c ****         if(status != FLASH_TIMEOUT)
 731:../Library/STM32F10x_StdPeriph_Driver/src/stm32f10x_flash.c ****         {
 732:../Library/STM32F10x_StdPeriph_Driver/src/stm32f10x_flash.c ****           /* Disable the PG Bit */
 733:../Library/STM32F10x_StdPeriph_Driver/src/stm32f10x_flash.c ****           FLASH->CR &= CR_PG_Reset;
 734:../Library/STM32F10x_StdPeriph_Driver/src/stm32f10x_flash.c ****         }
 735:../Library/STM32F10x_StdPeriph_Driver/src/stm32f10x_flash.c ****       }
 736:../Library/STM32F10x_StdPeriph_Driver/src/stm32f10x_flash.c ****       else
 737:../Library/STM32F10x_StdPeriph_Driver/src/stm32f10x_flash.c ****       {
 738:../Library/STM32F10x_StdPeriph_Driver/src/stm32f10x_flash.c ****         if (status != FLASH_TIMEOUT)
 739:../Library/STM32F10x_StdPeriph_Driver/src/stm32f10x_flash.c ****         {
 740:../Library/STM32F10x_StdPeriph_Driver/src/stm32f10x_flash.c ****           /* Disable the PG Bit */
 741:../Library/STM32F10x_StdPeriph_Driver/src/stm32f10x_flash.c ****           FLASH->CR &= CR_PG_Reset;
 742:../Library/STM32F10x_StdPeriph_Driver/src/stm32f10x_flash.c ****         }
 743:../Library/STM32F10x_StdPeriph_Driver/src/stm32f10x_flash.c ****        }
 744:../Library/STM32F10x_StdPeriph_Driver/src/stm32f10x_flash.c ****     }
 745:../Library/STM32F10x_StdPeriph_Driver/src/stm32f10x_flash.c ****   }
 746:../Library/STM32F10x_StdPeriph_Driver/src/stm32f10x_flash.c ****   else if(Address == (FLASH_BANK1_END_ADDRESS - 1))
 747:../Library/STM32F10x_StdPeriph_Driver/src/stm32f10x_flash.c ****   {
 748:../Library/STM32F10x_StdPeriph_Driver/src/stm32f10x_flash.c ****     /* Wait for last operation to be completed */
 749:../Library/STM32F10x_StdPeriph_Driver/src/stm32f10x_flash.c ****     status = FLASH_WaitForLastBank1Operation(ProgramTimeout);
 750:../Library/STM32F10x_StdPeriph_Driver/src/stm32f10x_flash.c **** 
 751:../Library/STM32F10x_StdPeriph_Driver/src/stm32f10x_flash.c ****     if(status == FLASH_COMPLETE)
 752:../Library/STM32F10x_StdPeriph_Driver/src/stm32f10x_flash.c ****     {
 753:../Library/STM32F10x_StdPeriph_Driver/src/stm32f10x_flash.c ****       /* if the previous operation is completed, proceed to program the new first 
 754:../Library/STM32F10x_StdPeriph_Driver/src/stm32f10x_flash.c ****         half word */
 755:../Library/STM32F10x_StdPeriph_Driver/src/stm32f10x_flash.c ****       FLASH->CR |= CR_PG_Set;
 756:../Library/STM32F10x_StdPeriph_Driver/src/stm32f10x_flash.c ****   
 757:../Library/STM32F10x_StdPeriph_Driver/src/stm32f10x_flash.c ****       *(__IO uint16_t*)Address = (uint16_t)Data;
 758:../Library/STM32F10x_StdPeriph_Driver/src/stm32f10x_flash.c **** 
 759:../Library/STM32F10x_StdPeriph_Driver/src/stm32f10x_flash.c ****       /* Wait for last operation to be completed */
 760:../Library/STM32F10x_StdPeriph_Driver/src/stm32f10x_flash.c ****       status = FLASH_WaitForLastBank1Operation(ProgramTimeout);
 761:../Library/STM32F10x_StdPeriph_Driver/src/stm32f10x_flash.c **** 
 762:../Library/STM32F10x_StdPeriph_Driver/src/stm32f10x_flash.c ****       if(status != FLASH_TIMEOUT)
 763:../Library/STM32F10x_StdPeriph_Driver/src/stm32f10x_flash.c ****       {
 764:../Library/STM32F10x_StdPeriph_Driver/src/stm32f10x_flash.c ****         /* Disable the PG Bit */
 765:../Library/STM32F10x_StdPeriph_Driver/src/stm32f10x_flash.c ****         FLASH->CR &= CR_PG_Reset;
 766:../Library/STM32F10x_StdPeriph_Driver/src/stm32f10x_flash.c ****       }
 767:../Library/STM32F10x_StdPeriph_Driver/src/stm32f10x_flash.c ****     }
 768:../Library/STM32F10x_StdPeriph_Driver/src/stm32f10x_flash.c ****     else
 769:../Library/STM32F10x_StdPeriph_Driver/src/stm32f10x_flash.c ****     {
 770:../Library/STM32F10x_StdPeriph_Driver/src/stm32f10x_flash.c ****       if (status != FLASH_TIMEOUT)
 771:../Library/STM32F10x_StdPeriph_Driver/src/stm32f10x_flash.c ****       {
 772:../Library/STM32F10x_StdPeriph_Driver/src/stm32f10x_flash.c ****         /* Disable the PG Bit */
 773:../Library/STM32F10x_StdPeriph_Driver/src/stm32f10x_flash.c ****         FLASH->CR &= CR_PG_Reset;
 774:../Library/STM32F10x_StdPeriph_Driver/src/stm32f10x_flash.c ****       }
 775:../Library/STM32F10x_StdPeriph_Driver/src/stm32f10x_flash.c ****     }
 776:../Library/STM32F10x_StdPeriph_Driver/src/stm32f10x_flash.c **** 
 777:../Library/STM32F10x_StdPeriph_Driver/src/stm32f10x_flash.c ****     /* Wait for last operation to be completed */
 778:../Library/STM32F10x_StdPeriph_Driver/src/stm32f10x_flash.c ****     status = FLASH_WaitForLastBank2Operation(ProgramTimeout);
 779:../Library/STM32F10x_StdPeriph_Driver/src/stm32f10x_flash.c **** 
 780:../Library/STM32F10x_StdPeriph_Driver/src/stm32f10x_flash.c ****     if(status == FLASH_COMPLETE)
 781:../Library/STM32F10x_StdPeriph_Driver/src/stm32f10x_flash.c ****     {
 782:../Library/STM32F10x_StdPeriph_Driver/src/stm32f10x_flash.c ****       /* if the previous operation is completed, proceed to program the new second 
 783:../Library/STM32F10x_StdPeriph_Driver/src/stm32f10x_flash.c ****       half word */
 784:../Library/STM32F10x_StdPeriph_Driver/src/stm32f10x_flash.c ****       FLASH->CR2 |= CR_PG_Set;
 785:../Library/STM32F10x_StdPeriph_Driver/src/stm32f10x_flash.c ****       tmp = Address + 2;
 786:../Library/STM32F10x_StdPeriph_Driver/src/stm32f10x_flash.c **** 
 787:../Library/STM32F10x_StdPeriph_Driver/src/stm32f10x_flash.c ****       *(__IO uint16_t*) tmp = Data >> 16;
 788:../Library/STM32F10x_StdPeriph_Driver/src/stm32f10x_flash.c ****     
 789:../Library/STM32F10x_StdPeriph_Driver/src/stm32f10x_flash.c ****       /* Wait for last operation to be completed */
 790:../Library/STM32F10x_StdPeriph_Driver/src/stm32f10x_flash.c ****       status = FLASH_WaitForLastBank2Operation(ProgramTimeout);
 791:../Library/STM32F10x_StdPeriph_Driver/src/stm32f10x_flash.c ****         
 792:../Library/STM32F10x_StdPeriph_Driver/src/stm32f10x_flash.c ****       if(status != FLASH_TIMEOUT)
 793:../Library/STM32F10x_StdPeriph_Driver/src/stm32f10x_flash.c ****       {
 794:../Library/STM32F10x_StdPeriph_Driver/src/stm32f10x_flash.c ****         /* Disable the PG Bit */
 795:../Library/STM32F10x_StdPeriph_Driver/src/stm32f10x_flash.c ****         FLASH->CR2 &= CR_PG_Reset;
 796:../Library/STM32F10x_StdPeriph_Driver/src/stm32f10x_flash.c ****       }
 797:../Library/STM32F10x_StdPeriph_Driver/src/stm32f10x_flash.c ****     }
 798:../Library/STM32F10x_StdPeriph_Driver/src/stm32f10x_flash.c ****     else
 799:../Library/STM32F10x_StdPeriph_Driver/src/stm32f10x_flash.c ****     {
 800:../Library/STM32F10x_StdPeriph_Driver/src/stm32f10x_flash.c ****       if (status != FLASH_TIMEOUT)
 801:../Library/STM32F10x_StdPeriph_Driver/src/stm32f10x_flash.c ****       {
 802:../Library/STM32F10x_StdPeriph_Driver/src/stm32f10x_flash.c ****         /* Disable the PG Bit */
 803:../Library/STM32F10x_StdPeriph_Driver/src/stm32f10x_flash.c ****         FLASH->CR2 &= CR_PG_Reset;
 804:../Library/STM32F10x_StdPeriph_Driver/src/stm32f10x_flash.c ****       }
 805:../Library/STM32F10x_StdPeriph_Driver/src/stm32f10x_flash.c ****     }
 806:../Library/STM32F10x_StdPeriph_Driver/src/stm32f10x_flash.c ****   }
 807:../Library/STM32F10x_StdPeriph_Driver/src/stm32f10x_flash.c ****   else
 808:../Library/STM32F10x_StdPeriph_Driver/src/stm32f10x_flash.c ****   {
 809:../Library/STM32F10x_StdPeriph_Driver/src/stm32f10x_flash.c ****     /* Wait for last operation to be completed */
 810:../Library/STM32F10x_StdPeriph_Driver/src/stm32f10x_flash.c ****     status = FLASH_WaitForLastBank2Operation(ProgramTimeout);
 811:../Library/STM32F10x_StdPeriph_Driver/src/stm32f10x_flash.c **** 
 812:../Library/STM32F10x_StdPeriph_Driver/src/stm32f10x_flash.c ****     if(status == FLASH_COMPLETE)
 813:../Library/STM32F10x_StdPeriph_Driver/src/stm32f10x_flash.c ****     {
 814:../Library/STM32F10x_StdPeriph_Driver/src/stm32f10x_flash.c ****       /* if the previous operation is completed, proceed to program the new first 
 815:../Library/STM32F10x_StdPeriph_Driver/src/stm32f10x_flash.c ****         half word */
 816:../Library/STM32F10x_StdPeriph_Driver/src/stm32f10x_flash.c ****       FLASH->CR2 |= CR_PG_Set;
 817:../Library/STM32F10x_StdPeriph_Driver/src/stm32f10x_flash.c ****   
 818:../Library/STM32F10x_StdPeriph_Driver/src/stm32f10x_flash.c ****       *(__IO uint16_t*)Address = (uint16_t)Data;
 819:../Library/STM32F10x_StdPeriph_Driver/src/stm32f10x_flash.c ****       /* Wait for last operation to be completed */
 820:../Library/STM32F10x_StdPeriph_Driver/src/stm32f10x_flash.c ****       status = FLASH_WaitForLastBank2Operation(ProgramTimeout);
 821:../Library/STM32F10x_StdPeriph_Driver/src/stm32f10x_flash.c ****  
 822:../Library/STM32F10x_StdPeriph_Driver/src/stm32f10x_flash.c ****       if(status == FLASH_COMPLETE)
 823:../Library/STM32F10x_StdPeriph_Driver/src/stm32f10x_flash.c ****       {
 824:../Library/STM32F10x_StdPeriph_Driver/src/stm32f10x_flash.c ****         /* if the previous operation is completed, proceed to program the new second 
 825:../Library/STM32F10x_StdPeriph_Driver/src/stm32f10x_flash.c ****         half word */
 826:../Library/STM32F10x_StdPeriph_Driver/src/stm32f10x_flash.c ****         tmp = Address + 2;
 827:../Library/STM32F10x_StdPeriph_Driver/src/stm32f10x_flash.c **** 
 828:../Library/STM32F10x_StdPeriph_Driver/src/stm32f10x_flash.c ****         *(__IO uint16_t*) tmp = Data >> 16;
 829:../Library/STM32F10x_StdPeriph_Driver/src/stm32f10x_flash.c ****     
 830:../Library/STM32F10x_StdPeriph_Driver/src/stm32f10x_flash.c ****         /* Wait for last operation to be completed */
 831:../Library/STM32F10x_StdPeriph_Driver/src/stm32f10x_flash.c ****         status = FLASH_WaitForLastBank2Operation(ProgramTimeout);
 832:../Library/STM32F10x_StdPeriph_Driver/src/stm32f10x_flash.c ****         
 833:../Library/STM32F10x_StdPeriph_Driver/src/stm32f10x_flash.c ****         if(status != FLASH_TIMEOUT)
 834:../Library/STM32F10x_StdPeriph_Driver/src/stm32f10x_flash.c ****         {
 835:../Library/STM32F10x_StdPeriph_Driver/src/stm32f10x_flash.c ****           /* Disable the PG Bit */
 836:../Library/STM32F10x_StdPeriph_Driver/src/stm32f10x_flash.c ****           FLASH->CR2 &= CR_PG_Reset;
 837:../Library/STM32F10x_StdPeriph_Driver/src/stm32f10x_flash.c ****         }
 838:../Library/STM32F10x_StdPeriph_Driver/src/stm32f10x_flash.c ****       }
 839:../Library/STM32F10x_StdPeriph_Driver/src/stm32f10x_flash.c ****       else
 840:../Library/STM32F10x_StdPeriph_Driver/src/stm32f10x_flash.c ****       {
 841:../Library/STM32F10x_StdPeriph_Driver/src/stm32f10x_flash.c ****         if (status != FLASH_TIMEOUT)
 842:../Library/STM32F10x_StdPeriph_Driver/src/stm32f10x_flash.c ****         {
 843:../Library/STM32F10x_StdPeriph_Driver/src/stm32f10x_flash.c ****           /* Disable the PG Bit */
 844:../Library/STM32F10x_StdPeriph_Driver/src/stm32f10x_flash.c ****           FLASH->CR2 &= CR_PG_Reset;
 845:../Library/STM32F10x_StdPeriph_Driver/src/stm32f10x_flash.c ****         }
 846:../Library/STM32F10x_StdPeriph_Driver/src/stm32f10x_flash.c ****       }
 847:../Library/STM32F10x_StdPeriph_Driver/src/stm32f10x_flash.c ****     }
 848:../Library/STM32F10x_StdPeriph_Driver/src/stm32f10x_flash.c ****   }
 849:../Library/STM32F10x_StdPeriph_Driver/src/stm32f10x_flash.c **** #else
 850:../Library/STM32F10x_StdPeriph_Driver/src/stm32f10x_flash.c ****   /* Wait for last operation to be completed */
 851:../Library/STM32F10x_StdPeriph_Driver/src/stm32f10x_flash.c ****   status = FLASH_WaitForLastOperation(ProgramTimeout);
 852:../Library/STM32F10x_StdPeriph_Driver/src/stm32f10x_flash.c ****   
 853:../Library/STM32F10x_StdPeriph_Driver/src/stm32f10x_flash.c ****   if(status == FLASH_COMPLETE)
 854:../Library/STM32F10x_StdPeriph_Driver/src/stm32f10x_flash.c ****   {
 855:../Library/STM32F10x_StdPeriph_Driver/src/stm32f10x_flash.c ****     /* if the previous operation is completed, proceed to program the new first 
 856:../Library/STM32F10x_StdPeriph_Driver/src/stm32f10x_flash.c ****     half word */
 857:../Library/STM32F10x_StdPeriph_Driver/src/stm32f10x_flash.c ****     FLASH->CR |= CR_PG_Set;
 858:../Library/STM32F10x_StdPeriph_Driver/src/stm32f10x_flash.c ****   
 859:../Library/STM32F10x_StdPeriph_Driver/src/stm32f10x_flash.c ****     *(__IO uint16_t*)Address = (uint16_t)Data;
 860:../Library/STM32F10x_StdPeriph_Driver/src/stm32f10x_flash.c ****     /* Wait for last operation to be completed */
 861:../Library/STM32F10x_StdPeriph_Driver/src/stm32f10x_flash.c ****     status = FLASH_WaitForLastOperation(ProgramTimeout);
 862:../Library/STM32F10x_StdPeriph_Driver/src/stm32f10x_flash.c ****  
 863:../Library/STM32F10x_StdPeriph_Driver/src/stm32f10x_flash.c ****     if(status == FLASH_COMPLETE)
 864:../Library/STM32F10x_StdPeriph_Driver/src/stm32f10x_flash.c ****     {
 865:../Library/STM32F10x_StdPeriph_Driver/src/stm32f10x_flash.c ****       /* if the previous operation is completed, proceed to program the new second 
 866:../Library/STM32F10x_StdPeriph_Driver/src/stm32f10x_flash.c ****       half word */
 867:../Library/STM32F10x_StdPeriph_Driver/src/stm32f10x_flash.c ****       tmp = Address + 2;
 868:../Library/STM32F10x_StdPeriph_Driver/src/stm32f10x_flash.c **** 
 869:../Library/STM32F10x_StdPeriph_Driver/src/stm32f10x_flash.c ****       *(__IO uint16_t*) tmp = Data >> 16;
 870:../Library/STM32F10x_StdPeriph_Driver/src/stm32f10x_flash.c ****     
 871:../Library/STM32F10x_StdPeriph_Driver/src/stm32f10x_flash.c ****       /* Wait for last operation to be completed */
 872:../Library/STM32F10x_StdPeriph_Driver/src/stm32f10x_flash.c ****       status = FLASH_WaitForLastOperation(ProgramTimeout);
 873:../Library/STM32F10x_StdPeriph_Driver/src/stm32f10x_flash.c ****         
 874:../Library/STM32F10x_StdPeriph_Driver/src/stm32f10x_flash.c ****       if(status != FLASH_TIMEOUT)
 875:../Library/STM32F10x_StdPeriph_Driver/src/stm32f10x_flash.c ****       {
 876:../Library/STM32F10x_StdPeriph_Driver/src/stm32f10x_flash.c ****         /* Disable the PG Bit */
 877:../Library/STM32F10x_StdPeriph_Driver/src/stm32f10x_flash.c ****         FLASH->CR &= CR_PG_Reset;
 878:../Library/STM32F10x_StdPeriph_Driver/src/stm32f10x_flash.c ****       }
 879:../Library/STM32F10x_StdPeriph_Driver/src/stm32f10x_flash.c ****     }
 880:../Library/STM32F10x_StdPeriph_Driver/src/stm32f10x_flash.c ****     else
 881:../Library/STM32F10x_StdPeriph_Driver/src/stm32f10x_flash.c ****     {
 882:../Library/STM32F10x_StdPeriph_Driver/src/stm32f10x_flash.c ****       if (status != FLASH_TIMEOUT)
 883:../Library/STM32F10x_StdPeriph_Driver/src/stm32f10x_flash.c ****       {
 884:../Library/STM32F10x_StdPeriph_Driver/src/stm32f10x_flash.c ****         /* Disable the PG Bit */
 885:../Library/STM32F10x_StdPeriph_Driver/src/stm32f10x_flash.c ****         FLASH->CR &= CR_PG_Reset;
 886:../Library/STM32F10x_StdPeriph_Driver/src/stm32f10x_flash.c ****       }
 887:../Library/STM32F10x_StdPeriph_Driver/src/stm32f10x_flash.c ****     }
 888:../Library/STM32F10x_StdPeriph_Driver/src/stm32f10x_flash.c ****   }         
 889:../Library/STM32F10x_StdPeriph_Driver/src/stm32f10x_flash.c **** #endif /* STM32F10X_XL */
 890:../Library/STM32F10x_StdPeriph_Driver/src/stm32f10x_flash.c ****    
 891:../Library/STM32F10x_StdPeriph_Driver/src/stm32f10x_flash.c ****   /* Return the Program Status */
 892:../Library/STM32F10x_StdPeriph_Driver/src/stm32f10x_flash.c ****   return status;
 893:../Library/STM32F10x_StdPeriph_Driver/src/stm32f10x_flash.c **** }
 894:../Library/STM32F10x_StdPeriph_Driver/src/stm32f10x_flash.c **** 
 895:../Library/STM32F10x_StdPeriph_Driver/src/stm32f10x_flash.c **** /**
 896:../Library/STM32F10x_StdPeriph_Driver/src/stm32f10x_flash.c ****   * @brief  Programs a half word at a specified address.
 897:../Library/STM32F10x_StdPeriph_Driver/src/stm32f10x_flash.c ****   * @note   This function can be used for all STM32F10x devices.
 898:../Library/STM32F10x_StdPeriph_Driver/src/stm32f10x_flash.c ****   * @param  Address: specifies the address to be programmed.
 899:../Library/STM32F10x_StdPeriph_Driver/src/stm32f10x_flash.c ****   * @param  Data: specifies the data to be programmed.
 900:../Library/STM32F10x_StdPeriph_Driver/src/stm32f10x_flash.c ****   * @retval FLASH Status: The returned value can be: FLASH_ERROR_PG,
 901:../Library/STM32F10x_StdPeriph_Driver/src/stm32f10x_flash.c ****   *   FLASH_ERROR_WRP, FLASH_COMPLETE or FLASH_TIMEOUT. 
 902:../Library/STM32F10x_StdPeriph_Driver/src/stm32f10x_flash.c ****   */
 903:../Library/STM32F10x_StdPeriph_Driver/src/stm32f10x_flash.c **** FLASH_Status FLASH_ProgramHalfWord(uint32_t Address, uint16_t Data)
 904:../Library/STM32F10x_StdPeriph_Driver/src/stm32f10x_flash.c **** {
 905:../Library/STM32F10x_StdPeriph_Driver/src/stm32f10x_flash.c ****   FLASH_Status status = FLASH_COMPLETE;
 906:../Library/STM32F10x_StdPeriph_Driver/src/stm32f10x_flash.c ****   /* Check the parameters */
 907:../Library/STM32F10x_StdPeriph_Driver/src/stm32f10x_flash.c ****   assert_param(IS_FLASH_ADDRESS(Address));
 908:../Library/STM32F10x_StdPeriph_Driver/src/stm32f10x_flash.c **** 
 909:../Library/STM32F10x_StdPeriph_Driver/src/stm32f10x_flash.c **** #ifdef STM32F10X_XL
 910:../Library/STM32F10x_StdPeriph_Driver/src/stm32f10x_flash.c ****   /* Wait for last operation to be completed */
 911:../Library/STM32F10x_StdPeriph_Driver/src/stm32f10x_flash.c ****   status = FLASH_WaitForLastOperation(ProgramTimeout);
 912:../Library/STM32F10x_StdPeriph_Driver/src/stm32f10x_flash.c ****   
 913:../Library/STM32F10x_StdPeriph_Driver/src/stm32f10x_flash.c ****   if(Address < FLASH_BANK1_END_ADDRESS)
 914:../Library/STM32F10x_StdPeriph_Driver/src/stm32f10x_flash.c ****   {
 915:../Library/STM32F10x_StdPeriph_Driver/src/stm32f10x_flash.c ****     if(status == FLASH_COMPLETE)
 916:../Library/STM32F10x_StdPeriph_Driver/src/stm32f10x_flash.c ****     {
 917:../Library/STM32F10x_StdPeriph_Driver/src/stm32f10x_flash.c ****       /* if the previous operation is completed, proceed to program the new data */
 918:../Library/STM32F10x_StdPeriph_Driver/src/stm32f10x_flash.c ****       FLASH->CR |= CR_PG_Set;
 919:../Library/STM32F10x_StdPeriph_Driver/src/stm32f10x_flash.c ****   
 920:../Library/STM32F10x_StdPeriph_Driver/src/stm32f10x_flash.c ****       *(__IO uint16_t*)Address = Data;
 921:../Library/STM32F10x_StdPeriph_Driver/src/stm32f10x_flash.c ****       /* Wait for last operation to be completed */
 922:../Library/STM32F10x_StdPeriph_Driver/src/stm32f10x_flash.c ****       status = FLASH_WaitForLastBank1Operation(ProgramTimeout);
 923:../Library/STM32F10x_StdPeriph_Driver/src/stm32f10x_flash.c ****       if(status != FLASH_TIMEOUT)
 924:../Library/STM32F10x_StdPeriph_Driver/src/stm32f10x_flash.c ****       {
 925:../Library/STM32F10x_StdPeriph_Driver/src/stm32f10x_flash.c ****         /* if the program operation is completed, disable the PG Bit */
 926:../Library/STM32F10x_StdPeriph_Driver/src/stm32f10x_flash.c ****         FLASH->CR &= CR_PG_Reset;
 927:../Library/STM32F10x_StdPeriph_Driver/src/stm32f10x_flash.c ****       }
 928:../Library/STM32F10x_StdPeriph_Driver/src/stm32f10x_flash.c ****     }
 929:../Library/STM32F10x_StdPeriph_Driver/src/stm32f10x_flash.c ****   }
 930:../Library/STM32F10x_StdPeriph_Driver/src/stm32f10x_flash.c ****   else
 931:../Library/STM32F10x_StdPeriph_Driver/src/stm32f10x_flash.c ****   {
 932:../Library/STM32F10x_StdPeriph_Driver/src/stm32f10x_flash.c ****     if(status == FLASH_COMPLETE)
 933:../Library/STM32F10x_StdPeriph_Driver/src/stm32f10x_flash.c ****     {
 934:../Library/STM32F10x_StdPeriph_Driver/src/stm32f10x_flash.c ****       /* if the previous operation is completed, proceed to program the new data */
 935:../Library/STM32F10x_StdPeriph_Driver/src/stm32f10x_flash.c ****       FLASH->CR2 |= CR_PG_Set;
 936:../Library/STM32F10x_StdPeriph_Driver/src/stm32f10x_flash.c ****   
 937:../Library/STM32F10x_StdPeriph_Driver/src/stm32f10x_flash.c ****       *(__IO uint16_t*)Address = Data;
 938:../Library/STM32F10x_StdPeriph_Driver/src/stm32f10x_flash.c ****       /* Wait for last operation to be completed */
 939:../Library/STM32F10x_StdPeriph_Driver/src/stm32f10x_flash.c ****       status = FLASH_WaitForLastBank2Operation(ProgramTimeout);
 940:../Library/STM32F10x_StdPeriph_Driver/src/stm32f10x_flash.c ****       if(status != FLASH_TIMEOUT)
 941:../Library/STM32F10x_StdPeriph_Driver/src/stm32f10x_flash.c ****       {
 942:../Library/STM32F10x_StdPeriph_Driver/src/stm32f10x_flash.c ****         /* if the program operation is completed, disable the PG Bit */
 943:../Library/STM32F10x_StdPeriph_Driver/src/stm32f10x_flash.c ****         FLASH->CR2 &= CR_PG_Reset;
 944:../Library/STM32F10x_StdPeriph_Driver/src/stm32f10x_flash.c ****       }
 945:../Library/STM32F10x_StdPeriph_Driver/src/stm32f10x_flash.c ****     }
 946:../Library/STM32F10x_StdPeriph_Driver/src/stm32f10x_flash.c ****   }
 947:../Library/STM32F10x_StdPeriph_Driver/src/stm32f10x_flash.c **** #else
 948:../Library/STM32F10x_StdPeriph_Driver/src/stm32f10x_flash.c ****   /* Wait for last operation to be completed */
 949:../Library/STM32F10x_StdPeriph_Driver/src/stm32f10x_flash.c ****   status = FLASH_WaitForLastOperation(ProgramTimeout);
 950:../Library/STM32F10x_StdPeriph_Driver/src/stm32f10x_flash.c ****   
 951:../Library/STM32F10x_StdPeriph_Driver/src/stm32f10x_flash.c ****   if(status == FLASH_COMPLETE)
 952:../Library/STM32F10x_StdPeriph_Driver/src/stm32f10x_flash.c ****   {
 953:../Library/STM32F10x_StdPeriph_Driver/src/stm32f10x_flash.c ****     /* if the previous operation is completed, proceed to program the new data */
 954:../Library/STM32F10x_StdPeriph_Driver/src/stm32f10x_flash.c ****     FLASH->CR |= CR_PG_Set;
 955:../Library/STM32F10x_StdPeriph_Driver/src/stm32f10x_flash.c ****   
 956:../Library/STM32F10x_StdPeriph_Driver/src/stm32f10x_flash.c ****     *(__IO uint16_t*)Address = Data;
 957:../Library/STM32F10x_StdPeriph_Driver/src/stm32f10x_flash.c ****     /* Wait for last operation to be completed */
 958:../Library/STM32F10x_StdPeriph_Driver/src/stm32f10x_flash.c ****     status = FLASH_WaitForLastOperation(ProgramTimeout);
 959:../Library/STM32F10x_StdPeriph_Driver/src/stm32f10x_flash.c ****     if(status != FLASH_TIMEOUT)
 960:../Library/STM32F10x_StdPeriph_Driver/src/stm32f10x_flash.c ****     {
 961:../Library/STM32F10x_StdPeriph_Driver/src/stm32f10x_flash.c ****       /* if the program operation is completed, disable the PG Bit */
 962:../Library/STM32F10x_StdPeriph_Driver/src/stm32f10x_flash.c ****       FLASH->CR &= CR_PG_Reset;
 963:../Library/STM32F10x_StdPeriph_Driver/src/stm32f10x_flash.c ****     }
 964:../Library/STM32F10x_StdPeriph_Driver/src/stm32f10x_flash.c ****   } 
 965:../Library/STM32F10x_StdPeriph_Driver/src/stm32f10x_flash.c **** #endif  /* STM32F10X_XL */
 966:../Library/STM32F10x_StdPeriph_Driver/src/stm32f10x_flash.c ****   
 967:../Library/STM32F10x_StdPeriph_Driver/src/stm32f10x_flash.c ****   /* Return the Program Status */
 968:../Library/STM32F10x_StdPeriph_Driver/src/stm32f10x_flash.c ****   return status;
 969:../Library/STM32F10x_StdPeriph_Driver/src/stm32f10x_flash.c **** }
 970:../Library/STM32F10x_StdPeriph_Driver/src/stm32f10x_flash.c **** 
 971:../Library/STM32F10x_StdPeriph_Driver/src/stm32f10x_flash.c **** /**
 972:../Library/STM32F10x_StdPeriph_Driver/src/stm32f10x_flash.c ****   * @brief  Programs a half word at a specified Option Byte Data address.
 973:../Library/STM32F10x_StdPeriph_Driver/src/stm32f10x_flash.c ****   * @note   This function can be used for all STM32F10x devices.
 974:../Library/STM32F10x_StdPeriph_Driver/src/stm32f10x_flash.c ****   * @param  Address: specifies the address to be programmed.
 975:../Library/STM32F10x_StdPeriph_Driver/src/stm32f10x_flash.c ****   *   This parameter can be 0x1FFFF804 or 0x1FFFF806. 
 976:../Library/STM32F10x_StdPeriph_Driver/src/stm32f10x_flash.c ****   * @param  Data: specifies the data to be programmed.
 977:../Library/STM32F10x_StdPeriph_Driver/src/stm32f10x_flash.c ****   * @retval FLASH Status: The returned value can be: FLASH_ERROR_PG,
 978:../Library/STM32F10x_StdPeriph_Driver/src/stm32f10x_flash.c ****   *   FLASH_ERROR_WRP, FLASH_COMPLETE or FLASH_TIMEOUT. 
 979:../Library/STM32F10x_StdPeriph_Driver/src/stm32f10x_flash.c ****   */
 980:../Library/STM32F10x_StdPeriph_Driver/src/stm32f10x_flash.c **** FLASH_Status FLASH_ProgramOptionByteData(uint32_t Address, uint8_t Data)
 981:../Library/STM32F10x_StdPeriph_Driver/src/stm32f10x_flash.c **** {
 982:../Library/STM32F10x_StdPeriph_Driver/src/stm32f10x_flash.c ****   FLASH_Status status = FLASH_COMPLETE;
 983:../Library/STM32F10x_StdPeriph_Driver/src/stm32f10x_flash.c ****   /* Check the parameters */
 984:../Library/STM32F10x_StdPeriph_Driver/src/stm32f10x_flash.c ****   assert_param(IS_OB_DATA_ADDRESS(Address));
 985:../Library/STM32F10x_StdPeriph_Driver/src/stm32f10x_flash.c ****   status = FLASH_WaitForLastOperation(ProgramTimeout);
 986:../Library/STM32F10x_StdPeriph_Driver/src/stm32f10x_flash.c **** 
 987:../Library/STM32F10x_StdPeriph_Driver/src/stm32f10x_flash.c ****   if(status == FLASH_COMPLETE)
 988:../Library/STM32F10x_StdPeriph_Driver/src/stm32f10x_flash.c ****   {
 989:../Library/STM32F10x_StdPeriph_Driver/src/stm32f10x_flash.c ****     /* Authorize the small information block programming */
 990:../Library/STM32F10x_StdPeriph_Driver/src/stm32f10x_flash.c ****     FLASH->OPTKEYR = FLASH_KEY1;
 991:../Library/STM32F10x_StdPeriph_Driver/src/stm32f10x_flash.c ****     FLASH->OPTKEYR = FLASH_KEY2;
 992:../Library/STM32F10x_StdPeriph_Driver/src/stm32f10x_flash.c ****     /* Enables the Option Bytes Programming operation */
 993:../Library/STM32F10x_StdPeriph_Driver/src/stm32f10x_flash.c ****     FLASH->CR |= CR_OPTPG_Set; 
 994:../Library/STM32F10x_StdPeriph_Driver/src/stm32f10x_flash.c ****     *(__IO uint16_t*)Address = Data;
 995:../Library/STM32F10x_StdPeriph_Driver/src/stm32f10x_flash.c ****     
 996:../Library/STM32F10x_StdPeriph_Driver/src/stm32f10x_flash.c ****     /* Wait for last operation to be completed */
 997:../Library/STM32F10x_StdPeriph_Driver/src/stm32f10x_flash.c ****     status = FLASH_WaitForLastOperation(ProgramTimeout);
 998:../Library/STM32F10x_StdPeriph_Driver/src/stm32f10x_flash.c ****     if(status != FLASH_TIMEOUT)
 999:../Library/STM32F10x_StdPeriph_Driver/src/stm32f10x_flash.c ****     {
1000:../Library/STM32F10x_StdPeriph_Driver/src/stm32f10x_flash.c ****       /* if the program operation is completed, disable the OPTPG Bit */
1001:../Library/STM32F10x_StdPeriph_Driver/src/stm32f10x_flash.c ****       FLASH->CR &= CR_OPTPG_Reset;
1002:../Library/STM32F10x_StdPeriph_Driver/src/stm32f10x_flash.c ****     }
1003:../Library/STM32F10x_StdPeriph_Driver/src/stm32f10x_flash.c ****   }
1004:../Library/STM32F10x_StdPeriph_Driver/src/stm32f10x_flash.c ****   /* Return the Option Byte Data Program Status */
1005:../Library/STM32F10x_StdPeriph_Driver/src/stm32f10x_flash.c ****   return status;
1006:../Library/STM32F10x_StdPeriph_Driver/src/stm32f10x_flash.c **** }
1007:../Library/STM32F10x_StdPeriph_Driver/src/stm32f10x_flash.c **** 
1008:../Library/STM32F10x_StdPeriph_Driver/src/stm32f10x_flash.c **** /**
1009:../Library/STM32F10x_StdPeriph_Driver/src/stm32f10x_flash.c ****   * @brief  Write protects the desired pages
1010:../Library/STM32F10x_StdPeriph_Driver/src/stm32f10x_flash.c ****   * @note   This function can be used for all STM32F10x devices.
1011:../Library/STM32F10x_StdPeriph_Driver/src/stm32f10x_flash.c ****   * @param  FLASH_Pages: specifies the address of the pages to be write protected.
1012:../Library/STM32F10x_StdPeriph_Driver/src/stm32f10x_flash.c ****   *   This parameter can be:
1013:../Library/STM32F10x_StdPeriph_Driver/src/stm32f10x_flash.c ****   *     @arg For @b STM32_Low-density_devices: value between FLASH_WRProt_Pages0to3 and FLASH_WRPro
1014:../Library/STM32F10x_StdPeriph_Driver/src/stm32f10x_flash.c ****   *     @arg For @b STM32_Medium-density_devices: value between FLASH_WRProt_Pages0to3
1015:../Library/STM32F10x_StdPeriph_Driver/src/stm32f10x_flash.c ****   *       and FLASH_WRProt_Pages124to127
1016:../Library/STM32F10x_StdPeriph_Driver/src/stm32f10x_flash.c ****   *     @arg For @b STM32_High-density_devices: value between FLASH_WRProt_Pages0to1 and
1017:../Library/STM32F10x_StdPeriph_Driver/src/stm32f10x_flash.c ****   *       FLASH_WRProt_Pages60to61 or FLASH_WRProt_Pages62to255
1018:../Library/STM32F10x_StdPeriph_Driver/src/stm32f10x_flash.c ****   *     @arg For @b STM32_Connectivity_line_devices: value between FLASH_WRProt_Pages0to1 and
1019:../Library/STM32F10x_StdPeriph_Driver/src/stm32f10x_flash.c ****   *       FLASH_WRProt_Pages60to61 or FLASH_WRProt_Pages62to127    
1020:../Library/STM32F10x_StdPeriph_Driver/src/stm32f10x_flash.c ****   *     @arg For @b STM32_XL-density_devices: value between FLASH_WRProt_Pages0to1 and
1021:../Library/STM32F10x_StdPeriph_Driver/src/stm32f10x_flash.c ****   *       FLASH_WRProt_Pages60to61 or FLASH_WRProt_Pages62to511
1022:../Library/STM32F10x_StdPeriph_Driver/src/stm32f10x_flash.c ****   *     @arg FLASH_WRProt_AllPages
1023:../Library/STM32F10x_StdPeriph_Driver/src/stm32f10x_flash.c ****   * @retval FLASH Status: The returned value can be: FLASH_ERROR_PG,
1024:../Library/STM32F10x_StdPeriph_Driver/src/stm32f10x_flash.c ****   *   FLASH_ERROR_WRP, FLASH_COMPLETE or FLASH_TIMEOUT.
1025:../Library/STM32F10x_StdPeriph_Driver/src/stm32f10x_flash.c ****   */
1026:../Library/STM32F10x_StdPeriph_Driver/src/stm32f10x_flash.c **** FLASH_Status FLASH_EnableWriteProtection(uint32_t FLASH_Pages)
1027:../Library/STM32F10x_StdPeriph_Driver/src/stm32f10x_flash.c **** {
1028:../Library/STM32F10x_StdPeriph_Driver/src/stm32f10x_flash.c ****   uint16_t WRP0_Data = 0xFFFF, WRP1_Data = 0xFFFF, WRP2_Data = 0xFFFF, WRP3_Data = 0xFFFF;
1029:../Library/STM32F10x_StdPeriph_Driver/src/stm32f10x_flash.c ****   
1030:../Library/STM32F10x_StdPeriph_Driver/src/stm32f10x_flash.c ****   FLASH_Status status = FLASH_COMPLETE;
1031:../Library/STM32F10x_StdPeriph_Driver/src/stm32f10x_flash.c ****   
1032:../Library/STM32F10x_StdPeriph_Driver/src/stm32f10x_flash.c ****   /* Check the parameters */
1033:../Library/STM32F10x_StdPeriph_Driver/src/stm32f10x_flash.c ****   assert_param(IS_FLASH_WRPROT_PAGE(FLASH_Pages));
1034:../Library/STM32F10x_StdPeriph_Driver/src/stm32f10x_flash.c ****   
1035:../Library/STM32F10x_StdPeriph_Driver/src/stm32f10x_flash.c ****   FLASH_Pages = (uint32_t)(~FLASH_Pages);
1036:../Library/STM32F10x_StdPeriph_Driver/src/stm32f10x_flash.c ****   WRP0_Data = (uint16_t)(FLASH_Pages & WRP0_Mask);
1037:../Library/STM32F10x_StdPeriph_Driver/src/stm32f10x_flash.c ****   WRP1_Data = (uint16_t)((FLASH_Pages & WRP1_Mask) >> 8);
1038:../Library/STM32F10x_StdPeriph_Driver/src/stm32f10x_flash.c ****   WRP2_Data = (uint16_t)((FLASH_Pages & WRP2_Mask) >> 16);
1039:../Library/STM32F10x_StdPeriph_Driver/src/stm32f10x_flash.c ****   WRP3_Data = (uint16_t)((FLASH_Pages & WRP3_Mask) >> 24);
1040:../Library/STM32F10x_StdPeriph_Driver/src/stm32f10x_flash.c ****   
1041:../Library/STM32F10x_StdPeriph_Driver/src/stm32f10x_flash.c ****   /* Wait for last operation to be completed */
1042:../Library/STM32F10x_StdPeriph_Driver/src/stm32f10x_flash.c ****   status = FLASH_WaitForLastOperation(ProgramTimeout);
1043:../Library/STM32F10x_StdPeriph_Driver/src/stm32f10x_flash.c ****   
1044:../Library/STM32F10x_StdPeriph_Driver/src/stm32f10x_flash.c ****   if(status == FLASH_COMPLETE)
1045:../Library/STM32F10x_StdPeriph_Driver/src/stm32f10x_flash.c ****   {
1046:../Library/STM32F10x_StdPeriph_Driver/src/stm32f10x_flash.c ****     /* Authorizes the small information block programming */
1047:../Library/STM32F10x_StdPeriph_Driver/src/stm32f10x_flash.c ****     FLASH->OPTKEYR = FLASH_KEY1;
1048:../Library/STM32F10x_StdPeriph_Driver/src/stm32f10x_flash.c ****     FLASH->OPTKEYR = FLASH_KEY2;
1049:../Library/STM32F10x_StdPeriph_Driver/src/stm32f10x_flash.c ****     FLASH->CR |= CR_OPTPG_Set;
1050:../Library/STM32F10x_StdPeriph_Driver/src/stm32f10x_flash.c ****     if(WRP0_Data != 0xFF)
1051:../Library/STM32F10x_StdPeriph_Driver/src/stm32f10x_flash.c ****     {
1052:../Library/STM32F10x_StdPeriph_Driver/src/stm32f10x_flash.c ****       OB->WRP0 = WRP0_Data;
1053:../Library/STM32F10x_StdPeriph_Driver/src/stm32f10x_flash.c ****       
1054:../Library/STM32F10x_StdPeriph_Driver/src/stm32f10x_flash.c ****       /* Wait for last operation to be completed */
1055:../Library/STM32F10x_StdPeriph_Driver/src/stm32f10x_flash.c ****       status = FLASH_WaitForLastOperation(ProgramTimeout);
1056:../Library/STM32F10x_StdPeriph_Driver/src/stm32f10x_flash.c ****     }
1057:../Library/STM32F10x_StdPeriph_Driver/src/stm32f10x_flash.c ****     if((status == FLASH_COMPLETE) && (WRP1_Data != 0xFF))
1058:../Library/STM32F10x_StdPeriph_Driver/src/stm32f10x_flash.c ****     {
1059:../Library/STM32F10x_StdPeriph_Driver/src/stm32f10x_flash.c ****       OB->WRP1 = WRP1_Data;
1060:../Library/STM32F10x_StdPeriph_Driver/src/stm32f10x_flash.c ****       
1061:../Library/STM32F10x_StdPeriph_Driver/src/stm32f10x_flash.c ****       /* Wait for last operation to be completed */
1062:../Library/STM32F10x_StdPeriph_Driver/src/stm32f10x_flash.c ****       status = FLASH_WaitForLastOperation(ProgramTimeout);
1063:../Library/STM32F10x_StdPeriph_Driver/src/stm32f10x_flash.c ****     }
1064:../Library/STM32F10x_StdPeriph_Driver/src/stm32f10x_flash.c ****     if((status == FLASH_COMPLETE) && (WRP2_Data != 0xFF))
1065:../Library/STM32F10x_StdPeriph_Driver/src/stm32f10x_flash.c ****     {
1066:../Library/STM32F10x_StdPeriph_Driver/src/stm32f10x_flash.c ****       OB->WRP2 = WRP2_Data;
1067:../Library/STM32F10x_StdPeriph_Driver/src/stm32f10x_flash.c ****       
1068:../Library/STM32F10x_StdPeriph_Driver/src/stm32f10x_flash.c ****       /* Wait for last operation to be completed */
1069:../Library/STM32F10x_StdPeriph_Driver/src/stm32f10x_flash.c ****       status = FLASH_WaitForLastOperation(ProgramTimeout);
1070:../Library/STM32F10x_StdPeriph_Driver/src/stm32f10x_flash.c ****     }
1071:../Library/STM32F10x_StdPeriph_Driver/src/stm32f10x_flash.c ****     
1072:../Library/STM32F10x_StdPeriph_Driver/src/stm32f10x_flash.c ****     if((status == FLASH_COMPLETE)&& (WRP3_Data != 0xFF))
1073:../Library/STM32F10x_StdPeriph_Driver/src/stm32f10x_flash.c ****     {
1074:../Library/STM32F10x_StdPeriph_Driver/src/stm32f10x_flash.c ****       OB->WRP3 = WRP3_Data;
1075:../Library/STM32F10x_StdPeriph_Driver/src/stm32f10x_flash.c ****      
1076:../Library/STM32F10x_StdPeriph_Driver/src/stm32f10x_flash.c ****       /* Wait for last operation to be completed */
1077:../Library/STM32F10x_StdPeriph_Driver/src/stm32f10x_flash.c ****       status = FLASH_WaitForLastOperation(ProgramTimeout);
1078:../Library/STM32F10x_StdPeriph_Driver/src/stm32f10x_flash.c ****     }
1079:../Library/STM32F10x_StdPeriph_Driver/src/stm32f10x_flash.c ****           
1080:../Library/STM32F10x_StdPeriph_Driver/src/stm32f10x_flash.c ****     if(status != FLASH_TIMEOUT)
1081:../Library/STM32F10x_StdPeriph_Driver/src/stm32f10x_flash.c ****     {
1082:../Library/STM32F10x_StdPeriph_Driver/src/stm32f10x_flash.c ****       /* if the program operation is completed, disable the OPTPG Bit */
1083:../Library/STM32F10x_StdPeriph_Driver/src/stm32f10x_flash.c ****       FLASH->CR &= CR_OPTPG_Reset;
1084:../Library/STM32F10x_StdPeriph_Driver/src/stm32f10x_flash.c ****     }
1085:../Library/STM32F10x_StdPeriph_Driver/src/stm32f10x_flash.c ****   } 
1086:../Library/STM32F10x_StdPeriph_Driver/src/stm32f10x_flash.c ****   /* Return the write protection operation Status */
1087:../Library/STM32F10x_StdPeriph_Driver/src/stm32f10x_flash.c ****   return status;       
1088:../Library/STM32F10x_StdPeriph_Driver/src/stm32f10x_flash.c **** }
1089:../Library/STM32F10x_StdPeriph_Driver/src/stm32f10x_flash.c **** 
1090:../Library/STM32F10x_StdPeriph_Driver/src/stm32f10x_flash.c **** /**
1091:../Library/STM32F10x_StdPeriph_Driver/src/stm32f10x_flash.c ****   * @brief  Enables or disables the read out protection.
1092:../Library/STM32F10x_StdPeriph_Driver/src/stm32f10x_flash.c ****   * @note   If the user has already programmed the other option bytes before calling 
1093:../Library/STM32F10x_StdPeriph_Driver/src/stm32f10x_flash.c ****   *   this function, he must re-program them since this function erases all option bytes.
1094:../Library/STM32F10x_StdPeriph_Driver/src/stm32f10x_flash.c ****   * @note   This function can be used for all STM32F10x devices.
1095:../Library/STM32F10x_StdPeriph_Driver/src/stm32f10x_flash.c ****   * @param  Newstate: new state of the ReadOut Protection.
1096:../Library/STM32F10x_StdPeriph_Driver/src/stm32f10x_flash.c ****   *   This parameter can be: ENABLE or DISABLE.
1097:../Library/STM32F10x_StdPeriph_Driver/src/stm32f10x_flash.c ****   * @retval FLASH Status: The returned value can be: FLASH_ERROR_PG,
1098:../Library/STM32F10x_StdPeriph_Driver/src/stm32f10x_flash.c ****   *   FLASH_ERROR_WRP, FLASH_COMPLETE or FLASH_TIMEOUT.
1099:../Library/STM32F10x_StdPeriph_Driver/src/stm32f10x_flash.c ****   */
1100:../Library/STM32F10x_StdPeriph_Driver/src/stm32f10x_flash.c **** FLASH_Status FLASH_ReadOutProtection(FunctionalState NewState)
1101:../Library/STM32F10x_StdPeriph_Driver/src/stm32f10x_flash.c **** {
1102:../Library/STM32F10x_StdPeriph_Driver/src/stm32f10x_flash.c ****   FLASH_Status status = FLASH_COMPLETE;
1103:../Library/STM32F10x_StdPeriph_Driver/src/stm32f10x_flash.c ****   /* Check the parameters */
1104:../Library/STM32F10x_StdPeriph_Driver/src/stm32f10x_flash.c ****   assert_param(IS_FUNCTIONAL_STATE(NewState));
1105:../Library/STM32F10x_StdPeriph_Driver/src/stm32f10x_flash.c ****   status = FLASH_WaitForLastOperation(EraseTimeout);
1106:../Library/STM32F10x_StdPeriph_Driver/src/stm32f10x_flash.c ****   if(status == FLASH_COMPLETE)
1107:../Library/STM32F10x_StdPeriph_Driver/src/stm32f10x_flash.c ****   {
1108:../Library/STM32F10x_StdPeriph_Driver/src/stm32f10x_flash.c ****     /* Authorizes the small information block programming */
1109:../Library/STM32F10x_StdPeriph_Driver/src/stm32f10x_flash.c ****     FLASH->OPTKEYR = FLASH_KEY1;
1110:../Library/STM32F10x_StdPeriph_Driver/src/stm32f10x_flash.c ****     FLASH->OPTKEYR = FLASH_KEY2;
1111:../Library/STM32F10x_StdPeriph_Driver/src/stm32f10x_flash.c ****     FLASH->CR |= CR_OPTER_Set;
1112:../Library/STM32F10x_StdPeriph_Driver/src/stm32f10x_flash.c ****     FLASH->CR |= CR_STRT_Set;
1113:../Library/STM32F10x_StdPeriph_Driver/src/stm32f10x_flash.c ****     /* Wait for last operation to be completed */
1114:../Library/STM32F10x_StdPeriph_Driver/src/stm32f10x_flash.c ****     status = FLASH_WaitForLastOperation(EraseTimeout);
1115:../Library/STM32F10x_StdPeriph_Driver/src/stm32f10x_flash.c ****     if(status == FLASH_COMPLETE)
1116:../Library/STM32F10x_StdPeriph_Driver/src/stm32f10x_flash.c ****     {
1117:../Library/STM32F10x_StdPeriph_Driver/src/stm32f10x_flash.c ****       /* if the erase operation is completed, disable the OPTER Bit */
1118:../Library/STM32F10x_StdPeriph_Driver/src/stm32f10x_flash.c ****       FLASH->CR &= CR_OPTER_Reset;
1119:../Library/STM32F10x_StdPeriph_Driver/src/stm32f10x_flash.c ****       /* Enable the Option Bytes Programming operation */
1120:../Library/STM32F10x_StdPeriph_Driver/src/stm32f10x_flash.c ****       FLASH->CR |= CR_OPTPG_Set; 
1121:../Library/STM32F10x_StdPeriph_Driver/src/stm32f10x_flash.c ****       if(NewState != DISABLE)
1122:../Library/STM32F10x_StdPeriph_Driver/src/stm32f10x_flash.c ****       {
1123:../Library/STM32F10x_StdPeriph_Driver/src/stm32f10x_flash.c ****         OB->RDP = 0x00;
1124:../Library/STM32F10x_StdPeriph_Driver/src/stm32f10x_flash.c ****       }
1125:../Library/STM32F10x_StdPeriph_Driver/src/stm32f10x_flash.c ****       else
1126:../Library/STM32F10x_StdPeriph_Driver/src/stm32f10x_flash.c ****       {
1127:../Library/STM32F10x_StdPeriph_Driver/src/stm32f10x_flash.c ****         OB->RDP = RDP_Key;  
1128:../Library/STM32F10x_StdPeriph_Driver/src/stm32f10x_flash.c ****       }
1129:../Library/STM32F10x_StdPeriph_Driver/src/stm32f10x_flash.c ****       /* Wait for last operation to be completed */
1130:../Library/STM32F10x_StdPeriph_Driver/src/stm32f10x_flash.c ****       status = FLASH_WaitForLastOperation(EraseTimeout); 
1131:../Library/STM32F10x_StdPeriph_Driver/src/stm32f10x_flash.c ****     
1132:../Library/STM32F10x_StdPeriph_Driver/src/stm32f10x_flash.c ****       if(status != FLASH_TIMEOUT)
1133:../Library/STM32F10x_StdPeriph_Driver/src/stm32f10x_flash.c ****       {
1134:../Library/STM32F10x_StdPeriph_Driver/src/stm32f10x_flash.c ****         /* if the program operation is completed, disable the OPTPG Bit */
1135:../Library/STM32F10x_StdPeriph_Driver/src/stm32f10x_flash.c ****         FLASH->CR &= CR_OPTPG_Reset;
1136:../Library/STM32F10x_StdPeriph_Driver/src/stm32f10x_flash.c ****       }
1137:../Library/STM32F10x_StdPeriph_Driver/src/stm32f10x_flash.c ****     }
1138:../Library/STM32F10x_StdPeriph_Driver/src/stm32f10x_flash.c ****     else 
1139:../Library/STM32F10x_StdPeriph_Driver/src/stm32f10x_flash.c ****     {
1140:../Library/STM32F10x_StdPeriph_Driver/src/stm32f10x_flash.c ****       if(status != FLASH_TIMEOUT)
1141:../Library/STM32F10x_StdPeriph_Driver/src/stm32f10x_flash.c ****       {
1142:../Library/STM32F10x_StdPeriph_Driver/src/stm32f10x_flash.c ****         /* Disable the OPTER Bit */
1143:../Library/STM32F10x_StdPeriph_Driver/src/stm32f10x_flash.c ****         FLASH->CR &= CR_OPTER_Reset;
1144:../Library/STM32F10x_StdPeriph_Driver/src/stm32f10x_flash.c ****       }
1145:../Library/STM32F10x_StdPeriph_Driver/src/stm32f10x_flash.c ****     }
1146:../Library/STM32F10x_StdPeriph_Driver/src/stm32f10x_flash.c ****   }
1147:../Library/STM32F10x_StdPeriph_Driver/src/stm32f10x_flash.c ****   /* Return the protection operation Status */
1148:../Library/STM32F10x_StdPeriph_Driver/src/stm32f10x_flash.c ****   return status;       
1149:../Library/STM32F10x_StdPeriph_Driver/src/stm32f10x_flash.c **** }
1150:../Library/STM32F10x_StdPeriph_Driver/src/stm32f10x_flash.c **** 
1151:../Library/STM32F10x_StdPeriph_Driver/src/stm32f10x_flash.c **** /**
1152:../Library/STM32F10x_StdPeriph_Driver/src/stm32f10x_flash.c ****   * @brief  Programs the FLASH User Option Byte: IWDG_SW / RST_STOP / RST_STDBY.
1153:../Library/STM32F10x_StdPeriph_Driver/src/stm32f10x_flash.c ****   * @note   This function can be used for all STM32F10x devices.
1154:../Library/STM32F10x_StdPeriph_Driver/src/stm32f10x_flash.c ****   * @param  OB_IWDG: Selects the IWDG mode
1155:../Library/STM32F10x_StdPeriph_Driver/src/stm32f10x_flash.c ****   *   This parameter can be one of the following values:
1156:../Library/STM32F10x_StdPeriph_Driver/src/stm32f10x_flash.c ****   *     @arg OB_IWDG_SW: Software IWDG selected
1157:../Library/STM32F10x_StdPeriph_Driver/src/stm32f10x_flash.c ****   *     @arg OB_IWDG_HW: Hardware IWDG selected
1158:../Library/STM32F10x_StdPeriph_Driver/src/stm32f10x_flash.c ****   * @param  OB_STOP: Reset event when entering STOP mode.
1159:../Library/STM32F10x_StdPeriph_Driver/src/stm32f10x_flash.c ****   *   This parameter can be one of the following values:
1160:../Library/STM32F10x_StdPeriph_Driver/src/stm32f10x_flash.c ****   *     @arg OB_STOP_NoRST: No reset generated when entering in STOP
1161:../Library/STM32F10x_StdPeriph_Driver/src/stm32f10x_flash.c ****   *     @arg OB_STOP_RST: Reset generated when entering in STOP
1162:../Library/STM32F10x_StdPeriph_Driver/src/stm32f10x_flash.c ****   * @param  OB_STDBY: Reset event when entering Standby mode.
1163:../Library/STM32F10x_StdPeriph_Driver/src/stm32f10x_flash.c ****   *   This parameter can be one of the following values:
1164:../Library/STM32F10x_StdPeriph_Driver/src/stm32f10x_flash.c ****   *     @arg OB_STDBY_NoRST: No reset generated when entering in STANDBY
1165:../Library/STM32F10x_StdPeriph_Driver/src/stm32f10x_flash.c ****   *     @arg OB_STDBY_RST: Reset generated when entering in STANDBY
1166:../Library/STM32F10x_StdPeriph_Driver/src/stm32f10x_flash.c ****   * @retval FLASH Status: The returned value can be: FLASH_ERROR_PG, 
1167:../Library/STM32F10x_StdPeriph_Driver/src/stm32f10x_flash.c ****   * FLASH_ERROR_WRP, FLASH_COMPLETE or FLASH_TIMEOUT.
1168:../Library/STM32F10x_StdPeriph_Driver/src/stm32f10x_flash.c ****   */
1169:../Library/STM32F10x_StdPeriph_Driver/src/stm32f10x_flash.c **** FLASH_Status FLASH_UserOptionByteConfig(uint16_t OB_IWDG, uint16_t OB_STOP, uint16_t OB_STDBY)
1170:../Library/STM32F10x_StdPeriph_Driver/src/stm32f10x_flash.c **** {
1171:../Library/STM32F10x_StdPeriph_Driver/src/stm32f10x_flash.c ****   FLASH_Status status = FLASH_COMPLETE; 
1172:../Library/STM32F10x_StdPeriph_Driver/src/stm32f10x_flash.c **** 
1173:../Library/STM32F10x_StdPeriph_Driver/src/stm32f10x_flash.c ****   /* Check the parameters */
1174:../Library/STM32F10x_StdPeriph_Driver/src/stm32f10x_flash.c ****   assert_param(IS_OB_IWDG_SOURCE(OB_IWDG));
1175:../Library/STM32F10x_StdPeriph_Driver/src/stm32f10x_flash.c ****   assert_param(IS_OB_STOP_SOURCE(OB_STOP));
1176:../Library/STM32F10x_StdPeriph_Driver/src/stm32f10x_flash.c ****   assert_param(IS_OB_STDBY_SOURCE(OB_STDBY));
1177:../Library/STM32F10x_StdPeriph_Driver/src/stm32f10x_flash.c **** 
1178:../Library/STM32F10x_StdPeriph_Driver/src/stm32f10x_flash.c ****   /* Authorize the small information block programming */
1179:../Library/STM32F10x_StdPeriph_Driver/src/stm32f10x_flash.c ****   FLASH->OPTKEYR = FLASH_KEY1;
1180:../Library/STM32F10x_StdPeriph_Driver/src/stm32f10x_flash.c ****   FLASH->OPTKEYR = FLASH_KEY2;
1181:../Library/STM32F10x_StdPeriph_Driver/src/stm32f10x_flash.c ****   
1182:../Library/STM32F10x_StdPeriph_Driver/src/stm32f10x_flash.c ****   /* Wait for last operation to be completed */
1183:../Library/STM32F10x_StdPeriph_Driver/src/stm32f10x_flash.c ****   status = FLASH_WaitForLastOperation(ProgramTimeout);
1184:../Library/STM32F10x_StdPeriph_Driver/src/stm32f10x_flash.c ****   
1185:../Library/STM32F10x_StdPeriph_Driver/src/stm32f10x_flash.c ****   if(status == FLASH_COMPLETE)
1186:../Library/STM32F10x_StdPeriph_Driver/src/stm32f10x_flash.c ****   {  
1187:../Library/STM32F10x_StdPeriph_Driver/src/stm32f10x_flash.c ****     /* Enable the Option Bytes Programming operation */
1188:../Library/STM32F10x_StdPeriph_Driver/src/stm32f10x_flash.c ****     FLASH->CR |= CR_OPTPG_Set; 
1189:../Library/STM32F10x_StdPeriph_Driver/src/stm32f10x_flash.c ****            
1190:../Library/STM32F10x_StdPeriph_Driver/src/stm32f10x_flash.c ****     OB->USER = OB_IWDG | (uint16_t)(OB_STOP | (uint16_t)(OB_STDBY | ((uint16_t)0xF8))); 
1191:../Library/STM32F10x_StdPeriph_Driver/src/stm32f10x_flash.c ****   
1192:../Library/STM32F10x_StdPeriph_Driver/src/stm32f10x_flash.c ****     /* Wait for last operation to be completed */
1193:../Library/STM32F10x_StdPeriph_Driver/src/stm32f10x_flash.c ****     status = FLASH_WaitForLastOperation(ProgramTimeout);
1194:../Library/STM32F10x_StdPeriph_Driver/src/stm32f10x_flash.c ****     if(status != FLASH_TIMEOUT)
1195:../Library/STM32F10x_StdPeriph_Driver/src/stm32f10x_flash.c ****     {
1196:../Library/STM32F10x_StdPeriph_Driver/src/stm32f10x_flash.c ****       /* if the program operation is completed, disable the OPTPG Bit */
1197:../Library/STM32F10x_StdPeriph_Driver/src/stm32f10x_flash.c ****       FLASH->CR &= CR_OPTPG_Reset;
1198:../Library/STM32F10x_StdPeriph_Driver/src/stm32f10x_flash.c ****     }
1199:../Library/STM32F10x_StdPeriph_Driver/src/stm32f10x_flash.c ****   }    
1200:../Library/STM32F10x_StdPeriph_Driver/src/stm32f10x_flash.c ****   /* Return the Option Byte program Status */
1201:../Library/STM32F10x_StdPeriph_Driver/src/stm32f10x_flash.c ****   return status;
1202:../Library/STM32F10x_StdPeriph_Driver/src/stm32f10x_flash.c **** }
1203:../Library/STM32F10x_StdPeriph_Driver/src/stm32f10x_flash.c **** 
1204:../Library/STM32F10x_StdPeriph_Driver/src/stm32f10x_flash.c **** #ifdef STM32F10X_XL
1205:../Library/STM32F10x_StdPeriph_Driver/src/stm32f10x_flash.c **** /**
1206:../Library/STM32F10x_StdPeriph_Driver/src/stm32f10x_flash.c ****   * @brief  Configures to boot from Bank1 or Bank2.  
1207:../Library/STM32F10x_StdPeriph_Driver/src/stm32f10x_flash.c ****   * @note   This function can be used only for STM32F10x_XL density devices.
1208:../Library/STM32F10x_StdPeriph_Driver/src/stm32f10x_flash.c ****   * @param  FLASH_BOOT: select the FLASH Bank to boot from.
1209:../Library/STM32F10x_StdPeriph_Driver/src/stm32f10x_flash.c ****   *   This parameter can be one of the following values:
1210:../Library/STM32F10x_StdPeriph_Driver/src/stm32f10x_flash.c ****   *     @arg FLASH_BOOT_Bank1: At startup, if boot pins are set in boot from user Flash
1211:../Library/STM32F10x_StdPeriph_Driver/src/stm32f10x_flash.c ****   *        position and this parameter is selected the device will boot from Bank1(Default).
1212:../Library/STM32F10x_StdPeriph_Driver/src/stm32f10x_flash.c ****   *     @arg FLASH_BOOT_Bank2: At startup, if boot pins are set in boot from user Flash
1213:../Library/STM32F10x_StdPeriph_Driver/src/stm32f10x_flash.c ****   *        position and this parameter is selected the device will boot from Bank2 or Bank1,
1214:../Library/STM32F10x_StdPeriph_Driver/src/stm32f10x_flash.c ****   *        depending on the activation of the bank. The active banks are checked in
1215:../Library/STM32F10x_StdPeriph_Driver/src/stm32f10x_flash.c ****   *        the following order: Bank2, followed by Bank1.
1216:../Library/STM32F10x_StdPeriph_Driver/src/stm32f10x_flash.c ****   *        The active bank is recognized by the value programmed at the base address
1217:../Library/STM32F10x_StdPeriph_Driver/src/stm32f10x_flash.c ****   *        of the respective bank (corresponding to the initial stack pointer value
1218:../Library/STM32F10x_StdPeriph_Driver/src/stm32f10x_flash.c ****   *        in the interrupt vector table).
1219:../Library/STM32F10x_StdPeriph_Driver/src/stm32f10x_flash.c ****   *        For more information, please refer to AN2606 from www.st.com.    
1220:../Library/STM32F10x_StdPeriph_Driver/src/stm32f10x_flash.c ****   * @retval FLASH Status: The returned value can be: FLASH_ERROR_PG, 
1221:../Library/STM32F10x_StdPeriph_Driver/src/stm32f10x_flash.c ****   * FLASH_ERROR_WRP, FLASH_COMPLETE or FLASH_TIMEOUT.
1222:../Library/STM32F10x_StdPeriph_Driver/src/stm32f10x_flash.c ****   */
1223:../Library/STM32F10x_StdPeriph_Driver/src/stm32f10x_flash.c **** FLASH_Status FLASH_BootConfig(uint16_t FLASH_BOOT)
1224:../Library/STM32F10x_StdPeriph_Driver/src/stm32f10x_flash.c **** { 
1225:../Library/STM32F10x_StdPeriph_Driver/src/stm32f10x_flash.c ****   FLASH_Status status = FLASH_COMPLETE; 
1226:../Library/STM32F10x_StdPeriph_Driver/src/stm32f10x_flash.c ****   assert_param(IS_FLASH_BOOT(FLASH_BOOT));
1227:../Library/STM32F10x_StdPeriph_Driver/src/stm32f10x_flash.c ****   /* Authorize the small information block programming */
1228:../Library/STM32F10x_StdPeriph_Driver/src/stm32f10x_flash.c ****   FLASH->OPTKEYR = FLASH_KEY1;
1229:../Library/STM32F10x_StdPeriph_Driver/src/stm32f10x_flash.c ****   FLASH->OPTKEYR = FLASH_KEY2;
1230:../Library/STM32F10x_StdPeriph_Driver/src/stm32f10x_flash.c ****   
1231:../Library/STM32F10x_StdPeriph_Driver/src/stm32f10x_flash.c ****   /* Wait for last operation to be completed */
1232:../Library/STM32F10x_StdPeriph_Driver/src/stm32f10x_flash.c ****   status = FLASH_WaitForLastOperation(ProgramTimeout);
1233:../Library/STM32F10x_StdPeriph_Driver/src/stm32f10x_flash.c ****   
1234:../Library/STM32F10x_StdPeriph_Driver/src/stm32f10x_flash.c ****   if(status == FLASH_COMPLETE)
1235:../Library/STM32F10x_StdPeriph_Driver/src/stm32f10x_flash.c ****   {  
1236:../Library/STM32F10x_StdPeriph_Driver/src/stm32f10x_flash.c ****     /* Enable the Option Bytes Programming operation */
1237:../Library/STM32F10x_StdPeriph_Driver/src/stm32f10x_flash.c ****     FLASH->CR |= CR_OPTPG_Set; 
1238:../Library/STM32F10x_StdPeriph_Driver/src/stm32f10x_flash.c **** 
1239:../Library/STM32F10x_StdPeriph_Driver/src/stm32f10x_flash.c ****     if(FLASH_BOOT == FLASH_BOOT_Bank1)
1240:../Library/STM32F10x_StdPeriph_Driver/src/stm32f10x_flash.c ****     {
1241:../Library/STM32F10x_StdPeriph_Driver/src/stm32f10x_flash.c ****       OB->USER |= OB_USER_BFB2;
1242:../Library/STM32F10x_StdPeriph_Driver/src/stm32f10x_flash.c ****     }
1243:../Library/STM32F10x_StdPeriph_Driver/src/stm32f10x_flash.c ****     else
1244:../Library/STM32F10x_StdPeriph_Driver/src/stm32f10x_flash.c ****     {
1245:../Library/STM32F10x_StdPeriph_Driver/src/stm32f10x_flash.c ****       OB->USER &= (uint16_t)(~(uint16_t)(OB_USER_BFB2));
1246:../Library/STM32F10x_StdPeriph_Driver/src/stm32f10x_flash.c ****     }
1247:../Library/STM32F10x_StdPeriph_Driver/src/stm32f10x_flash.c ****     /* Wait for last operation to be completed */
1248:../Library/STM32F10x_StdPeriph_Driver/src/stm32f10x_flash.c ****     status = FLASH_WaitForLastOperation(ProgramTimeout);
1249:../Library/STM32F10x_StdPeriph_Driver/src/stm32f10x_flash.c ****     if(status != FLASH_TIMEOUT)
1250:../Library/STM32F10x_StdPeriph_Driver/src/stm32f10x_flash.c ****     {
1251:../Library/STM32F10x_StdPeriph_Driver/src/stm32f10x_flash.c ****       /* if the program operation is completed, disable the OPTPG Bit */
1252:../Library/STM32F10x_StdPeriph_Driver/src/stm32f10x_flash.c ****       FLASH->CR &= CR_OPTPG_Reset;
1253:../Library/STM32F10x_StdPeriph_Driver/src/stm32f10x_flash.c ****     }
1254:../Library/STM32F10x_StdPeriph_Driver/src/stm32f10x_flash.c ****   }    
1255:../Library/STM32F10x_StdPeriph_Driver/src/stm32f10x_flash.c ****   /* Return the Option Byte program Status */
1256:../Library/STM32F10x_StdPeriph_Driver/src/stm32f10x_flash.c ****   return status;
1257:../Library/STM32F10x_StdPeriph_Driver/src/stm32f10x_flash.c **** }
1258:../Library/STM32F10x_StdPeriph_Driver/src/stm32f10x_flash.c **** #endif /* STM32F10X_XL */
1259:../Library/STM32F10x_StdPeriph_Driver/src/stm32f10x_flash.c **** 
1260:../Library/STM32F10x_StdPeriph_Driver/src/stm32f10x_flash.c **** /**
1261:../Library/STM32F10x_StdPeriph_Driver/src/stm32f10x_flash.c ****   * @brief  Returns the FLASH User Option Bytes values.
1262:../Library/STM32F10x_StdPeriph_Driver/src/stm32f10x_flash.c ****   * @note   This function can be used for all STM32F10x devices.
1263:../Library/STM32F10x_StdPeriph_Driver/src/stm32f10x_flash.c ****   * @param  None
1264:../Library/STM32F10x_StdPeriph_Driver/src/stm32f10x_flash.c ****   * @retval The FLASH User Option Bytes values:IWDG_SW(Bit0), RST_STOP(Bit1)
1265:../Library/STM32F10x_StdPeriph_Driver/src/stm32f10x_flash.c ****   *   and RST_STDBY(Bit2).
1266:../Library/STM32F10x_StdPeriph_Driver/src/stm32f10x_flash.c ****   */
1267:../Library/STM32F10x_StdPeriph_Driver/src/stm32f10x_flash.c **** uint32_t FLASH_GetUserOptionByte(void)
1268:../Library/STM32F10x_StdPeriph_Driver/src/stm32f10x_flash.c **** {
 18515              		.loc 1 1268 0
 18516              		.cfi_startproc
 18517              		@ args = 0, pretend = 0, frame = 0
 18518              		@ frame_needed = 0, uses_anonymous_args = 0
 18519              		@ link register save eliminated.
1269:../Library/STM32F10x_StdPeriph_Driver/src/stm32f10x_flash.c ****   /* Return the User Option Byte */
1270:../Library/STM32F10x_StdPeriph_Driver/src/stm32f10x_flash.c ****   return (uint32_t)(FLASH->OBR >> 2);
 18520              		.loc 1 1270 0
 18521 0000 42F20003 		movw	r3, #:lower16:1073881088
 18522 0004 C4F20203 		movt	r3, #:upper16:1073881088
 18523 0008 D869     		ldr	r0, [r3, #28]
1271:../Library/STM32F10x_StdPeriph_Driver/src/stm32f10x_flash.c **** }
 18524              		.loc 1 1271 0
 18525 000a 4FEA9000 		lsr	r0, r0, #2
 18526 000e 7047     		bx	lr
 18527              		.cfi_endproc
 18528              	.LFE46:
 18530              		.section	.text.FLASH_GetWriteProtectionOptionByte,"ax",%progbits
 18531              		.align	2
 18532              		.global	FLASH_GetWriteProtectionOptionByte
 18533              		.thumb
 18534              		.thumb_func
 18536              	FLASH_GetWriteProtectionOptionByte:
 18537              	.LFB47:
1272:../Library/STM32F10x_StdPeriph_Driver/src/stm32f10x_flash.c **** 
1273:../Library/STM32F10x_StdPeriph_Driver/src/stm32f10x_flash.c **** /**
1274:../Library/STM32F10x_StdPeriph_Driver/src/stm32f10x_flash.c ****   * @brief  Returns the FLASH Write Protection Option Bytes Register value.
1275:../Library/STM32F10x_StdPeriph_Driver/src/stm32f10x_flash.c ****   * @note   This function can be used for all STM32F10x devices.
1276:../Library/STM32F10x_StdPeriph_Driver/src/stm32f10x_flash.c ****   * @param  None
1277:../Library/STM32F10x_StdPeriph_Driver/src/stm32f10x_flash.c ****   * @retval The FLASH Write Protection  Option Bytes Register value
1278:../Library/STM32F10x_StdPeriph_Driver/src/stm32f10x_flash.c ****   */
1279:../Library/STM32F10x_StdPeriph_Driver/src/stm32f10x_flash.c **** uint32_t FLASH_GetWriteProtectionOptionByte(void)
1280:../Library/STM32F10x_StdPeriph_Driver/src/stm32f10x_flash.c **** {
 18538              		.loc 1 1280 0
 18539              		.cfi_startproc
 18540              		@ args = 0, pretend = 0, frame = 0
 18541              		@ frame_needed = 0, uses_anonymous_args = 0
 18542              		@ link register save eliminated.
1281:../Library/STM32F10x_StdPeriph_Driver/src/stm32f10x_flash.c ****   /* Return the Falsh write protection Register value */
1282:../Library/STM32F10x_StdPeriph_Driver/src/stm32f10x_flash.c ****   return (uint32_t)(FLASH->WRPR);
 18543              		.loc 1 1282 0
 18544 0000 42F20003 		movw	r3, #:lower16:1073881088
 18545 0004 C4F20203 		movt	r3, #:upper16:1073881088
 18546 0008 186A     		ldr	r0, [r3, #32]
1283:../Library/STM32F10x_StdPeriph_Driver/src/stm32f10x_flash.c **** }
 18547              		.loc 1 1283 0
 18548 000a 7047     		bx	lr
 18549              		.cfi_endproc
 18550              	.LFE47:
 18552              		.section	.text.FLASH_GetReadOutProtectionStatus,"ax",%progbits
 18553              		.align	2
 18554              		.global	FLASH_GetReadOutProtectionStatus
 18555              		.thumb
 18556              		.thumb_func
 18558              	FLASH_GetReadOutProtectionStatus:
 18559              	.LFB48:
1284:../Library/STM32F10x_StdPeriph_Driver/src/stm32f10x_flash.c **** 
1285:../Library/STM32F10x_StdPeriph_Driver/src/stm32f10x_flash.c **** /**
1286:../Library/STM32F10x_StdPeriph_Driver/src/stm32f10x_flash.c ****   * @brief  Checks whether the FLASH Read Out Protection Status is set or not.
1287:../Library/STM32F10x_StdPeriph_Driver/src/stm32f10x_flash.c ****   * @note   This function can be used for all STM32F10x devices.
1288:../Library/STM32F10x_StdPeriph_Driver/src/stm32f10x_flash.c ****   * @param  None
1289:../Library/STM32F10x_StdPeriph_Driver/src/stm32f10x_flash.c ****   * @retval FLASH ReadOut Protection Status(SET or RESET)
1290:../Library/STM32F10x_StdPeriph_Driver/src/stm32f10x_flash.c ****   */
1291:../Library/STM32F10x_StdPeriph_Driver/src/stm32f10x_flash.c **** FlagStatus FLASH_GetReadOutProtectionStatus(void)
1292:../Library/STM32F10x_StdPeriph_Driver/src/stm32f10x_flash.c **** {
 18560              		.loc 1 1292 0
 18561              		.cfi_startproc
 18562              		@ args = 0, pretend = 0, frame = 0
 18563              		@ frame_needed = 0, uses_anonymous_args = 0
 18564              		@ link register save eliminated.
1293:../Library/STM32F10x_StdPeriph_Driver/src/stm32f10x_flash.c ****   FlagStatus readoutstatus = RESET;
1294:../Library/STM32F10x_StdPeriph_Driver/src/stm32f10x_flash.c ****   if ((FLASH->OBR & RDPRT_Mask) != (uint32_t)RESET)
 18565              		.loc 1 1294 0
 18566 0000 42F20003 		movw	r3, #:lower16:1073881088
 18567 0004 C4F20203 		movt	r3, #:upper16:1073881088
 18568 0008 D869     		ldr	r0, [r3, #28]
1295:../Library/STM32F10x_StdPeriph_Driver/src/stm32f10x_flash.c ****   {
1296:../Library/STM32F10x_StdPeriph_Driver/src/stm32f10x_flash.c ****     readoutstatus = SET;
1297:../Library/STM32F10x_StdPeriph_Driver/src/stm32f10x_flash.c ****   }
1298:../Library/STM32F10x_StdPeriph_Driver/src/stm32f10x_flash.c ****   else
1299:../Library/STM32F10x_StdPeriph_Driver/src/stm32f10x_flash.c ****   {
1300:../Library/STM32F10x_StdPeriph_Driver/src/stm32f10x_flash.c ****     readoutstatus = RESET;
1301:../Library/STM32F10x_StdPeriph_Driver/src/stm32f10x_flash.c ****   }
1302:../Library/STM32F10x_StdPeriph_Driver/src/stm32f10x_flash.c ****   return readoutstatus;
1303:../Library/STM32F10x_StdPeriph_Driver/src/stm32f10x_flash.c **** }
 18569              		.loc 1 1303 0
 18570 000a C0F34000 		ubfx	r0, r0, #1, #1
 18571 000e 7047     		bx	lr
 18572              		.cfi_endproc
 18573              	.LFE48:
 18575              		.section	.text.FLASH_GetPrefetchBufferStatus,"ax",%progbits
 18576              		.align	2
 18577              		.global	FLASH_GetPrefetchBufferStatus
 18578              		.thumb
 18579              		.thumb_func
 18581              	FLASH_GetPrefetchBufferStatus:
 18582              	.LFB49:
1304:../Library/STM32F10x_StdPeriph_Driver/src/stm32f10x_flash.c **** 
1305:../Library/STM32F10x_StdPeriph_Driver/src/stm32f10x_flash.c **** /**
1306:../Library/STM32F10x_StdPeriph_Driver/src/stm32f10x_flash.c ****   * @brief  Checks whether the FLASH Prefetch Buffer status is set or not.
1307:../Library/STM32F10x_StdPeriph_Driver/src/stm32f10x_flash.c ****   * @note   This function can be used for all STM32F10x devices.
1308:../Library/STM32F10x_StdPeriph_Driver/src/stm32f10x_flash.c ****   * @param  None
1309:../Library/STM32F10x_StdPeriph_Driver/src/stm32f10x_flash.c ****   * @retval FLASH Prefetch Buffer Status (SET or RESET).
1310:../Library/STM32F10x_StdPeriph_Driver/src/stm32f10x_flash.c ****   */
1311:../Library/STM32F10x_StdPeriph_Driver/src/stm32f10x_flash.c **** FlagStatus FLASH_GetPrefetchBufferStatus(void)
1312:../Library/STM32F10x_StdPeriph_Driver/src/stm32f10x_flash.c **** {
 18583              		.loc 1 1312 0
 18584              		.cfi_startproc
 18585              		@ args = 0, pretend = 0, frame = 0
 18586              		@ frame_needed = 0, uses_anonymous_args = 0
 18587              		@ link register save eliminated.
1313:../Library/STM32F10x_StdPeriph_Driver/src/stm32f10x_flash.c ****   FlagStatus bitstatus = RESET;
1314:../Library/STM32F10x_StdPeriph_Driver/src/stm32f10x_flash.c ****   
1315:../Library/STM32F10x_StdPeriph_Driver/src/stm32f10x_flash.c ****   if ((FLASH->ACR & ACR_PRFTBS_Mask) != (uint32_t)RESET)
 18588              		.loc 1 1315 0
 18589 0000 42F20003 		movw	r3, #:lower16:1073881088
 18590 0004 C4F20203 		movt	r3, #:upper16:1073881088
 18591 0008 1868     		ldr	r0, [r3, #0]
1316:../Library/STM32F10x_StdPeriph_Driver/src/stm32f10x_flash.c ****   {
1317:../Library/STM32F10x_StdPeriph_Driver/src/stm32f10x_flash.c ****     bitstatus = SET;
1318:../Library/STM32F10x_StdPeriph_Driver/src/stm32f10x_flash.c ****   }
1319:../Library/STM32F10x_StdPeriph_Driver/src/stm32f10x_flash.c ****   else
1320:../Library/STM32F10x_StdPeriph_Driver/src/stm32f10x_flash.c ****   {
1321:../Library/STM32F10x_StdPeriph_Driver/src/stm32f10x_flash.c ****     bitstatus = RESET;
1322:../Library/STM32F10x_StdPeriph_Driver/src/stm32f10x_flash.c ****   }
1323:../Library/STM32F10x_StdPeriph_Driver/src/stm32f10x_flash.c ****   /* Return the new state of FLASH Prefetch Buffer Status (SET or RESET) */
1324:../Library/STM32F10x_StdPeriph_Driver/src/stm32f10x_flash.c ****   return bitstatus; 
1325:../Library/STM32F10x_StdPeriph_Driver/src/stm32f10x_flash.c **** }
 18592              		.loc 1 1325 0
 18593 000a C0F34010 		ubfx	r0, r0, #5, #1
 18594 000e 7047     		bx	lr
 18595              		.cfi_endproc
 18596              	.LFE49:
 18598              		.section	.text.FLASH_ITConfig,"ax",%progbits
 18599              		.align	2
 18600              		.global	FLASH_ITConfig
 18601              		.thumb
 18602              		.thumb_func
 18604              	FLASH_ITConfig:
 18605              	.LFB50:
1326:../Library/STM32F10x_StdPeriph_Driver/src/stm32f10x_flash.c **** 
1327:../Library/STM32F10x_StdPeriph_Driver/src/stm32f10x_flash.c **** /**
1328:../Library/STM32F10x_StdPeriph_Driver/src/stm32f10x_flash.c ****   * @brief  Enables or disables the specified FLASH interrupts.
1329:../Library/STM32F10x_StdPeriph_Driver/src/stm32f10x_flash.c ****   * @note   This function can be used for all STM32F10x devices.
1330:../Library/STM32F10x_StdPeriph_Driver/src/stm32f10x_flash.c ****   *         - For STM32F10X_XL devices, enables or disables the specified FLASH interrupts
1331:../Library/STM32F10x_StdPeriph_Driver/src/stm32f10x_flash.c ****               for Bank1 and Bank2.
1332:../Library/STM32F10x_StdPeriph_Driver/src/stm32f10x_flash.c ****   *         - For other devices it enables or disables the specified FLASH interrupts for Bank1.
1333:../Library/STM32F10x_StdPeriph_Driver/src/stm32f10x_flash.c ****   * @param  FLASH_IT: specifies the FLASH interrupt sources to be enabled or disabled.
1334:../Library/STM32F10x_StdPeriph_Driver/src/stm32f10x_flash.c ****   *   This parameter can be any combination of the following values:
1335:../Library/STM32F10x_StdPeriph_Driver/src/stm32f10x_flash.c ****   *     @arg FLASH_IT_ERROR: FLASH Error Interrupt
1336:../Library/STM32F10x_StdPeriph_Driver/src/stm32f10x_flash.c ****   *     @arg FLASH_IT_EOP: FLASH end of operation Interrupt
1337:../Library/STM32F10x_StdPeriph_Driver/src/stm32f10x_flash.c ****   * @param  NewState: new state of the specified Flash interrupts.
1338:../Library/STM32F10x_StdPeriph_Driver/src/stm32f10x_flash.c ****   *   This parameter can be: ENABLE or DISABLE.      
1339:../Library/STM32F10x_StdPeriph_Driver/src/stm32f10x_flash.c ****   * @retval None 
1340:../Library/STM32F10x_StdPeriph_Driver/src/stm32f10x_flash.c ****   */
1341:../Library/STM32F10x_StdPeriph_Driver/src/stm32f10x_flash.c **** void FLASH_ITConfig(uint32_t FLASH_IT, FunctionalState NewState)
1342:../Library/STM32F10x_StdPeriph_Driver/src/stm32f10x_flash.c **** {
 18606              		.loc 1 1342 0
 18607              		.cfi_startproc
 18608              		@ args = 0, pretend = 0, frame = 0
 18609              		@ frame_needed = 0, uses_anonymous_args = 0
 18610              		@ link register save eliminated.
 18611              	.LVL6:
1343:../Library/STM32F10x_StdPeriph_Driver/src/stm32f10x_flash.c **** #ifdef STM32F10X_XL
1344:../Library/STM32F10x_StdPeriph_Driver/src/stm32f10x_flash.c ****   /* Check the parameters */
1345:../Library/STM32F10x_StdPeriph_Driver/src/stm32f10x_flash.c ****   assert_param(IS_FLASH_IT(FLASH_IT)); 
1346:../Library/STM32F10x_StdPeriph_Driver/src/stm32f10x_flash.c ****   assert_param(IS_FUNCTIONAL_STATE(NewState));
1347:../Library/STM32F10x_StdPeriph_Driver/src/stm32f10x_flash.c **** 
1348:../Library/STM32F10x_StdPeriph_Driver/src/stm32f10x_flash.c ****   if((FLASH_IT & 0x80000000) != 0x0)
1349:../Library/STM32F10x_StdPeriph_Driver/src/stm32f10x_flash.c ****   {
1350:../Library/STM32F10x_StdPeriph_Driver/src/stm32f10x_flash.c ****     if(NewState != DISABLE)
1351:../Library/STM32F10x_StdPeriph_Driver/src/stm32f10x_flash.c ****     {
1352:../Library/STM32F10x_StdPeriph_Driver/src/stm32f10x_flash.c ****       /* Enable the interrupt sources */
1353:../Library/STM32F10x_StdPeriph_Driver/src/stm32f10x_flash.c ****       FLASH->CR2 |= (FLASH_IT & 0x7FFFFFFF);
1354:../Library/STM32F10x_StdPeriph_Driver/src/stm32f10x_flash.c ****     }
1355:../Library/STM32F10x_StdPeriph_Driver/src/stm32f10x_flash.c ****     else
1356:../Library/STM32F10x_StdPeriph_Driver/src/stm32f10x_flash.c ****     {
1357:../Library/STM32F10x_StdPeriph_Driver/src/stm32f10x_flash.c ****       /* Disable the interrupt sources */
1358:../Library/STM32F10x_StdPeriph_Driver/src/stm32f10x_flash.c ****       FLASH->CR2 &= ~(uint32_t)(FLASH_IT & 0x7FFFFFFF);
1359:../Library/STM32F10x_StdPeriph_Driver/src/stm32f10x_flash.c ****     }
1360:../Library/STM32F10x_StdPeriph_Driver/src/stm32f10x_flash.c ****   }
1361:../Library/STM32F10x_StdPeriph_Driver/src/stm32f10x_flash.c ****   else
1362:../Library/STM32F10x_StdPeriph_Driver/src/stm32f10x_flash.c ****   {
1363:../Library/STM32F10x_StdPeriph_Driver/src/stm32f10x_flash.c ****     if(NewState != DISABLE)
1364:../Library/STM32F10x_StdPeriph_Driver/src/stm32f10x_flash.c ****     {
1365:../Library/STM32F10x_StdPeriph_Driver/src/stm32f10x_flash.c ****       /* Enable the interrupt sources */
1366:../Library/STM32F10x_StdPeriph_Driver/src/stm32f10x_flash.c ****       FLASH->CR |= FLASH_IT;
1367:../Library/STM32F10x_StdPeriph_Driver/src/stm32f10x_flash.c ****     }
1368:../Library/STM32F10x_StdPeriph_Driver/src/stm32f10x_flash.c ****     else
1369:../Library/STM32F10x_StdPeriph_Driver/src/stm32f10x_flash.c ****     {
1370:../Library/STM32F10x_StdPeriph_Driver/src/stm32f10x_flash.c ****       /* Disable the interrupt sources */
1371:../Library/STM32F10x_StdPeriph_Driver/src/stm32f10x_flash.c ****       FLASH->CR &= ~(uint32_t)FLASH_IT;
1372:../Library/STM32F10x_StdPeriph_Driver/src/stm32f10x_flash.c ****     }
1373:../Library/STM32F10x_StdPeriph_Driver/src/stm32f10x_flash.c ****   }
1374:../Library/STM32F10x_StdPeriph_Driver/src/stm32f10x_flash.c **** #else
1375:../Library/STM32F10x_StdPeriph_Driver/src/stm32f10x_flash.c ****   /* Check the parameters */
1376:../Library/STM32F10x_StdPeriph_Driver/src/stm32f10x_flash.c ****   assert_param(IS_FLASH_IT(FLASH_IT)); 
1377:../Library/STM32F10x_StdPeriph_Driver/src/stm32f10x_flash.c ****   assert_param(IS_FUNCTIONAL_STATE(NewState));
1378:../Library/STM32F10x_StdPeriph_Driver/src/stm32f10x_flash.c **** 
1379:../Library/STM32F10x_StdPeriph_Driver/src/stm32f10x_flash.c ****   if(NewState != DISABLE)
 18612              		.loc 1 1379 0
 18613 0000 41B1     		cbz	r1, .L24
1380:../Library/STM32F10x_StdPeriph_Driver/src/stm32f10x_flash.c ****   {
1381:../Library/STM32F10x_StdPeriph_Driver/src/stm32f10x_flash.c ****     /* Enable the interrupt sources */
1382:../Library/STM32F10x_StdPeriph_Driver/src/stm32f10x_flash.c ****     FLASH->CR |= FLASH_IT;
 18614              		.loc 1 1382 0
 18615 0002 42F20003 		movw	r3, #:lower16:1073881088
 18616 0006 C4F20203 		movt	r3, #:upper16:1073881088
 18617 000a 1A69     		ldr	r2, [r3, #16]
 18618 000c 40EA0200 		orr	r0, r0, r2
 18619              	.LVL7:
 18620 0010 1861     		str	r0, [r3, #16]
 18621 0012 7047     		bx	lr
 18622              	.LVL8:
 18623              	.L24:
1383:../Library/STM32F10x_StdPeriph_Driver/src/stm32f10x_flash.c ****   }
1384:../Library/STM32F10x_StdPeriph_Driver/src/stm32f10x_flash.c ****   else
1385:../Library/STM32F10x_StdPeriph_Driver/src/stm32f10x_flash.c ****   {
1386:../Library/STM32F10x_StdPeriph_Driver/src/stm32f10x_flash.c ****     /* Disable the interrupt sources */
1387:../Library/STM32F10x_StdPeriph_Driver/src/stm32f10x_flash.c ****     FLASH->CR &= ~(uint32_t)FLASH_IT;
 18624              		.loc 1 1387 0
 18625 0014 42F20003 		movw	r3, #:lower16:1073881088
 18626 0018 C4F20203 		movt	r3, #:upper16:1073881088
 18627 001c 1A69     		ldr	r2, [r3, #16]
 18628 001e 22EA0000 		bic	r0, r2, r0
 18629              	.LVL9:
 18630 0022 1861     		str	r0, [r3, #16]
 18631 0024 7047     		bx	lr
 18632              		.cfi_endproc
 18633              	.LFE50:
 18635 0026 00BF     		.section	.text.FLASH_GetFlagStatus,"ax",%progbits
 18636              		.align	2
 18637              		.global	FLASH_GetFlagStatus
 18638              		.thumb
 18639              		.thumb_func
 18641              	FLASH_GetFlagStatus:
 18642              	.LFB51:
1388:../Library/STM32F10x_StdPeriph_Driver/src/stm32f10x_flash.c ****   }
1389:../Library/STM32F10x_StdPeriph_Driver/src/stm32f10x_flash.c **** #endif /* STM32F10X_XL */
1390:../Library/STM32F10x_StdPeriph_Driver/src/stm32f10x_flash.c **** }
1391:../Library/STM32F10x_StdPeriph_Driver/src/stm32f10x_flash.c **** 
1392:../Library/STM32F10x_StdPeriph_Driver/src/stm32f10x_flash.c **** /**
1393:../Library/STM32F10x_StdPeriph_Driver/src/stm32f10x_flash.c ****   * @brief  Checks whether the specified FLASH flag is set or not.
1394:../Library/STM32F10x_StdPeriph_Driver/src/stm32f10x_flash.c ****   * @note   This function can be used for all STM32F10x devices.
1395:../Library/STM32F10x_StdPeriph_Driver/src/stm32f10x_flash.c ****   *         - For STM32F10X_XL devices, this function checks whether the specified 
1396:../Library/STM32F10x_StdPeriph_Driver/src/stm32f10x_flash.c ****   *           Bank1 or Bank2 flag is set or not.
1397:../Library/STM32F10x_StdPeriph_Driver/src/stm32f10x_flash.c ****   *         - For other devices, it checks whether the specified Bank1 flag is 
1398:../Library/STM32F10x_StdPeriph_Driver/src/stm32f10x_flash.c ****   *           set or not.
1399:../Library/STM32F10x_StdPeriph_Driver/src/stm32f10x_flash.c ****   * @param  FLASH_FLAG: specifies the FLASH flag to check.
1400:../Library/STM32F10x_StdPeriph_Driver/src/stm32f10x_flash.c ****   *   This parameter can be one of the following values:
1401:../Library/STM32F10x_StdPeriph_Driver/src/stm32f10x_flash.c ****   *     @arg FLASH_FLAG_BSY: FLASH Busy flag           
1402:../Library/STM32F10x_StdPeriph_Driver/src/stm32f10x_flash.c ****   *     @arg FLASH_FLAG_PGERR: FLASH Program error flag       
1403:../Library/STM32F10x_StdPeriph_Driver/src/stm32f10x_flash.c ****   *     @arg FLASH_FLAG_WRPRTERR: FLASH Write protected error flag      
1404:../Library/STM32F10x_StdPeriph_Driver/src/stm32f10x_flash.c ****   *     @arg FLASH_FLAG_EOP: FLASH End of Operation flag           
1405:../Library/STM32F10x_StdPeriph_Driver/src/stm32f10x_flash.c ****   *     @arg FLASH_FLAG_OPTERR:  FLASH Option Byte error flag     
1406:../Library/STM32F10x_StdPeriph_Driver/src/stm32f10x_flash.c ****   * @retval The new state of FLASH_FLAG (SET or RESET).
1407:../Library/STM32F10x_StdPeriph_Driver/src/stm32f10x_flash.c ****   */
1408:../Library/STM32F10x_StdPeriph_Driver/src/stm32f10x_flash.c **** FlagStatus FLASH_GetFlagStatus(uint32_t FLASH_FLAG)
1409:../Library/STM32F10x_StdPeriph_Driver/src/stm32f10x_flash.c **** {
 18643              		.loc 1 1409 0
 18644              		.cfi_startproc
 18645              		@ args = 0, pretend = 0, frame = 0
 18646              		@ frame_needed = 0, uses_anonymous_args = 0
 18647              		@ link register save eliminated.
 18648              	.LVL10:
1410:../Library/STM32F10x_StdPeriph_Driver/src/stm32f10x_flash.c ****   FlagStatus bitstatus = RESET;
1411:../Library/STM32F10x_StdPeriph_Driver/src/stm32f10x_flash.c **** 
1412:../Library/STM32F10x_StdPeriph_Driver/src/stm32f10x_flash.c **** #ifdef STM32F10X_XL
1413:../Library/STM32F10x_StdPeriph_Driver/src/stm32f10x_flash.c ****   /* Check the parameters */
1414:../Library/STM32F10x_StdPeriph_Driver/src/stm32f10x_flash.c ****   assert_param(IS_FLASH_GET_FLAG(FLASH_FLAG)) ;
1415:../Library/STM32F10x_StdPeriph_Driver/src/stm32f10x_flash.c ****   if(FLASH_FLAG == FLASH_FLAG_OPTERR) 
1416:../Library/STM32F10x_StdPeriph_Driver/src/stm32f10x_flash.c ****   {
1417:../Library/STM32F10x_StdPeriph_Driver/src/stm32f10x_flash.c ****     if((FLASH->OBR & FLASH_FLAG_OPTERR) != (uint32_t)RESET)
1418:../Library/STM32F10x_StdPeriph_Driver/src/stm32f10x_flash.c ****     {
1419:../Library/STM32F10x_StdPeriph_Driver/src/stm32f10x_flash.c ****       bitstatus = SET;
1420:../Library/STM32F10x_StdPeriph_Driver/src/stm32f10x_flash.c ****     }
1421:../Library/STM32F10x_StdPeriph_Driver/src/stm32f10x_flash.c ****     else
1422:../Library/STM32F10x_StdPeriph_Driver/src/stm32f10x_flash.c ****     {
1423:../Library/STM32F10x_StdPeriph_Driver/src/stm32f10x_flash.c ****       bitstatus = RESET;
1424:../Library/STM32F10x_StdPeriph_Driver/src/stm32f10x_flash.c ****     }
1425:../Library/STM32F10x_StdPeriph_Driver/src/stm32f10x_flash.c ****   }
1426:../Library/STM32F10x_StdPeriph_Driver/src/stm32f10x_flash.c ****   else
1427:../Library/STM32F10x_StdPeriph_Driver/src/stm32f10x_flash.c ****   {
1428:../Library/STM32F10x_StdPeriph_Driver/src/stm32f10x_flash.c ****     if((FLASH_FLAG & 0x80000000) != 0x0)
1429:../Library/STM32F10x_StdPeriph_Driver/src/stm32f10x_flash.c ****     {
1430:../Library/STM32F10x_StdPeriph_Driver/src/stm32f10x_flash.c ****       if((FLASH->SR2 & FLASH_FLAG) != (uint32_t)RESET)
1431:../Library/STM32F10x_StdPeriph_Driver/src/stm32f10x_flash.c ****       {
1432:../Library/STM32F10x_StdPeriph_Driver/src/stm32f10x_flash.c ****         bitstatus = SET;
1433:../Library/STM32F10x_StdPeriph_Driver/src/stm32f10x_flash.c ****       }
1434:../Library/STM32F10x_StdPeriph_Driver/src/stm32f10x_flash.c ****       else
1435:../Library/STM32F10x_StdPeriph_Driver/src/stm32f10x_flash.c ****       {
1436:../Library/STM32F10x_StdPeriph_Driver/src/stm32f10x_flash.c ****         bitstatus = RESET;
1437:../Library/STM32F10x_StdPeriph_Driver/src/stm32f10x_flash.c ****       }
1438:../Library/STM32F10x_StdPeriph_Driver/src/stm32f10x_flash.c ****     }
1439:../Library/STM32F10x_StdPeriph_Driver/src/stm32f10x_flash.c ****     else
1440:../Library/STM32F10x_StdPeriph_Driver/src/stm32f10x_flash.c ****     {
1441:../Library/STM32F10x_StdPeriph_Driver/src/stm32f10x_flash.c ****       if((FLASH->SR & FLASH_FLAG) != (uint32_t)RESET)
1442:../Library/STM32F10x_StdPeriph_Driver/src/stm32f10x_flash.c ****       {
1443:../Library/STM32F10x_StdPeriph_Driver/src/stm32f10x_flash.c ****         bitstatus = SET;
1444:../Library/STM32F10x_StdPeriph_Driver/src/stm32f10x_flash.c ****       }
1445:../Library/STM32F10x_StdPeriph_Driver/src/stm32f10x_flash.c ****       else
1446:../Library/STM32F10x_StdPeriph_Driver/src/stm32f10x_flash.c ****       {
1447:../Library/STM32F10x_StdPeriph_Driver/src/stm32f10x_flash.c ****         bitstatus = RESET;
1448:../Library/STM32F10x_StdPeriph_Driver/src/stm32f10x_flash.c ****       }
1449:../Library/STM32F10x_StdPeriph_Driver/src/stm32f10x_flash.c ****     }
1450:../Library/STM32F10x_StdPeriph_Driver/src/stm32f10x_flash.c ****   }
1451:../Library/STM32F10x_StdPeriph_Driver/src/stm32f10x_flash.c **** #else
1452:../Library/STM32F10x_StdPeriph_Driver/src/stm32f10x_flash.c ****   /* Check the parameters */
1453:../Library/STM32F10x_StdPeriph_Driver/src/stm32f10x_flash.c ****   assert_param(IS_FLASH_GET_FLAG(FLASH_FLAG)) ;
1454:../Library/STM32F10x_StdPeriph_Driver/src/stm32f10x_flash.c ****   if(FLASH_FLAG == FLASH_FLAG_OPTERR) 
 18649              		.loc 1 1454 0
 18650 0000 0128     		cmp	r0, #1
1455:../Library/STM32F10x_StdPeriph_Driver/src/stm32f10x_flash.c ****   {
1456:../Library/STM32F10x_StdPeriph_Driver/src/stm32f10x_flash.c ****     if((FLASH->OBR & FLASH_FLAG_OPTERR) != (uint32_t)RESET)
 18651              		.loc 1 1456 0
 18652 0002 42F20003 		movw	r3, #:lower16:1073881088
 18653 0006 C4F20203 		movt	r3, #:upper16:1073881088
 18654              		.loc 1 1454 0
 18655 000a 03D1     		bne	.L28
 18656              		.loc 1 1456 0
 18657 000c D869     		ldr	r0, [r3, #28]
 18658              	.LVL11:
 18659 000e 00F00100 		and	r0, r0, #1
 18660              	.LVL12:
 18661 0012 7047     		bx	lr
 18662              	.LVL13:
 18663              	.L28:
1457:../Library/STM32F10x_StdPeriph_Driver/src/stm32f10x_flash.c ****     {
1458:../Library/STM32F10x_StdPeriph_Driver/src/stm32f10x_flash.c ****       bitstatus = SET;
1459:../Library/STM32F10x_StdPeriph_Driver/src/stm32f10x_flash.c ****     }
1460:../Library/STM32F10x_StdPeriph_Driver/src/stm32f10x_flash.c ****     else
1461:../Library/STM32F10x_StdPeriph_Driver/src/stm32f10x_flash.c ****     {
1462:../Library/STM32F10x_StdPeriph_Driver/src/stm32f10x_flash.c ****       bitstatus = RESET;
1463:../Library/STM32F10x_StdPeriph_Driver/src/stm32f10x_flash.c ****     }
1464:../Library/STM32F10x_StdPeriph_Driver/src/stm32f10x_flash.c ****   }
1465:../Library/STM32F10x_StdPeriph_Driver/src/stm32f10x_flash.c ****   else
1466:../Library/STM32F10x_StdPeriph_Driver/src/stm32f10x_flash.c ****   {
1467:../Library/STM32F10x_StdPeriph_Driver/src/stm32f10x_flash.c ****    if((FLASH->SR & FLASH_FLAG) != (uint32_t)RESET)
 18664              		.loc 1 1467 0
 18665 0014 DB68     		ldr	r3, [r3, #12]
 18666 0016 1842     		tst	r0, r3
 18667 0018 0CBF     		ite	eq
 18668 001a 0020     		moveq	r0, #0
 18669 001c 0120     		movne	r0, #1
 18670              	.LVL14:
 18671              	.LVL15:
1468:../Library/STM32F10x_StdPeriph_Driver/src/stm32f10x_flash.c ****     {
1469:../Library/STM32F10x_StdPeriph_Driver/src/stm32f10x_flash.c ****       bitstatus = SET;
1470:../Library/STM32F10x_StdPeriph_Driver/src/stm32f10x_flash.c ****     }
1471:../Library/STM32F10x_StdPeriph_Driver/src/stm32f10x_flash.c ****     else
1472:../Library/STM32F10x_StdPeriph_Driver/src/stm32f10x_flash.c ****     {
1473:../Library/STM32F10x_StdPeriph_Driver/src/stm32f10x_flash.c ****       bitstatus = RESET;
1474:../Library/STM32F10x_StdPeriph_Driver/src/stm32f10x_flash.c ****     }
1475:../Library/STM32F10x_StdPeriph_Driver/src/stm32f10x_flash.c ****   }
1476:../Library/STM32F10x_StdPeriph_Driver/src/stm32f10x_flash.c **** #endif /* STM32F10X_XL */
1477:../Library/STM32F10x_StdPeriph_Driver/src/stm32f10x_flash.c **** 
1478:../Library/STM32F10x_StdPeriph_Driver/src/stm32f10x_flash.c ****   /* Return the new state of FLASH_FLAG (SET or RESET) */
1479:../Library/STM32F10x_StdPeriph_Driver/src/stm32f10x_flash.c ****   return bitstatus;
1480:../Library/STM32F10x_StdPeriph_Driver/src/stm32f10x_flash.c **** }
 18672              		.loc 1 1480 0
 18673 001e 7047     		bx	lr
 18674              		.cfi_endproc
 18675              	.LFE51:
 18677              		.section	.text.FLASH_ClearFlag,"ax",%progbits
 18678              		.align	2
 18679              		.global	FLASH_ClearFlag
 18680              		.thumb
 18681              		.thumb_func
 18683              	FLASH_ClearFlag:
 18684              	.LFB52:
1481:../Library/STM32F10x_StdPeriph_Driver/src/stm32f10x_flash.c **** 
1482:../Library/STM32F10x_StdPeriph_Driver/src/stm32f10x_flash.c **** /**
1483:../Library/STM32F10x_StdPeriph_Driver/src/stm32f10x_flash.c ****   * @brief  Clears the FLASHs pending flags.
1484:../Library/STM32F10x_StdPeriph_Driver/src/stm32f10x_flash.c ****   * @note   This function can be used for all STM32F10x devices.
1485:../Library/STM32F10x_StdPeriph_Driver/src/stm32f10x_flash.c ****   *         - For STM32F10X_XL devices, this function clears Bank1 or Bank2s pending flags
1486:../Library/STM32F10x_StdPeriph_Driver/src/stm32f10x_flash.c ****   *         - For other devices, it clears Bank1s pending flags.
1487:../Library/STM32F10x_StdPeriph_Driver/src/stm32f10x_flash.c ****   * @param  FLASH_FLAG: specifies the FLASH flags to clear.
1488:../Library/STM32F10x_StdPeriph_Driver/src/stm32f10x_flash.c ****   *   This parameter can be any combination of the following values:         
1489:../Library/STM32F10x_StdPeriph_Driver/src/stm32f10x_flash.c ****   *     @arg FLASH_FLAG_PGERR: FLASH Program error flag       
1490:../Library/STM32F10x_StdPeriph_Driver/src/stm32f10x_flash.c ****   *     @arg FLASH_FLAG_WRPRTERR: FLASH Write protected error flag      
1491:../Library/STM32F10x_StdPeriph_Driver/src/stm32f10x_flash.c ****   *     @arg FLASH_FLAG_EOP: FLASH End of Operation flag           
1492:../Library/STM32F10x_StdPeriph_Driver/src/stm32f10x_flash.c ****   * @retval None
1493:../Library/STM32F10x_StdPeriph_Driver/src/stm32f10x_flash.c ****   */
1494:../Library/STM32F10x_StdPeriph_Driver/src/stm32f10x_flash.c **** void FLASH_ClearFlag(uint32_t FLASH_FLAG)
1495:../Library/STM32F10x_StdPeriph_Driver/src/stm32f10x_flash.c **** {
 18685              		.loc 1 1495 0
 18686              		.cfi_startproc
 18687              		@ args = 0, pretend = 0, frame = 0
 18688              		@ frame_needed = 0, uses_anonymous_args = 0
 18689              		@ link register save eliminated.
 18690              	.LVL16:
1496:../Library/STM32F10x_StdPeriph_Driver/src/stm32f10x_flash.c **** #ifdef STM32F10X_XL
1497:../Library/STM32F10x_StdPeriph_Driver/src/stm32f10x_flash.c ****   /* Check the parameters */
1498:../Library/STM32F10x_StdPeriph_Driver/src/stm32f10x_flash.c ****   assert_param(IS_FLASH_CLEAR_FLAG(FLASH_FLAG)) ;
1499:../Library/STM32F10x_StdPeriph_Driver/src/stm32f10x_flash.c **** 
1500:../Library/STM32F10x_StdPeriph_Driver/src/stm32f10x_flash.c ****   if((FLASH_FLAG & 0x80000000) != 0x0)
1501:../Library/STM32F10x_StdPeriph_Driver/src/stm32f10x_flash.c ****   {
1502:../Library/STM32F10x_StdPeriph_Driver/src/stm32f10x_flash.c ****     /* Clear the flags */
1503:../Library/STM32F10x_StdPeriph_Driver/src/stm32f10x_flash.c ****     FLASH->SR2 = FLASH_FLAG;
1504:../Library/STM32F10x_StdPeriph_Driver/src/stm32f10x_flash.c ****   }
1505:../Library/STM32F10x_StdPeriph_Driver/src/stm32f10x_flash.c ****   else
1506:../Library/STM32F10x_StdPeriph_Driver/src/stm32f10x_flash.c ****   {
1507:../Library/STM32F10x_StdPeriph_Driver/src/stm32f10x_flash.c ****     /* Clear the flags */
1508:../Library/STM32F10x_StdPeriph_Driver/src/stm32f10x_flash.c ****     FLASH->SR = FLASH_FLAG;
1509:../Library/STM32F10x_StdPeriph_Driver/src/stm32f10x_flash.c ****   }  
1510:../Library/STM32F10x_StdPeriph_Driver/src/stm32f10x_flash.c **** 
1511:../Library/STM32F10x_StdPeriph_Driver/src/stm32f10x_flash.c **** #else
1512:../Library/STM32F10x_StdPeriph_Driver/src/stm32f10x_flash.c ****   /* Check the parameters */
1513:../Library/STM32F10x_StdPeriph_Driver/src/stm32f10x_flash.c ****   assert_param(IS_FLASH_CLEAR_FLAG(FLASH_FLAG)) ;
1514:../Library/STM32F10x_StdPeriph_Driver/src/stm32f10x_flash.c ****   
1515:../Library/STM32F10x_StdPeriph_Driver/src/stm32f10x_flash.c ****   /* Clear the flags */
1516:../Library/STM32F10x_StdPeriph_Driver/src/stm32f10x_flash.c ****   FLASH->SR = FLASH_FLAG;
 18691              		.loc 1 1516 0
 18692 0000 42F20003 		movw	r3, #:lower16:1073881088
 18693 0004 C4F20203 		movt	r3, #:upper16:1073881088
 18694 0008 D860     		str	r0, [r3, #12]
1517:../Library/STM32F10x_StdPeriph_Driver/src/stm32f10x_flash.c **** #endif /* STM32F10X_XL */
1518:../Library/STM32F10x_StdPeriph_Driver/src/stm32f10x_flash.c **** }
 18695              		.loc 1 1518 0
 18696 000a 7047     		bx	lr
 18697              		.cfi_endproc
 18698              	.LFE52:
 18700              		.section	.text.FLASH_GetStatus,"ax",%progbits
 18701              		.align	2
 18702              		.global	FLASH_GetStatus
 18703              		.thumb
 18704              		.thumb_func
 18706              	FLASH_GetStatus:
 18707              	.LFB53:
1519:../Library/STM32F10x_StdPeriph_Driver/src/stm32f10x_flash.c **** 
1520:../Library/STM32F10x_StdPeriph_Driver/src/stm32f10x_flash.c **** /**
1521:../Library/STM32F10x_StdPeriph_Driver/src/stm32f10x_flash.c ****   * @brief  Returns the FLASH Status.
1522:../Library/STM32F10x_StdPeriph_Driver/src/stm32f10x_flash.c ****   * @note   This function can be used for all STM32F10x devices, it is equivalent
1523:../Library/STM32F10x_StdPeriph_Driver/src/stm32f10x_flash.c ****   *    to FLASH_GetBank1Status function.
1524:../Library/STM32F10x_StdPeriph_Driver/src/stm32f10x_flash.c ****   * @param  None
1525:../Library/STM32F10x_StdPeriph_Driver/src/stm32f10x_flash.c ****   * @retval FLASH Status: The returned value can be: FLASH_BUSY, FLASH_ERROR_PG,
1526:../Library/STM32F10x_StdPeriph_Driver/src/stm32f10x_flash.c ****   *   FLASH_ERROR_WRP or FLASH_COMPLETE
1527:../Library/STM32F10x_StdPeriph_Driver/src/stm32f10x_flash.c ****   */
1528:../Library/STM32F10x_StdPeriph_Driver/src/stm32f10x_flash.c **** FLASH_Status FLASH_GetStatus(void)
1529:../Library/STM32F10x_StdPeriph_Driver/src/stm32f10x_flash.c **** {
 18708              		.loc 1 1529 0
 18709              		.cfi_startproc
 18710              		@ args = 0, pretend = 0, frame = 0
 18711              		@ frame_needed = 0, uses_anonymous_args = 0
 18712              		@ link register save eliminated.
1530:../Library/STM32F10x_StdPeriph_Driver/src/stm32f10x_flash.c ****   FLASH_Status flashstatus = FLASH_COMPLETE;
1531:../Library/STM32F10x_StdPeriph_Driver/src/stm32f10x_flash.c ****   
1532:../Library/STM32F10x_StdPeriph_Driver/src/stm32f10x_flash.c ****   if((FLASH->SR & FLASH_FLAG_BSY) == FLASH_FLAG_BSY) 
 18713              		.loc 1 1532 0
 18714 0000 42F20003 		movw	r3, #:lower16:1073881088
 18715 0004 C4F20203 		movt	r3, #:upper16:1073881088
 18716 0008 DB68     		ldr	r3, [r3, #12]
 18717 000a 13F0010F 		tst	r3, #1
 18718 000e 02D0     		beq	.L34
 18719 0010 4FF00100 		mov	r0, #1
 18720              	.LVL17:
 18721 0014 7047     		bx	lr
 18722              	.LVL18:
 18723              	.L34:
1533:../Library/STM32F10x_StdPeriph_Driver/src/stm32f10x_flash.c ****   {
1534:../Library/STM32F10x_StdPeriph_Driver/src/stm32f10x_flash.c ****     flashstatus = FLASH_BUSY;
1535:../Library/STM32F10x_StdPeriph_Driver/src/stm32f10x_flash.c ****   }
1536:../Library/STM32F10x_StdPeriph_Driver/src/stm32f10x_flash.c ****   else 
1537:../Library/STM32F10x_StdPeriph_Driver/src/stm32f10x_flash.c ****   {  
1538:../Library/STM32F10x_StdPeriph_Driver/src/stm32f10x_flash.c ****     if((FLASH->SR & FLASH_FLAG_PGERR) != 0)
 18724              		.loc 1 1538 0
 18725 0016 42F20003 		movw	r3, #:lower16:1073881088
 18726 001a C4F20203 		movt	r3, #:upper16:1073881088
 18727 001e DB68     		ldr	r3, [r3, #12]
 18728 0020 13F0040F 		tst	r3, #4
 18729 0024 02D0     		beq	.L36
 18730 0026 4FF00200 		mov	r0, #2
 18731              	.LVL19:
 18732 002a 7047     		bx	lr
 18733              	.LVL20:
 18734              	.L36:
1539:../Library/STM32F10x_StdPeriph_Driver/src/stm32f10x_flash.c ****     { 
1540:../Library/STM32F10x_StdPeriph_Driver/src/stm32f10x_flash.c ****       flashstatus = FLASH_ERROR_PG;
1541:../Library/STM32F10x_StdPeriph_Driver/src/stm32f10x_flash.c ****     }
1542:../Library/STM32F10x_StdPeriph_Driver/src/stm32f10x_flash.c ****     else 
1543:../Library/STM32F10x_StdPeriph_Driver/src/stm32f10x_flash.c ****     {
1544:../Library/STM32F10x_StdPeriph_Driver/src/stm32f10x_flash.c ****       if((FLASH->SR & FLASH_FLAG_WRPRTERR) != 0 )
 18735              		.loc 1 1544 0
 18736 002c 42F20003 		movw	r3, #:lower16:1073881088
 18737 0030 C4F20203 		movt	r3, #:upper16:1073881088
 18738 0034 DB68     		ldr	r3, [r3, #12]
 18739 0036 13F0100F 		tst	r3, #16
 18740 003a 14BF     		ite	ne
 18741 003c 0320     		movne	r0, #3
 18742 003e 0420     		moveq	r0, #4
 18743              	.LVL21:
 18744              	.LVL22:
1545:../Library/STM32F10x_StdPeriph_Driver/src/stm32f10x_flash.c ****       {
1546:../Library/STM32F10x_StdPeriph_Driver/src/stm32f10x_flash.c ****         flashstatus = FLASH_ERROR_WRP;
1547:../Library/STM32F10x_StdPeriph_Driver/src/stm32f10x_flash.c ****       }
1548:../Library/STM32F10x_StdPeriph_Driver/src/stm32f10x_flash.c ****       else
1549:../Library/STM32F10x_StdPeriph_Driver/src/stm32f10x_flash.c ****       {
1550:../Library/STM32F10x_StdPeriph_Driver/src/stm32f10x_flash.c ****         flashstatus = FLASH_COMPLETE;
1551:../Library/STM32F10x_StdPeriph_Driver/src/stm32f10x_flash.c ****       }
1552:../Library/STM32F10x_StdPeriph_Driver/src/stm32f10x_flash.c ****     }
1553:../Library/STM32F10x_StdPeriph_Driver/src/stm32f10x_flash.c ****   }
1554:../Library/STM32F10x_StdPeriph_Driver/src/stm32f10x_flash.c ****   /* Return the Flash Status */
1555:../Library/STM32F10x_StdPeriph_Driver/src/stm32f10x_flash.c ****   return flashstatus;
1556:../Library/STM32F10x_StdPeriph_Driver/src/stm32f10x_flash.c **** }
 18745              		.loc 1 1556 0
 18746 0040 7047     		bx	lr
 18747              		.cfi_endproc
 18748              	.LFE53:
 18750 0042 00BF     		.section	.text.FLASH_GetBank1Status,"ax",%progbits
 18751              		.align	2
 18752              		.global	FLASH_GetBank1Status
 18753              		.thumb
 18754              		.thumb_func
 18756              	FLASH_GetBank1Status:
 18757              	.LFB54:
1557:../Library/STM32F10x_StdPeriph_Driver/src/stm32f10x_flash.c **** 
1558:../Library/STM32F10x_StdPeriph_Driver/src/stm32f10x_flash.c **** /**
1559:../Library/STM32F10x_StdPeriph_Driver/src/stm32f10x_flash.c ****   * @brief  Returns the FLASH Bank1 Status.
1560:../Library/STM32F10x_StdPeriph_Driver/src/stm32f10x_flash.c ****   * @note   This function can be used for all STM32F10x devices, it is equivalent
1561:../Library/STM32F10x_StdPeriph_Driver/src/stm32f10x_flash.c ****   *   to FLASH_GetStatus function.
1562:../Library/STM32F10x_StdPeriph_Driver/src/stm32f10x_flash.c ****   * @param  None
1563:../Library/STM32F10x_StdPeriph_Driver/src/stm32f10x_flash.c ****   * @retval FLASH Status: The returned value can be: FLASH_BUSY, FLASH_ERROR_PG,
1564:../Library/STM32F10x_StdPeriph_Driver/src/stm32f10x_flash.c ****   *   FLASH_ERROR_WRP or FLASH_COMPLETE
1565:../Library/STM32F10x_StdPeriph_Driver/src/stm32f10x_flash.c ****   */
1566:../Library/STM32F10x_StdPeriph_Driver/src/stm32f10x_flash.c **** FLASH_Status FLASH_GetBank1Status(void)
1567:../Library/STM32F10x_StdPeriph_Driver/src/stm32f10x_flash.c **** {
 18758              		.loc 1 1567 0
 18759              		.cfi_startproc
 18760              		@ args = 0, pretend = 0, frame = 0
 18761              		@ frame_needed = 0, uses_anonymous_args = 0
 18762              		@ link register save eliminated.
1568:../Library/STM32F10x_StdPeriph_Driver/src/stm32f10x_flash.c ****   FLASH_Status flashstatus = FLASH_COMPLETE;
1569:../Library/STM32F10x_StdPeriph_Driver/src/stm32f10x_flash.c ****   
1570:../Library/STM32F10x_StdPeriph_Driver/src/stm32f10x_flash.c ****   if((FLASH->SR & FLASH_FLAG_BANK1_BSY) == FLASH_FLAG_BSY) 
 18763              		.loc 1 1570 0
 18764 0000 42F20003 		movw	r3, #:lower16:1073881088
 18765 0004 C4F20203 		movt	r3, #:upper16:1073881088
 18766 0008 DB68     		ldr	r3, [r3, #12]
 18767 000a 13F0010F 		tst	r3, #1
 18768 000e 02D0     		beq	.L40
 18769 0010 4FF00100 		mov	r0, #1
 18770              	.LVL23:
 18771 0014 7047     		bx	lr
 18772              	.LVL24:
 18773              	.L40:
1571:../Library/STM32F10x_StdPeriph_Driver/src/stm32f10x_flash.c ****   {
1572:../Library/STM32F10x_StdPeriph_Driver/src/stm32f10x_flash.c ****     flashstatus = FLASH_BUSY;
1573:../Library/STM32F10x_StdPeriph_Driver/src/stm32f10x_flash.c ****   }
1574:../Library/STM32F10x_StdPeriph_Driver/src/stm32f10x_flash.c ****   else 
1575:../Library/STM32F10x_StdPeriph_Driver/src/stm32f10x_flash.c ****   {  
1576:../Library/STM32F10x_StdPeriph_Driver/src/stm32f10x_flash.c ****     if((FLASH->SR & FLASH_FLAG_BANK1_PGERR) != 0)
 18774              		.loc 1 1576 0
 18775 0016 42F20003 		movw	r3, #:lower16:1073881088
 18776 001a C4F20203 		movt	r3, #:upper16:1073881088
 18777 001e DB68     		ldr	r3, [r3, #12]
 18778 0020 13F0040F 		tst	r3, #4
 18779 0024 02D0     		beq	.L42
 18780 0026 4FF00200 		mov	r0, #2
 18781              	.LVL25:
 18782 002a 7047     		bx	lr
 18783              	.LVL26:
 18784              	.L42:
1577:../Library/STM32F10x_StdPeriph_Driver/src/stm32f10x_flash.c ****     { 
1578:../Library/STM32F10x_StdPeriph_Driver/src/stm32f10x_flash.c ****       flashstatus = FLASH_ERROR_PG;
1579:../Library/STM32F10x_StdPeriph_Driver/src/stm32f10x_flash.c ****     }
1580:../Library/STM32F10x_StdPeriph_Driver/src/stm32f10x_flash.c ****     else 
1581:../Library/STM32F10x_StdPeriph_Driver/src/stm32f10x_flash.c ****     {
1582:../Library/STM32F10x_StdPeriph_Driver/src/stm32f10x_flash.c ****       if((FLASH->SR & FLASH_FLAG_BANK1_WRPRTERR) != 0 )
 18785              		.loc 1 1582 0
 18786 002c 42F20003 		movw	r3, #:lower16:1073881088
 18787 0030 C4F20203 		movt	r3, #:upper16:1073881088
 18788 0034 DB68     		ldr	r3, [r3, #12]
 18789 0036 13F0100F 		tst	r3, #16
 18790 003a 14BF     		ite	ne
 18791 003c 0320     		movne	r0, #3
 18792 003e 0420     		moveq	r0, #4
 18793              	.LVL27:
 18794              	.LVL28:
1583:../Library/STM32F10x_StdPeriph_Driver/src/stm32f10x_flash.c ****       {
1584:../Library/STM32F10x_StdPeriph_Driver/src/stm32f10x_flash.c ****         flashstatus = FLASH_ERROR_WRP;
1585:../Library/STM32F10x_StdPeriph_Driver/src/stm32f10x_flash.c ****       }
1586:../Library/STM32F10x_StdPeriph_Driver/src/stm32f10x_flash.c ****       else
1587:../Library/STM32F10x_StdPeriph_Driver/src/stm32f10x_flash.c ****       {
1588:../Library/STM32F10x_StdPeriph_Driver/src/stm32f10x_flash.c ****         flashstatus = FLASH_COMPLETE;
1589:../Library/STM32F10x_StdPeriph_Driver/src/stm32f10x_flash.c ****       }
1590:../Library/STM32F10x_StdPeriph_Driver/src/stm32f10x_flash.c ****     }
1591:../Library/STM32F10x_StdPeriph_Driver/src/stm32f10x_flash.c ****   }
1592:../Library/STM32F10x_StdPeriph_Driver/src/stm32f10x_flash.c ****   /* Return the Flash Status */
1593:../Library/STM32F10x_StdPeriph_Driver/src/stm32f10x_flash.c ****   return flashstatus;
1594:../Library/STM32F10x_StdPeriph_Driver/src/stm32f10x_flash.c **** }
 18795              		.loc 1 1594 0
 18796 0040 7047     		bx	lr
 18797              		.cfi_endproc
 18798              	.LFE54:
 18800 0042 00BF     		.section	.text.FLASH_WaitForLastOperation,"ax",%progbits
 18801              		.align	2
 18802              		.global	FLASH_WaitForLastOperation
 18803              		.thumb
 18804              		.thumb_func
 18806              	FLASH_WaitForLastOperation:
 18807              	.LFB55:
1595:../Library/STM32F10x_StdPeriph_Driver/src/stm32f10x_flash.c **** 
1596:../Library/STM32F10x_StdPeriph_Driver/src/stm32f10x_flash.c **** #ifdef STM32F10X_XL
1597:../Library/STM32F10x_StdPeriph_Driver/src/stm32f10x_flash.c **** /**
1598:../Library/STM32F10x_StdPeriph_Driver/src/stm32f10x_flash.c ****   * @brief  Returns the FLASH Bank2 Status.
1599:../Library/STM32F10x_StdPeriph_Driver/src/stm32f10x_flash.c ****   * @note   This function can be used for STM32F10x_XL density devices.
1600:../Library/STM32F10x_StdPeriph_Driver/src/stm32f10x_flash.c ****   * @param  None
1601:../Library/STM32F10x_StdPeriph_Driver/src/stm32f10x_flash.c ****   * @retval FLASH Status: The returned value can be: FLASH_BUSY, FLASH_ERROR_PG,
1602:../Library/STM32F10x_StdPeriph_Driver/src/stm32f10x_flash.c ****   *   FLASH_ERROR_WRP or FLASH_COMPLETE
1603:../Library/STM32F10x_StdPeriph_Driver/src/stm32f10x_flash.c ****   */
1604:../Library/STM32F10x_StdPeriph_Driver/src/stm32f10x_flash.c **** FLASH_Status FLASH_GetBank2Status(void)
1605:../Library/STM32F10x_StdPeriph_Driver/src/stm32f10x_flash.c **** {
1606:../Library/STM32F10x_StdPeriph_Driver/src/stm32f10x_flash.c ****   FLASH_Status flashstatus = FLASH_COMPLETE;
1607:../Library/STM32F10x_StdPeriph_Driver/src/stm32f10x_flash.c ****   
1608:../Library/STM32F10x_StdPeriph_Driver/src/stm32f10x_flash.c ****   if((FLASH->SR2 & (FLASH_FLAG_BANK2_BSY & 0x7FFFFFFF)) == (FLASH_FLAG_BANK2_BSY & 0x7FFFFFFF)) 
1609:../Library/STM32F10x_StdPeriph_Driver/src/stm32f10x_flash.c ****   {
1610:../Library/STM32F10x_StdPeriph_Driver/src/stm32f10x_flash.c ****     flashstatus = FLASH_BUSY;
1611:../Library/STM32F10x_StdPeriph_Driver/src/stm32f10x_flash.c ****   }
1612:../Library/STM32F10x_StdPeriph_Driver/src/stm32f10x_flash.c ****   else 
1613:../Library/STM32F10x_StdPeriph_Driver/src/stm32f10x_flash.c ****   {  
1614:../Library/STM32F10x_StdPeriph_Driver/src/stm32f10x_flash.c ****     if((FLASH->SR2 & (FLASH_FLAG_BANK2_PGERR & 0x7FFFFFFF)) != 0)
1615:../Library/STM32F10x_StdPeriph_Driver/src/stm32f10x_flash.c ****     { 
1616:../Library/STM32F10x_StdPeriph_Driver/src/stm32f10x_flash.c ****       flashstatus = FLASH_ERROR_PG;
1617:../Library/STM32F10x_StdPeriph_Driver/src/stm32f10x_flash.c ****     }
1618:../Library/STM32F10x_StdPeriph_Driver/src/stm32f10x_flash.c ****     else 
1619:../Library/STM32F10x_StdPeriph_Driver/src/stm32f10x_flash.c ****     {
1620:../Library/STM32F10x_StdPeriph_Driver/src/stm32f10x_flash.c ****       if((FLASH->SR2 & (FLASH_FLAG_BANK2_WRPRTERR & 0x7FFFFFFF)) != 0 )
1621:../Library/STM32F10x_StdPeriph_Driver/src/stm32f10x_flash.c ****       {
1622:../Library/STM32F10x_StdPeriph_Driver/src/stm32f10x_flash.c ****         flashstatus = FLASH_ERROR_WRP;
1623:../Library/STM32F10x_StdPeriph_Driver/src/stm32f10x_flash.c ****       }
1624:../Library/STM32F10x_StdPeriph_Driver/src/stm32f10x_flash.c ****       else
1625:../Library/STM32F10x_StdPeriph_Driver/src/stm32f10x_flash.c ****       {
1626:../Library/STM32F10x_StdPeriph_Driver/src/stm32f10x_flash.c ****         flashstatus = FLASH_COMPLETE;
1627:../Library/STM32F10x_StdPeriph_Driver/src/stm32f10x_flash.c ****       }
1628:../Library/STM32F10x_StdPeriph_Driver/src/stm32f10x_flash.c ****     }
1629:../Library/STM32F10x_StdPeriph_Driver/src/stm32f10x_flash.c ****   }
1630:../Library/STM32F10x_StdPeriph_Driver/src/stm32f10x_flash.c ****   /* Return the Flash Status */
1631:../Library/STM32F10x_StdPeriph_Driver/src/stm32f10x_flash.c ****   return flashstatus;
1632:../Library/STM32F10x_StdPeriph_Driver/src/stm32f10x_flash.c **** }
1633:../Library/STM32F10x_StdPeriph_Driver/src/stm32f10x_flash.c **** #endif /* STM32F10X_XL */
1634:../Library/STM32F10x_StdPeriph_Driver/src/stm32f10x_flash.c **** /**
1635:../Library/STM32F10x_StdPeriph_Driver/src/stm32f10x_flash.c ****   * @brief  Waits for a Flash operation to complete or a TIMEOUT to occur.
1636:../Library/STM32F10x_StdPeriph_Driver/src/stm32f10x_flash.c ****   * @note   This function can be used for all STM32F10x devices, 
1637:../Library/STM32F10x_StdPeriph_Driver/src/stm32f10x_flash.c ****   *         it is equivalent to FLASH_WaitForLastBank1Operation.
1638:../Library/STM32F10x_StdPeriph_Driver/src/stm32f10x_flash.c ****   *         - For STM32F10X_XL devices this function waits for a Bank1 Flash operation
1639:../Library/STM32F10x_StdPeriph_Driver/src/stm32f10x_flash.c ****   *           to complete or a TIMEOUT to occur.
1640:../Library/STM32F10x_StdPeriph_Driver/src/stm32f10x_flash.c ****   *         - For all other devices it waits for a Flash operation to complete 
1641:../Library/STM32F10x_StdPeriph_Driver/src/stm32f10x_flash.c ****   *           or a TIMEOUT to occur.
1642:../Library/STM32F10x_StdPeriph_Driver/src/stm32f10x_flash.c ****   * @param  Timeout: FLASH progamming Timeout
1643:../Library/STM32F10x_StdPeriph_Driver/src/stm32f10x_flash.c ****   * @retval FLASH Status: The returned value can be: FLASH_ERROR_PG,
1644:../Library/STM32F10x_StdPeriph_Driver/src/stm32f10x_flash.c ****   *   FLASH_ERROR_WRP, FLASH_COMPLETE or FLASH_TIMEOUT.
1645:../Library/STM32F10x_StdPeriph_Driver/src/stm32f10x_flash.c ****   */
1646:../Library/STM32F10x_StdPeriph_Driver/src/stm32f10x_flash.c **** FLASH_Status FLASH_WaitForLastOperation(uint32_t Timeout)
1647:../Library/STM32F10x_StdPeriph_Driver/src/stm32f10x_flash.c **** { 
 18808              		.loc 1 1647 0
 18809              		.cfi_startproc
 18810              		@ args = 0, pretend = 0, frame = 0
 18811              		@ frame_needed = 0, uses_anonymous_args = 0
 18812              	.LVL29:
 18813 0000 10B5     		push	{r4, lr}
 18814              	.LCFI0:
 18815              		.cfi_def_cfa_offset 8
 18816 0002 0446     		mov	r4, r0
 18817              		.cfi_offset 14, -4
 18818              		.cfi_offset 4, -8
1648:../Library/STM32F10x_StdPeriph_Driver/src/stm32f10x_flash.c ****   FLASH_Status status = FLASH_COMPLETE;
1649:../Library/STM32F10x_StdPeriph_Driver/src/stm32f10x_flash.c ****    
1650:../Library/STM32F10x_StdPeriph_Driver/src/stm32f10x_flash.c ****   /* Check for the Flash Status */
1651:../Library/STM32F10x_StdPeriph_Driver/src/stm32f10x_flash.c ****   status = FLASH_GetBank1Status();
 18819              		.loc 1 1651 0
 18820 0004 FFF7FEFF 		bl	FLASH_GetBank1Status
 18821              	.LVL30:
1652:../Library/STM32F10x_StdPeriph_Driver/src/stm32f10x_flash.c ****   /* Wait for a Flash operation to complete or a TIMEOUT to occur */
1653:../Library/STM32F10x_StdPeriph_Driver/src/stm32f10x_flash.c ****   while((status == FLASH_BUSY) && (Timeout != 0x00))
 18822              		.loc 1 1653 0
 18823 0008 231E     		subs	r3, r4, #0
 18824 000a 18BF     		it	ne
 18825 000c 0123     		movne	r3, #1
 18826 000e 0128     		cmp	r0, #1
 18827 0010 14BF     		ite	ne
 18828 0012 0023     		movne	r3, #0
 18829 0014 03F00103 		andeq	r3, r3, #1
 18830              	.LVL31:
 18831 0018 63B1     		cbz	r3, .L46
 18832              	.L50:
1654:../Library/STM32F10x_StdPeriph_Driver/src/stm32f10x_flash.c ****   {
1655:../Library/STM32F10x_StdPeriph_Driver/src/stm32f10x_flash.c ****     status = FLASH_GetBank1Status();
 18833              		.loc 1 1655 0
 18834 001a FFF7FEFF 		bl	FLASH_GetBank1Status
 18835              	.LVL32:
 18836              		.loc 1 1653 0
 18837 001e 013C     		subs	r4, r4, #1
 18838 0020 0CBF     		ite	eq
 18839 0022 0023     		moveq	r3, #0
 18840 0024 0123     		movne	r3, #1
 18841 0026 0128     		cmp	r0, #1
 18842 0028 14BF     		ite	ne
 18843 002a 0023     		movne	r3, #0
 18844 002c 03F00103 		andeq	r3, r3, #1
 18845              	.LVL33:
 18846 0030 002B     		cmp	r3, #0
 18847 0032 F2D1     		bne	.L50
 18848              	.L46:
1656:../Library/STM32F10x_StdPeriph_Driver/src/stm32f10x_flash.c ****     Timeout--;
1657:../Library/STM32F10x_StdPeriph_Driver/src/stm32f10x_flash.c ****   }
1658:../Library/STM32F10x_StdPeriph_Driver/src/stm32f10x_flash.c ****   if(Timeout == 0x00 )
1659:../Library/STM32F10x_StdPeriph_Driver/src/stm32f10x_flash.c ****   {
1660:../Library/STM32F10x_StdPeriph_Driver/src/stm32f10x_flash.c ****     status = FLASH_TIMEOUT;
1661:../Library/STM32F10x_StdPeriph_Driver/src/stm32f10x_flash.c ****   }
1662:../Library/STM32F10x_StdPeriph_Driver/src/stm32f10x_flash.c ****   /* Return the operation status */
1663:../Library/STM32F10x_StdPeriph_Driver/src/stm32f10x_flash.c ****   return status;
1664:../Library/STM32F10x_StdPeriph_Driver/src/stm32f10x_flash.c **** }
 18849              		.loc 1 1664 0
 18850 0034 002C     		cmp	r4, #0
 18851 0036 08BF     		it	eq
 18852 0038 0520     		moveq	r0, #5
 18853              	.LVL34:
 18854 003a 10BD     		pop	{r4, pc}
 18855              		.cfi_endproc
 18856              	.LFE55:
 18858              		.section	.text.FLASH_UserOptionByteConfig,"ax",%progbits
 18859              		.align	2
 18860              		.global	FLASH_UserOptionByteConfig
 18861              		.thumb
 18862              		.thumb_func
 18864              	FLASH_UserOptionByteConfig:
 18865              	.LFB45:
 18866              		.loc 1 1170 0
 18867              		.cfi_startproc
 18868              		@ args = 0, pretend = 0, frame = 0
 18869              		@ frame_needed = 0, uses_anonymous_args = 0
 18870              	.LVL35:
 18871 0000 70B5     		push	{r4, r5, r6, lr}
 18872              	.LCFI1:
 18873              		.cfi_def_cfa_offset 16
 18874 0002 0546     		mov	r5, r0
 18875              		.cfi_offset 14, -4
 18876              		.cfi_offset 6, -8
 18877              		.cfi_offset 5, -12
 18878              		.cfi_offset 4, -16
 18879 0004 0C46     		mov	r4, r1
 18880 0006 1646     		mov	r6, r2
 18881              		.loc 1 1179 0
 18882 0008 42F20003 		movw	r3, #:lower16:1073881088
 18883 000c C4F20203 		movt	r3, #:upper16:1073881088
 18884 0010 40F22312 		movw	r2, #:lower16:1164378403
 18885              	.LVL36:
 18886 0014 C4F26752 		movt	r2, #:upper16:1164378403
 18887 0018 9A60     		str	r2, [r3, #8]
 18888              		.loc 1 1180 0
 18889 001a 48F6AB12 		movw	r2, #:lower16:-839939669
 18890 001e CCF6EF52 		movt	r2, #:upper16:-839939669
 18891 0022 9A60     		str	r2, [r3, #8]
 18892              		.loc 1 1183 0
 18893 0024 4FF40050 		mov	r0, #8192
 18894              	.LVL37:
 18895 0028 FFF7FEFF 		bl	FLASH_WaitForLastOperation
 18896              	.LVL38:
 18897              		.loc 1 1185 0
 18898 002c 0428     		cmp	r0, #4
 18899              	.LVL39:
 18900 002e 25D1     		bne	.L53
 18901              		.loc 1 1188 0
 18902 0030 42F20003 		movw	r3, #:lower16:1073881088
 18903 0034 C4F20203 		movt	r3, #:upper16:1073881088
 18904 0038 1A69     		ldr	r2, [r3, #16]
 18905 003a 42F01002 		orr	r2, r2, #16
 18906 003e 1A61     		str	r2, [r3, #16]
 18907              		.loc 1 1190 0
 18908 0040 45F0F805 		orr	r5, r5, #248
 18909              	.LVL40:
 18910 0044 44EA0504 		orr	r4, r4, r5
 18911              	.LVL41:
 18912 0048 46EA0406 		orr	r6, r6, r4
 18913              	.LVL42:
 18914 004c B6B2     		uxth	r6, r6
 18915 004e 4FF60003 		movw	r3, #:lower16:536868864
 18916 0052 C1F6FF73 		movt	r3, #:upper16:536868864
 18917 0056 5E80     		strh	r6, [r3, #2]	@ movhi
 18918              		.loc 1 1193 0
 18919 0058 4FF40050 		mov	r0, #8192
 18920              	.LVL43:
 18921 005c FFF7FEFF 		bl	FLASH_WaitForLastOperation
 18922              		.loc 1 1194 0
 18923 0060 0528     		cmp	r0, #5
 18924              	.LVL44:
 18925 0062 0BD0     		beq	.L53
 18926              		.loc 1 1197 0
 18927 0064 42F20002 		movw	r2, #:lower16:1073881088
 18928 0068 C4F20202 		movt	r2, #:upper16:1073881088
 18929 006c 1169     		ldr	r1, [r2, #16]
 18930 006e 41F6EF73 		movw	r3, #:lower16:8175
 18931 0072 C0F20003 		movt	r3, #:upper16:8175
 18932 0076 01EA0303 		and	r3, r1, r3
 18933 007a 1361     		str	r3, [r2, #16]
 18934              	.LVL45:
 18935              	.L53:
 18936              	.LVL46:
 18937              		.loc 1 1202 0
 18938 007c 70BD     		pop	{r4, r5, r6, pc}
 18939              		.cfi_endproc
 18940              	.LFE45:
 18942 007e 00BF     		.section	.text.FLASH_ReadOutProtection,"ax",%progbits
 18943              		.align	2
 18944              		.global	FLASH_ReadOutProtection
 18945              		.thumb
 18946              		.thumb_func
 18948              	FLASH_ReadOutProtection:
 18949              	.LFB44:
 18950              		.loc 1 1101 0
 18951              		.cfi_startproc
 18952              		@ args = 0, pretend = 0, frame = 0
 18953              		@ frame_needed = 0, uses_anonymous_args = 0
 18954              	.LVL47:
 18955 0000 10B5     		push	{r4, lr}
 18956              	.LCFI2:
 18957              		.cfi_def_cfa_offset 8
 18958 0002 0446     		mov	r4, r0
 18959              		.cfi_offset 14, -4
 18960              		.cfi_offset 4, -8
 18961              		.loc 1 1105 0
 18962 0004 4FF43020 		mov	r0, #720896
 18963              	.LVL48:
 18964 0008 FFF7FEFF 		bl	FLASH_WaitForLastOperation
 18965              		.loc 1 1106 0
 18966 000c 0428     		cmp	r0, #4
 18967              	.LVL49:
 18968 000e 5CD1     		bne	.L56
 18969              		.loc 1 1109 0
 18970 0010 42F20003 		movw	r3, #:lower16:1073881088
 18971 0014 C4F20203 		movt	r3, #:upper16:1073881088
 18972 0018 40F22312 		movw	r2, #:lower16:1164378403
 18973 001c C4F26752 		movt	r2, #:upper16:1164378403
 18974 0020 9A60     		str	r2, [r3, #8]
 18975              		.loc 1 1110 0
 18976 0022 48F6AB12 		movw	r2, #:lower16:-839939669
 18977 0026 CCF6EF52 		movt	r2, #:upper16:-839939669
 18978 002a 9A60     		str	r2, [r3, #8]
 18979              		.loc 1 1111 0
 18980 002c 1A69     		ldr	r2, [r3, #16]
 18981 002e 42F02002 		orr	r2, r2, #32
 18982 0032 1A61     		str	r2, [r3, #16]
 18983              		.loc 1 1112 0
 18984 0034 1A69     		ldr	r2, [r3, #16]
 18985 0036 42F04002 		orr	r2, r2, #64
 18986 003a 1A61     		str	r2, [r3, #16]
 18987              		.loc 1 1114 0
 18988 003c 4FF43020 		mov	r0, #720896
 18989              	.LVL50:
 18990 0040 FFF7FEFF 		bl	FLASH_WaitForLastOperation
 18991              		.loc 1 1115 0
 18992 0044 0428     		cmp	r0, #4
 18993              	.LVL51:
 18994 0046 32D1     		bne	.L57
 18995              		.loc 1 1118 0
 18996 0048 42F20003 		movw	r3, #:lower16:1073881088
 18997 004c C4F20203 		movt	r3, #:upper16:1073881088
 18998 0050 1969     		ldr	r1, [r3, #16]
 18999 0052 41F6DF72 		movw	r2, #:lower16:8159
 19000 0056 C0F20002 		movt	r2, #:upper16:8159
 19001 005a 01EA0202 		and	r2, r1, r2
 19002 005e 1A61     		str	r2, [r3, #16]
 19003              		.loc 1 1120 0
 19004 0060 1A69     		ldr	r2, [r3, #16]
 19005 0062 42F01002 		orr	r2, r2, #16
 19006 0066 1A61     		str	r2, [r3, #16]
 19007              		.loc 1 1121 0
 19008 0068 3CB1     		cbz	r4, .L58
 19009              		.loc 1 1123 0
 19010 006a 4FF60003 		movw	r3, #:lower16:536868864
 19011 006e C1F6FF73 		movt	r3, #:upper16:536868864
 19012 0072 4FF00002 		mov	r2, #0	@ movhi
 19013 0076 1A80     		strh	r2, [r3, #0]	@ movhi
 19014 0078 06E0     		b	.L59
 19015              	.L58:
 19016              		.loc 1 1127 0
 19017 007a 4FF60003 		movw	r3, #:lower16:536868864
 19018 007e C1F6FF73 		movt	r3, #:upper16:536868864
 19019 0082 4FF0A502 		mov	r2, #165	@ movhi
 19020 0086 1A80     		strh	r2, [r3, #0]	@ movhi
 19021              	.L59:
 19022              		.loc 1 1130 0
 19023 0088 4FF43020 		mov	r0, #720896
 19024              	.LVL52:
 19025 008c FFF7FEFF 		bl	FLASH_WaitForLastOperation
 19026              		.loc 1 1132 0
 19027 0090 0528     		cmp	r0, #5
 19028              	.LVL53:
 19029 0092 1AD0     		beq	.L56
 19030              		.loc 1 1135 0
 19031 0094 42F20002 		movw	r2, #:lower16:1073881088
 19032 0098 C4F20202 		movt	r2, #:upper16:1073881088
 19033 009c 1169     		ldr	r1, [r2, #16]
 19034 009e 41F6EF73 		movw	r3, #:lower16:8175
 19035 00a2 C0F20003 		movt	r3, #:upper16:8175
 19036 00a6 01EA0303 		and	r3, r1, r3
 19037 00aa 1361     		str	r3, [r2, #16]
 19038 00ac 10BD     		pop	{r4, pc}
 19039              	.L57:
 19040              		.loc 1 1140 0
 19041 00ae 0528     		cmp	r0, #5
 19042 00b0 0BD0     		beq	.L56
 19043              		.loc 1 1143 0
 19044 00b2 42F20002 		movw	r2, #:lower16:1073881088
 19045 00b6 C4F20202 		movt	r2, #:upper16:1073881088
 19046 00ba 1169     		ldr	r1, [r2, #16]
 19047 00bc 41F6DF73 		movw	r3, #:lower16:8159
 19048 00c0 C0F20003 		movt	r3, #:upper16:8159
 19049 00c4 01EA0303 		and	r3, r1, r3
 19050 00c8 1361     		str	r3, [r2, #16]
 19051              	.L56:
 19052              	.LVL54:
 19053              		.loc 1 1149 0
 19054 00ca 10BD     		pop	{r4, pc}
 19055              		.cfi_endproc
 19056              	.LFE44:
 19058              		.section	.text.FLASH_EnableWriteProtection,"ax",%progbits
 19059              		.align	2
 19060              		.global	FLASH_EnableWriteProtection
 19061              		.thumb
 19062              		.thumb_func
 19064              	FLASH_EnableWriteProtection:
 19065              	.LFB43:
 19066              		.loc 1 1027 0
 19067              		.cfi_startproc
 19068              		@ args = 0, pretend = 0, frame = 0
 19069              		@ frame_needed = 0, uses_anonymous_args = 0
 19070              	.LVL55:
 19071 0000 10B5     		push	{r4, lr}
 19072              	.LCFI3:
 19073              		.cfi_def_cfa_offset 8
 19074 0002 0446     		mov	r4, r0
 19075              		.cfi_offset 14, -4
 19076              		.cfi_offset 4, -8
 19077              		.loc 1 1042 0
 19078 0004 4FF40050 		mov	r0, #8192
 19079              	.LVL56:
 19080 0008 FFF7FEFF 		bl	FLASH_WaitForLastOperation
 19081              		.loc 1 1044 0
 19082 000c 0428     		cmp	r0, #4
 19083              	.LVL57:
 19084 000e 6CD1     		bne	.L62
 19085              		.loc 1 1035 0
 19086 0010 6FEA0404 		mvn	r4, r4
 19087              	.LVL58:
 19088              		.loc 1 1036 0
 19089 0014 E1B2     		uxtb	r1, r4
 19090              	.LVL59:
 19091              		.loc 1 1047 0
 19092 0016 42F20003 		movw	r3, #:lower16:1073881088
 19093 001a C4F20203 		movt	r3, #:upper16:1073881088
 19094 001e 40F22312 		movw	r2, #:lower16:1164378403
 19095 0022 C4F26752 		movt	r2, #:upper16:1164378403
 19096 0026 9A60     		str	r2, [r3, #8]
 19097              		.loc 1 1048 0
 19098 0028 48F6AB12 		movw	r2, #:lower16:-839939669
 19099 002c CCF6EF52 		movt	r2, #:upper16:-839939669
 19100 0030 9A60     		str	r2, [r3, #8]
 19101              		.loc 1 1049 0
 19102 0032 1A69     		ldr	r2, [r3, #16]
 19103 0034 42F01002 		orr	r2, r2, #16
 19104 0038 1A61     		str	r2, [r3, #16]
 19105              		.loc 1 1050 0
 19106 003a FF29     		cmp	r1, #255
 19107 003c 08D0     		beq	.L63
 19108              		.loc 1 1052 0
 19109 003e 4FF60003 		movw	r3, #:lower16:536868864
 19110 0042 C1F6FF73 		movt	r3, #:upper16:536868864
 19111 0046 1981     		strh	r1, [r3, #8]	@ movhi
 19112              		.loc 1 1055 0
 19113 0048 4FF40050 		mov	r0, #8192
 19114              	.LVL60:
 19115 004c FFF7FEFF 		bl	FLASH_WaitForLastOperation
 19116              	.LVL61:
 19117              	.L63:
 19118              		.loc 1 1037 0
 19119 0050 C4F30723 		ubfx	r3, r4, #8, #8
 19120              	.LVL62:
 19121              		.loc 1 1057 0
 19122 0054 B3F1FF02 		subs	r2, r3, #255
 19123 0058 18BF     		it	ne
 19124 005a 0122     		movne	r2, #1
 19125 005c 0428     		cmp	r0, #4
 19126 005e 14BF     		ite	ne
 19127 0060 0022     		movne	r2, #0
 19128 0062 02F00102 		andeq	r2, r2, #1
 19129 0066 42B1     		cbz	r2, .L64
 19130              		.loc 1 1059 0
 19131 0068 4FF60002 		movw	r2, #:lower16:536868864
 19132 006c C1F6FF72 		movt	r2, #:upper16:536868864
 19133 0070 5381     		strh	r3, [r2, #10]	@ movhi
 19134              		.loc 1 1062 0
 19135 0072 4FF40050 		mov	r0, #8192
 19136              	.LVL63:
 19137 0076 FFF7FEFF 		bl	FLASH_WaitForLastOperation
 19138              	.LVL64:
 19139              	.L64:
 19140              		.loc 1 1038 0
 19141 007a C4F30743 		ubfx	r3, r4, #16, #8
 19142              	.LVL65:
 19143              		.loc 1 1064 0
 19144 007e B3F1FF02 		subs	r2, r3, #255
 19145 0082 18BF     		it	ne
 19146 0084 0122     		movne	r2, #1
 19147 0086 0428     		cmp	r0, #4
 19148 0088 14BF     		ite	ne
 19149 008a 0022     		movne	r2, #0
 19150 008c 02F00102 		andeq	r2, r2, #1
 19151 0090 42B1     		cbz	r2, .L65
 19152              		.loc 1 1066 0
 19153 0092 4FF60002 		movw	r2, #:lower16:536868864
 19154 0096 C1F6FF72 		movt	r2, #:upper16:536868864
 19155 009a 9381     		strh	r3, [r2, #12]	@ movhi
 19156              		.loc 1 1069 0
 19157 009c 4FF40050 		mov	r0, #8192
 19158              	.LVL66:
 19159 00a0 FFF7FEFF 		bl	FLASH_WaitForLastOperation
 19160              	.LVL67:
 19161              	.L65:
 19162              		.loc 1 1039 0
 19163 00a4 4FEA1464 		lsr	r4, r4, #24
 19164              	.LVL68:
 19165              		.loc 1 1072 0
 19166 00a8 B4F1FF03 		subs	r3, r4, #255
 19167 00ac 18BF     		it	ne
 19168 00ae 0123     		movne	r3, #1
 19169              	.LVL69:
 19170 00b0 0428     		cmp	r0, #4
 19171 00b2 14BF     		ite	ne
 19172 00b4 0023     		movne	r3, #0
 19173 00b6 03F00103 		andeq	r3, r3, #1
 19174 00ba 43B1     		cbz	r3, .L66
 19175              		.loc 1 1074 0
 19176 00bc 4FF60003 		movw	r3, #:lower16:536868864
 19177 00c0 C1F6FF73 		movt	r3, #:upper16:536868864
 19178 00c4 DC81     		strh	r4, [r3, #14]	@ movhi
 19179              		.loc 1 1077 0
 19180 00c6 4FF40050 		mov	r0, #8192
 19181              	.LVL70:
 19182 00ca FFF7FEFF 		bl	FLASH_WaitForLastOperation
 19183              	.LVL71:
 19184              	.L66:
 19185              		.loc 1 1080 0
 19186 00ce 0528     		cmp	r0, #5
 19187 00d0 0BD0     		beq	.L62
 19188              		.loc 1 1083 0
 19189 00d2 42F20002 		movw	r2, #:lower16:1073881088
 19190 00d6 C4F20202 		movt	r2, #:upper16:1073881088
 19191 00da 1169     		ldr	r1, [r2, #16]
 19192              	.LVL72:
 19193 00dc 41F6EF73 		movw	r3, #:lower16:8175
 19194 00e0 C0F20003 		movt	r3, #:upper16:8175
 19195 00e4 01EA0303 		and	r3, r1, r3
 19196 00e8 1361     		str	r3, [r2, #16]
 19197              	.LVL73:
 19198              	.L62:
 19199              	.LVL74:
 19200              		.loc 1 1088 0
 19201 00ea 10BD     		pop	{r4, pc}
 19202              		.cfi_endproc
 19203              	.LFE43:
 19205              		.section	.text.FLASH_ProgramOptionByteData,"ax",%progbits
 19206              		.align	2
 19207              		.global	FLASH_ProgramOptionByteData
 19208              		.thumb
 19209              		.thumb_func
 19211              	FLASH_ProgramOptionByteData:
 19212              	.LFB42:
 19213              		.loc 1 981 0
 19214              		.cfi_startproc
 19215              		@ args = 0, pretend = 0, frame = 0
 19216              		@ frame_needed = 0, uses_anonymous_args = 0
 19217              	.LVL75:
 19218 0000 38B5     		push	{r3, r4, r5, lr}
 19219              	.LCFI4:
 19220              		.cfi_def_cfa_offset 16
 19221 0002 0446     		mov	r4, r0
 19222              		.cfi_offset 14, -4
 19223              		.cfi_offset 5, -8
 19224              		.cfi_offset 4, -12
 19225              		.cfi_offset 3, -16
 19226 0004 0D46     		mov	r5, r1
 19227              		.loc 1 985 0
 19228 0006 4FF40050 		mov	r0, #8192
 19229              	.LVL76:
 19230 000a FFF7FEFF 		bl	FLASH_WaitForLastOperation
 19231              	.LVL77:
 19232              		.loc 1 987 0
 19233 000e 0428     		cmp	r0, #4
 19234              	.LVL78:
 19235 0010 24D1     		bne	.L69
 19236              		.loc 1 990 0
 19237 0012 42F20003 		movw	r3, #:lower16:1073881088
 19238 0016 C4F20203 		movt	r3, #:upper16:1073881088
 19239 001a 40F22312 		movw	r2, #:lower16:1164378403
 19240 001e C4F26752 		movt	r2, #:upper16:1164378403
 19241 0022 9A60     		str	r2, [r3, #8]
 19242              		.loc 1 991 0
 19243 0024 48F6AB12 		movw	r2, #:lower16:-839939669
 19244 0028 CCF6EF52 		movt	r2, #:upper16:-839939669
 19245 002c 9A60     		str	r2, [r3, #8]
 19246              		.loc 1 993 0
 19247 002e 1A69     		ldr	r2, [r3, #16]
 19248 0030 42F01002 		orr	r2, r2, #16
 19249 0034 1A61     		str	r2, [r3, #16]
 19250              		.loc 1 994 0
 19251 0036 2580     		strh	r5, [r4, #0]	@ movhi
 19252              		.loc 1 997 0
 19253 0038 4FF40050 		mov	r0, #8192
 19254              	.LVL79:
 19255 003c FFF7FEFF 		bl	FLASH_WaitForLastOperation
 19256              		.loc 1 998 0
 19257 0040 0528     		cmp	r0, #5
 19258              	.LVL80:
 19259 0042 0BD0     		beq	.L69
 19260              		.loc 1 1001 0
 19261 0044 42F20002 		movw	r2, #:lower16:1073881088
 19262 0048 C4F20202 		movt	r2, #:upper16:1073881088
 19263 004c 1169     		ldr	r1, [r2, #16]
 19264 004e 41F6EF73 		movw	r3, #:lower16:8175
 19265 0052 C0F20003 		movt	r3, #:upper16:8175
 19266 0056 01EA0303 		and	r3, r1, r3
 19267 005a 1361     		str	r3, [r2, #16]
 19268              	.L69:
 19269              	.LVL81:
 19270              		.loc 1 1006 0
 19271 005c 38BD     		pop	{r3, r4, r5, pc}
 19272              		.cfi_endproc
 19273              	.LFE42:
 19275              		.section	.text.FLASH_ProgramHalfWord,"ax",%progbits
 19276              		.align	2
 19277              		.global	FLASH_ProgramHalfWord
 19278              		.thumb
 19279              		.thumb_func
 19281              	FLASH_ProgramHalfWord:
 19282              	.LFB41:
 19283              		.loc 1 904 0
 19284              		.cfi_startproc
 19285              		@ args = 0, pretend = 0, frame = 0
 19286              		@ frame_needed = 0, uses_anonymous_args = 0
 19287              	.LVL82:
 19288 0000 38B5     		push	{r3, r4, r5, lr}
 19289              	.LCFI5:
 19290              		.cfi_def_cfa_offset 16
 19291 0002 0446     		mov	r4, r0
 19292              		.cfi_offset 14, -4
 19293              		.cfi_offset 5, -8
 19294              		.cfi_offset 4, -12
 19295              		.cfi_offset 3, -16
 19296 0004 0D46     		mov	r5, r1
 19297              		.loc 1 949 0
 19298 0006 4FF40050 		mov	r0, #8192
 19299              	.LVL83:
 19300 000a FFF7FEFF 		bl	FLASH_WaitForLastOperation
 19301              	.LVL84:
 19302              		.loc 1 951 0
 19303 000e 0428     		cmp	r0, #4
 19304              	.LVL85:
 19305 0010 1AD1     		bne	.L72
 19306              		.loc 1 954 0
 19307 0012 42F20003 		movw	r3, #:lower16:1073881088
 19308 0016 C4F20203 		movt	r3, #:upper16:1073881088
 19309 001a 1A69     		ldr	r2, [r3, #16]
 19310 001c 42F00102 		orr	r2, r2, #1
 19311 0020 1A61     		str	r2, [r3, #16]
 19312              		.loc 1 956 0
 19313 0022 2580     		strh	r5, [r4, #0]	@ movhi
 19314              		.loc 1 958 0
 19315 0024 4FF40050 		mov	r0, #8192
 19316              	.LVL86:
 19317 0028 FFF7FEFF 		bl	FLASH_WaitForLastOperation
 19318              		.loc 1 959 0
 19319 002c 0528     		cmp	r0, #5
 19320              	.LVL87:
 19321 002e 0BD0     		beq	.L72
 19322              		.loc 1 962 0
 19323 0030 42F20002 		movw	r2, #:lower16:1073881088
 19324 0034 C4F20202 		movt	r2, #:upper16:1073881088
 19325 0038 1169     		ldr	r1, [r2, #16]
 19326 003a 41F6FE73 		movw	r3, #:lower16:8190
 19327 003e C0F20003 		movt	r3, #:upper16:8190
 19328 0042 01EA0303 		and	r3, r1, r3
 19329 0046 1361     		str	r3, [r2, #16]
 19330              	.L72:
 19331              	.LVL88:
 19332              		.loc 1 969 0
 19333 0048 38BD     		pop	{r3, r4, r5, pc}
 19334              		.cfi_endproc
 19335              	.LFE41:
 19337 004a 00BF     		.section	.text.FLASH_ProgramWord,"ax",%progbits
 19338              		.align	2
 19339              		.global	FLASH_ProgramWord
 19340              		.thumb
 19341              		.thumb_func
 19343              	FLASH_ProgramWord:
 19344              	.LFB40:
 19345              		.loc 1 697 0
 19346              		.cfi_startproc
 19347              		@ args = 0, pretend = 0, frame = 8
 19348              		@ frame_needed = 0, uses_anonymous_args = 0
 19349              	.LVL89:
 19350 0000 30B5     		push	{r4, r5, lr}
 19351              	.LCFI6:
 19352              		.cfi_def_cfa_offset 12
 19353 0002 83B0     		sub	sp, sp, #12
 19354              	.LCFI7:
 19355              		.cfi_def_cfa_offset 24
 19356 0004 0546     		mov	r5, r0
 19357              		.cfi_offset 14, -4
 19358              		.cfi_offset 5, -8
 19359              		.cfi_offset 4, -12
 19360 0006 0C46     		mov	r4, r1
 19361              		.loc 1 699 0
 19362 0008 4FF00003 		mov	r3, #0
 19363 000c 0193     		str	r3, [sp, #4]
 19364              	.LVL90:
 19365              		.loc 1 851 0
 19366 000e 4FF40050 		mov	r0, #8192
 19367              	.LVL91:
 19368 0012 FFF7FEFF 		bl	FLASH_WaitForLastOperation
 19369              	.LVL92:
 19370              		.loc 1 853 0
 19371 0016 0428     		cmp	r0, #4
 19372              	.LVL93:
 19373 0018 37D1     		bne	.L75
 19374              		.loc 1 857 0
 19375 001a 42F20003 		movw	r3, #:lower16:1073881088
 19376 001e C4F20203 		movt	r3, #:upper16:1073881088
 19377 0022 1A69     		ldr	r2, [r3, #16]
 19378 0024 42F00102 		orr	r2, r2, #1
 19379 0028 1A61     		str	r2, [r3, #16]
 19380              		.loc 1 859 0
 19381 002a A3B2     		uxth	r3, r4
 19382 002c 2B80     		strh	r3, [r5, #0]	@ movhi
 19383              		.loc 1 861 0
 19384 002e 4FF40050 		mov	r0, #8192
 19385              	.LVL94:
 19386 0032 FFF7FEFF 		bl	FLASH_WaitForLastOperation
 19387              		.loc 1 863 0
 19388 0036 0428     		cmp	r0, #4
 19389              	.LVL95:
 19390 0038 19D1     		bne	.L76
 19391              		.loc 1 867 0
 19392 003a 05F10205 		add	r5, r5, #2
 19393              	.LVL96:
 19394 003e 0195     		str	r5, [sp, #4]
 19395              		.loc 1 869 0
 19396 0040 019B     		ldr	r3, [sp, #4]
 19397 0042 4FEA1444 		lsr	r4, r4, #16
 19398              	.LVL97:
 19399 0046 1C80     		strh	r4, [r3, #0]	@ movhi
 19400              		.loc 1 872 0
 19401 0048 4FF40050 		mov	r0, #8192
 19402              	.LVL98:
 19403 004c FFF7FEFF 		bl	FLASH_WaitForLastOperation
 19404              		.loc 1 874 0
 19405 0050 0528     		cmp	r0, #5
 19406              	.LVL99:
 19407 0052 1AD0     		beq	.L75
 19408              	.LVL100:
 19409              		.loc 1 877 0
 19410 0054 42F20002 		movw	r2, #:lower16:1073881088
 19411 0058 C4F20202 		movt	r2, #:upper16:1073881088
 19412 005c 1169     		ldr	r1, [r2, #16]
 19413 005e 41F6FE73 		movw	r3, #:lower16:8190
 19414 0062 C0F20003 		movt	r3, #:upper16:8190
 19415 0066 01EA0303 		and	r3, r1, r3
 19416 006a 1361     		str	r3, [r2, #16]
 19417 006c 0DE0     		b	.L75
 19418              	.LVL101:
 19419              	.L76:
 19420              		.loc 1 882 0
 19421 006e 0528     		cmp	r0, #5
 19422 0070 0BD0     		beq	.L75
 19423              		.loc 1 885 0
 19424 0072 42F20002 		movw	r2, #:lower16:1073881088
 19425 0076 C4F20202 		movt	r2, #:upper16:1073881088
 19426 007a 1169     		ldr	r1, [r2, #16]
 19427 007c 41F6FE73 		movw	r3, #:lower16:8190
 19428 0080 C0F20003 		movt	r3, #:upper16:8190
 19429 0084 01EA0303 		and	r3, r1, r3
 19430 0088 1361     		str	r3, [r2, #16]
 19431              	.LVL102:
 19432              	.L75:
 19433              	.LVL103:
 19434              		.loc 1 893 0
 19435 008a 03B0     		add	sp, sp, #12
 19436 008c 30BD     		pop	{r4, r5, pc}
 19437              		.cfi_endproc
 19438              	.LFE40:
 19440 008e 00BF     		.section	.text.FLASH_EraseOptionBytes,"ax",%progbits
 19441              		.align	2
 19442              		.global	FLASH_EraseOptionBytes
 19443              		.thumb
 19444              		.thumb_func
 19446              	FLASH_EraseOptionBytes:
 19447              	.LFB39:
 19448              		.loc 1 632 0
 19449              		.cfi_startproc
 19450              		@ args = 0, pretend = 0, frame = 0
 19451              		@ frame_needed = 0, uses_anonymous_args = 0
 19452 0000 10B5     		push	{r4, lr}
 19453              	.LCFI8:
 19454              		.cfi_def_cfa_offset 8
 19455              		.loc 1 638 0
 19456              		.cfi_offset 14, -4
 19457              		.cfi_offset 4, -8
 19458 0002 FFF7FEFF 		bl	FLASH_GetReadOutProtectionStatus
 19459 0006 0028     		cmp	r0, #0
 19460 0008 0CBF     		ite	eq
 19461 000a A524     		moveq	r4, #165
 19462 000c 0024     		movne	r4, #0
 19463              	.LVL104:
 19464              		.loc 1 644 0
 19465 000e 4FF43020 		mov	r0, #720896
 19466 0012 FFF7FEFF 		bl	FLASH_WaitForLastOperation
 19467              		.loc 1 645 0
 19468 0016 0428     		cmp	r0, #4
 19469              	.LVL105:
 19470 0018 51D1     		bne	.L81
 19471              		.loc 1 648 0
 19472 001a 42F20003 		movw	r3, #:lower16:1073881088
 19473 001e C4F20203 		movt	r3, #:upper16:1073881088
 19474 0022 40F22312 		movw	r2, #:lower16:1164378403
 19475 0026 C4F26752 		movt	r2, #:upper16:1164378403
 19476 002a 9A60     		str	r2, [r3, #8]
 19477              		.loc 1 649 0
 19478 002c 48F6AB12 		movw	r2, #:lower16:-839939669
 19479 0030 CCF6EF52 		movt	r2, #:upper16:-839939669
 19480 0034 9A60     		str	r2, [r3, #8]
 19481              		.loc 1 652 0
 19482 0036 1A69     		ldr	r2, [r3, #16]
 19483 0038 42F02002 		orr	r2, r2, #32
 19484 003c 1A61     		str	r2, [r3, #16]
 19485              		.loc 1 653 0
 19486 003e 1A69     		ldr	r2, [r3, #16]
 19487 0040 42F04002 		orr	r2, r2, #64
 19488 0044 1A61     		str	r2, [r3, #16]
 19489              		.loc 1 655 0
 19490 0046 4FF43020 		mov	r0, #720896
 19491              	.LVL106:
 19492 004a FFF7FEFF 		bl	FLASH_WaitForLastOperation
 19493              		.loc 1 657 0
 19494 004e 0428     		cmp	r0, #4
 19495              	.LVL107:
 19496 0050 27D1     		bne	.L82
 19497              		.loc 1 660 0
 19498 0052 42F20003 		movw	r3, #:lower16:1073881088
 19499 0056 C4F20203 		movt	r3, #:upper16:1073881088
 19500 005a 1969     		ldr	r1, [r3, #16]
 19501 005c 41F6DF72 		movw	r2, #:lower16:8159
 19502 0060 C0F20002 		movt	r2, #:upper16:8159
 19503 0064 01EA0202 		and	r2, r1, r2
 19504 0068 1A61     		str	r2, [r3, #16]
 19505              		.loc 1 663 0
 19506 006a 1A69     		ldr	r2, [r3, #16]
 19507 006c 42F01002 		orr	r2, r2, #16
 19508 0070 1A61     		str	r2, [r3, #16]
 19509              		.loc 1 665 0
 19510 0072 4FF60003 		movw	r3, #:lower16:536868864
 19511 0076 C1F6FF73 		movt	r3, #:upper16:536868864
 19512 007a 1C80     		strh	r4, [r3, #0]	@ movhi
 19513              		.loc 1 667 0
 19514 007c 4FF40050 		mov	r0, #8192
 19515              	.LVL108:
 19516 0080 FFF7FEFF 		bl	FLASH_WaitForLastOperation
 19517              		.loc 1 669 0
 19518 0084 0528     		cmp	r0, #5
 19519              	.LVL109:
 19520 0086 1AD0     		beq	.L81
 19521              		.loc 1 672 0
 19522 0088 42F20002 		movw	r2, #:lower16:1073881088
 19523 008c C4F20202 		movt	r2, #:upper16:1073881088
 19524 0090 1169     		ldr	r1, [r2, #16]
 19525 0092 41F6EF73 		movw	r3, #:lower16:8175
 19526 0096 C0F20003 		movt	r3, #:upper16:8175
 19527 009a 01EA0303 		and	r3, r1, r3
 19528 009e 1361     		str	r3, [r2, #16]
 19529 00a0 10BD     		pop	{r4, pc}
 19530              	.L82:
 19531              		.loc 1 677 0
 19532 00a2 0528     		cmp	r0, #5
 19533 00a4 0BD0     		beq	.L81
 19534              		.loc 1 680 0
 19535 00a6 42F20002 		movw	r2, #:lower16:1073881088
 19536 00aa C4F20202 		movt	r2, #:upper16:1073881088
 19537 00ae 1169     		ldr	r1, [r2, #16]
 19538 00b0 41F6EF73 		movw	r3, #:lower16:8175
 19539 00b4 C0F20003 		movt	r3, #:upper16:8175
 19540 00b8 01EA0303 		and	r3, r1, r3
 19541 00bc 1361     		str	r3, [r2, #16]
 19542              	.L81:
 19543              	.LVL110:
 19544              		.loc 1 686 0
 19545 00be 10BD     		pop	{r4, pc}
 19546              		.cfi_endproc
 19547              	.LFE39:
 19549              		.section	.text.FLASH_EraseAllPages,"ax",%progbits
 19550              		.align	2
 19551              		.global	FLASH_EraseAllPages
 19552              		.thumb
 19553              		.thumb_func
 19555              	FLASH_EraseAllPages:
 19556              	.LFB37:
 19557              		.loc 1 498 0
 19558              		.cfi_startproc
 19559              		@ args = 0, pretend = 0, frame = 0
 19560              		@ frame_needed = 0, uses_anonymous_args = 0
 19561 0000 08B5     		push	{r3, lr}
 19562              	.LCFI9:
 19563              		.cfi_def_cfa_offset 8
 19564              		.loc 1 535 0
 19565 0002 4FF43020 		mov	r0, #720896
 19566              		.cfi_offset 14, -4
 19567              		.cfi_offset 3, -8
 19568 0006 FFF7FEFF 		bl	FLASH_WaitForLastOperation
 19569              		.loc 1 536 0
 19570 000a 0428     		cmp	r0, #4
 19571              	.LVL111:
 19572 000c 1DD1     		bne	.L85
 19573              		.loc 1 539 0
 19574 000e 42F20003 		movw	r3, #:lower16:1073881088
 19575 0012 C4F20203 		movt	r3, #:upper16:1073881088
 19576 0016 1A69     		ldr	r2, [r3, #16]
 19577 0018 42F00402 		orr	r2, r2, #4
 19578 001c 1A61     		str	r2, [r3, #16]
 19579              		.loc 1 540 0
 19580 001e 1A69     		ldr	r2, [r3, #16]
 19581 0020 42F04002 		orr	r2, r2, #64
 19582 0024 1A61     		str	r2, [r3, #16]
 19583              		.loc 1 543 0
 19584 0026 4FF43020 		mov	r0, #720896
 19585              	.LVL112:
 19586 002a FFF7FEFF 		bl	FLASH_WaitForLastOperation
 19587              		.loc 1 544 0
 19588 002e 0528     		cmp	r0, #5
 19589              	.LVL113:
 19590 0030 0BD0     		beq	.L85
 19591              		.loc 1 547 0
 19592 0032 42F20002 		movw	r2, #:lower16:1073881088
 19593 0036 C4F20202 		movt	r2, #:upper16:1073881088
 19594 003a 1169     		ldr	r1, [r2, #16]
 19595 003c 41F6FB73 		movw	r3, #:lower16:8187
 19596 0040 C0F20003 		movt	r3, #:upper16:8187
 19597 0044 01EA0303 		and	r3, r1, r3
 19598 0048 1361     		str	r3, [r2, #16]
 19599              	.L85:
 19600              	.LVL114:
 19601              		.loc 1 554 0
 19602 004a 08BD     		pop	{r3, pc}
 19603              		.cfi_endproc
 19604              	.LFE37:
 19606              		.section	.text.FLASH_ErasePage,"ax",%progbits
 19607              		.align	2
 19608              		.global	FLASH_ErasePage
 19609              		.thumb
 19610              		.thumb_func
 19612              	FLASH_ErasePage:
 19613              	.LFB36:
 19614              		.loc 1 419 0
 19615              		.cfi_startproc
 19616              		@ args = 0, pretend = 0, frame = 0
 19617              		@ frame_needed = 0, uses_anonymous_args = 0
 19618              	.LVL115:
 19619 0000 10B5     		push	{r4, lr}
 19620              	.LCFI10:
 19621              		.cfi_def_cfa_offset 8
 19622 0002 0446     		mov	r4, r0
 19623              		.cfi_offset 14, -4
 19624              		.cfi_offset 4, -8
 19625              		.loc 1 467 0
 19626 0004 4FF43020 		mov	r0, #720896
 19627              	.LVL116:
 19628 0008 FFF7FEFF 		bl	FLASH_WaitForLastOperation
 19629              		.loc 1 469 0
 19630 000c 0428     		cmp	r0, #4
 19631              	.LVL117:
 19632 000e 1ED1     		bne	.L88
 19633              		.loc 1 472 0
 19634 0010 42F20003 		movw	r3, #:lower16:1073881088
 19635 0014 C4F20203 		movt	r3, #:upper16:1073881088
 19636 0018 1A69     		ldr	r2, [r3, #16]
 19637 001a 42F00202 		orr	r2, r2, #2
 19638 001e 1A61     		str	r2, [r3, #16]
 19639              		.loc 1 473 0
 19640 0020 5C61     		str	r4, [r3, #20]
 19641              		.loc 1 474 0
 19642 0022 1A69     		ldr	r2, [r3, #16]
 19643 0024 42F04002 		orr	r2, r2, #64
 19644 0028 1A61     		str	r2, [r3, #16]
 19645              		.loc 1 477 0
 19646 002a 4FF43020 		mov	r0, #720896
 19647              	.LVL118:
 19648 002e FFF7FEFF 		bl	FLASH_WaitForLastOperation
 19649              		.loc 1 478 0
 19650 0032 0528     		cmp	r0, #5
 19651              	.LVL119:
 19652 0034 0BD0     		beq	.L88
 19653              		.loc 1 481 0
 19654 0036 42F20002 		movw	r2, #:lower16:1073881088
 19655 003a C4F20202 		movt	r2, #:upper16:1073881088
 19656 003e 1169     		ldr	r1, [r2, #16]
 19657 0040 41F6FD73 		movw	r3, #:lower16:8189
 19658 0044 C0F20003 		movt	r3, #:upper16:8189
 19659 0048 01EA0303 		and	r3, r1, r3
 19660 004c 1361     		str	r3, [r2, #16]
 19661              	.L88:
 19662              	.LVL120:
 19663              		.loc 1 488 0
 19664 004e 10BD     		pop	{r4, pc}
 19665              		.cfi_endproc
 19666              	.LFE36:
 19668              		.section	.text.FLASH_WaitForLastBank1Operation,"ax",%progbits
 19669              		.align	2
 19670              		.global	FLASH_WaitForLastBank1Operation
 19671              		.thumb
 19672              		.thumb_func
 19674              	FLASH_WaitForLastBank1Operation:
 19675              	.LFB56:
1665:../Library/STM32F10x_StdPeriph_Driver/src/stm32f10x_flash.c **** 
1666:../Library/STM32F10x_StdPeriph_Driver/src/stm32f10x_flash.c **** /**
1667:../Library/STM32F10x_StdPeriph_Driver/src/stm32f10x_flash.c ****   * @brief  Waits for a Flash operation on Bank1 to complete or a TIMEOUT to occur.
1668:../Library/STM32F10x_StdPeriph_Driver/src/stm32f10x_flash.c ****   * @note   This function can be used for all STM32F10x devices, 
1669:../Library/STM32F10x_StdPeriph_Driver/src/stm32f10x_flash.c ****   *         it is equivalent to FLASH_WaitForLastOperation.
1670:../Library/STM32F10x_StdPeriph_Driver/src/stm32f10x_flash.c ****   * @param  Timeout: FLASH progamming Timeout
1671:../Library/STM32F10x_StdPeriph_Driver/src/stm32f10x_flash.c ****   * @retval FLASH Status: The returned value can be: FLASH_ERROR_PG,
1672:../Library/STM32F10x_StdPeriph_Driver/src/stm32f10x_flash.c ****   *   FLASH_ERROR_WRP, FLASH_COMPLETE or FLASH_TIMEOUT.
1673:../Library/STM32F10x_StdPeriph_Driver/src/stm32f10x_flash.c ****   */
1674:../Library/STM32F10x_StdPeriph_Driver/src/stm32f10x_flash.c **** FLASH_Status FLASH_WaitForLastBank1Operation(uint32_t Timeout)
1675:../Library/STM32F10x_StdPeriph_Driver/src/stm32f10x_flash.c **** { 
 19676              		.loc 1 1675 0
 19677              		.cfi_startproc
 19678              		@ args = 0, pretend = 0, frame = 0
 19679              		@ frame_needed = 0, uses_anonymous_args = 0
 19680              	.LVL121:
 19681 0000 10B5     		push	{r4, lr}
 19682              	.LCFI11:
 19683              		.cfi_def_cfa_offset 8
 19684 0002 0446     		mov	r4, r0
 19685              		.cfi_offset 14, -4
 19686              		.cfi_offset 4, -8
1676:../Library/STM32F10x_StdPeriph_Driver/src/stm32f10x_flash.c ****   FLASH_Status status = FLASH_COMPLETE;
1677:../Library/STM32F10x_StdPeriph_Driver/src/stm32f10x_flash.c ****    
1678:../Library/STM32F10x_StdPeriph_Driver/src/stm32f10x_flash.c ****   /* Check for the Flash Status */
1679:../Library/STM32F10x_StdPeriph_Driver/src/stm32f10x_flash.c ****   status = FLASH_GetBank1Status();
 19687              		.loc 1 1679 0
 19688 0004 FFF7FEFF 		bl	FLASH_GetBank1Status
 19689              	.LVL122:
1680:../Library/STM32F10x_StdPeriph_Driver/src/stm32f10x_flash.c ****   /* Wait for a Flash operation to complete or a TIMEOUT to occur */
1681:../Library/STM32F10x_StdPeriph_Driver/src/stm32f10x_flash.c ****   while((status == FLASH_FLAG_BANK1_BSY) && (Timeout != 0x00))
 19690              		.loc 1 1681 0
 19691 0008 231E     		subs	r3, r4, #0
 19692 000a 18BF     		it	ne
 19693 000c 0123     		movne	r3, #1
 19694 000e 0128     		cmp	r0, #1
 19695 0010 14BF     		ite	ne
 19696 0012 0023     		movne	r3, #0
 19697 0014 03F00103 		andeq	r3, r3, #1
 19698              	.LVL123:
 19699 0018 63B1     		cbz	r3, .L91
 19700              	.L95:
1682:../Library/STM32F10x_StdPeriph_Driver/src/stm32f10x_flash.c ****   {
1683:../Library/STM32F10x_StdPeriph_Driver/src/stm32f10x_flash.c ****     status = FLASH_GetBank1Status();
 19701              		.loc 1 1683 0
 19702 001a FFF7FEFF 		bl	FLASH_GetBank1Status
 19703              	.LVL124:
 19704              		.loc 1 1681 0
 19705 001e 013C     		subs	r4, r4, #1
 19706 0020 0CBF     		ite	eq
 19707 0022 0023     		moveq	r3, #0
 19708 0024 0123     		movne	r3, #1
 19709 0026 0128     		cmp	r0, #1
 19710 0028 14BF     		ite	ne
 19711 002a 0023     		movne	r3, #0
 19712 002c 03F00103 		andeq	r3, r3, #1
 19713              	.LVL125:
 19714 0030 002B     		cmp	r3, #0
 19715 0032 F2D1     		bne	.L95
 19716              	.L91:
1684:../Library/STM32F10x_StdPeriph_Driver/src/stm32f10x_flash.c ****     Timeout--;
1685:../Library/STM32F10x_StdPeriph_Driver/src/stm32f10x_flash.c ****   }
1686:../Library/STM32F10x_StdPeriph_Driver/src/stm32f10x_flash.c ****   if(Timeout == 0x00 )
1687:../Library/STM32F10x_StdPeriph_Driver/src/stm32f10x_flash.c ****   {
1688:../Library/STM32F10x_StdPeriph_Driver/src/stm32f10x_flash.c ****     status = FLASH_TIMEOUT;
1689:../Library/STM32F10x_StdPeriph_Driver/src/stm32f10x_flash.c ****   }
1690:../Library/STM32F10x_StdPeriph_Driver/src/stm32f10x_flash.c ****   /* Return the operation status */
1691:../Library/STM32F10x_StdPeriph_Driver/src/stm32f10x_flash.c ****   return status;
1692:../Library/STM32F10x_StdPeriph_Driver/src/stm32f10x_flash.c **** }
 19717              		.loc 1 1692 0
 19718 0034 002C     		cmp	r4, #0
 19719 0036 08BF     		it	eq
 19720 0038 0520     		moveq	r0, #5
 19721              	.LVL126:
 19722 003a 10BD     		pop	{r4, pc}
 19723              		.cfi_endproc
 19724              	.LFE56:
 19726              		.section	.text.FLASH_EraseAllBank1Pages,"ax",%progbits
 19727              		.align	2
 19728              		.global	FLASH_EraseAllBank1Pages
 19729              		.thumb
 19730              		.thumb_func
 19732              	FLASH_EraseAllBank1Pages:
 19733              	.LFB38:
 19734              		.loc 1 567 0
 19735              		.cfi_startproc
 19736              		@ args = 0, pretend = 0, frame = 0
 19737              		@ frame_needed = 0, uses_anonymous_args = 0
 19738 0000 08B5     		push	{r3, lr}
 19739              	.LCFI12:
 19740              		.cfi_def_cfa_offset 8
 19741              		.loc 1 570 0
 19742 0002 4FF43020 		mov	r0, #720896
 19743              		.cfi_offset 14, -4
 19744              		.cfi_offset 3, -8
 19745 0006 FFF7FEFF 		bl	FLASH_WaitForLastBank1Operation
 19746              		.loc 1 572 0
 19747 000a 0428     		cmp	r0, #4
 19748              	.LVL127:
 19749 000c 1DD1     		bne	.L98
 19750              		.loc 1 575 0
 19751 000e 42F20003 		movw	r3, #:lower16:1073881088
 19752 0012 C4F20203 		movt	r3, #:upper16:1073881088
 19753 0016 1A69     		ldr	r2, [r3, #16]
 19754 0018 42F00402 		orr	r2, r2, #4
 19755 001c 1A61     		str	r2, [r3, #16]
 19756              		.loc 1 576 0
 19757 001e 1A69     		ldr	r2, [r3, #16]
 19758 0020 42F04002 		orr	r2, r2, #64
 19759 0024 1A61     		str	r2, [r3, #16]
 19760              		.loc 1 579 0
 19761 0026 4FF43020 		mov	r0, #720896
 19762              	.LVL128:
 19763 002a FFF7FEFF 		bl	FLASH_WaitForLastBank1Operation
 19764              		.loc 1 580 0
 19765 002e 0528     		cmp	r0, #5
 19766              	.LVL129:
 19767 0030 0BD0     		beq	.L98
 19768              		.loc 1 583 0
 19769 0032 42F20002 		movw	r2, #:lower16:1073881088
 19770 0036 C4F20202 		movt	r2, #:upper16:1073881088
 19771 003a 1169     		ldr	r1, [r2, #16]
 19772 003c 41F6FB73 		movw	r3, #:lower16:8187
 19773 0040 C0F20003 		movt	r3, #:upper16:8187
 19774 0044 01EA0303 		and	r3, r1, r3
 19775 0048 1361     		str	r3, [r2, #16]
 19776              	.L98:
 19777              	.LVL130:
 19778              		.loc 1 588 0
 19779 004a 08BD     		pop	{r3, pc}
 19780              		.cfi_endproc
 19781              	.LFE38:
 19783              		.text
 19784              	.Letext0: